
thttpd-no:     file format elf64-x86-64


Disassembly of section .init:

0000000000402258 <_init>:
  402258:	48 83 ec 08          	sub    $0x8,%rsp
  40225c:	48 8b 05 95 1d 21 00 	mov    0x211d95(%rip),%rax        # 613ff8 <_DYNAMIC+0x200>
  402263:	48 85 c0             	test   %rax,%rax
  402266:	74 05                	je     40226d <_init+0x15>
  402268:	e8 93 03 00 00       	callq  402600 <__gmon_start__@plt>
  40226d:	48 83 c4 08          	add    $0x8,%rsp
  402271:	c3                   	retq   

Disassembly of section .plt:

0000000000402280 <getenv@plt-0x10>:
  402280:	ff 35 82 1d 21 00    	pushq  0x211d82(%rip)        # 614008 <_GLOBAL_OFFSET_TABLE_+0x8>
  402286:	ff 25 84 1d 21 00    	jmpq   *0x211d84(%rip)        # 614010 <_GLOBAL_OFFSET_TABLE_+0x10>
  40228c:	0f 1f 40 00          	nopl   0x0(%rax)

0000000000402290 <getenv@plt>:
  402290:	ff 25 82 1d 21 00    	jmpq   *0x211d82(%rip)        # 614018 <_GLOBAL_OFFSET_TABLE_+0x18>
  402296:	68 00 00 00 00       	pushq  $0x0
  40229b:	e9 e0 ff ff ff       	jmpq   402280 <_init+0x28>

00000000004022a0 <free@plt>:
  4022a0:	ff 25 7a 1d 21 00    	jmpq   *0x211d7a(%rip)        # 614020 <_GLOBAL_OFFSET_TABLE_+0x20>
  4022a6:	68 01 00 00 00       	pushq  $0x1
  4022ab:	e9 d0 ff ff ff       	jmpq   402280 <_init+0x28>

00000000004022b0 <strcasecmp@plt>:
  4022b0:	ff 25 72 1d 21 00    	jmpq   *0x211d72(%rip)        # 614028 <_GLOBAL_OFFSET_TABLE_+0x28>
  4022b6:	68 02 00 00 00       	pushq  $0x2
  4022bb:	e9 c0 ff ff ff       	jmpq   402280 <_init+0x28>

00000000004022c0 <closelog@plt>:
  4022c0:	ff 25 6a 1d 21 00    	jmpq   *0x211d6a(%rip)        # 614030 <_GLOBAL_OFFSET_TABLE_+0x30>
  4022c6:	68 03 00 00 00       	pushq  $0x3
  4022cb:	e9 b0 ff ff ff       	jmpq   402280 <_init+0x28>

00000000004022d0 <localtime@plt>:
  4022d0:	ff 25 62 1d 21 00    	jmpq   *0x211d62(%rip)        # 614038 <_GLOBAL_OFFSET_TABLE_+0x38>
  4022d6:	68 04 00 00 00       	pushq  $0x4
  4022db:	e9 a0 ff ff ff       	jmpq   402280 <_init+0x28>

00000000004022e0 <abort@plt>:
  4022e0:	ff 25 5a 1d 21 00    	jmpq   *0x211d5a(%rip)        # 614040 <_GLOBAL_OFFSET_TABLE_+0x40>
  4022e6:	68 05 00 00 00       	pushq  $0x5
  4022eb:	e9 90 ff ff ff       	jmpq   402280 <_init+0x28>

00000000004022f0 <__errno_location@plt>:
  4022f0:	ff 25 52 1d 21 00    	jmpq   *0x211d52(%rip)        # 614048 <_GLOBAL_OFFSET_TABLE_+0x48>
  4022f6:	68 06 00 00 00       	pushq  $0x6
  4022fb:	e9 80 ff ff ff       	jmpq   402280 <_init+0x28>

0000000000402300 <strncpy@plt>:
  402300:	ff 25 4a 1d 21 00    	jmpq   *0x211d4a(%rip)        # 614050 <_GLOBAL_OFFSET_TABLE_+0x50>
  402306:	68 07 00 00 00       	pushq  $0x7
  40230b:	e9 70 ff ff ff       	jmpq   402280 <_init+0x28>

0000000000402310 <strncmp@plt>:
  402310:	ff 25 42 1d 21 00    	jmpq   *0x211d42(%rip)        # 614058 <_GLOBAL_OFFSET_TABLE_+0x58>
  402316:	68 08 00 00 00       	pushq  $0x8
  40231b:	e9 60 ff ff ff       	jmpq   402280 <_init+0x28>

0000000000402320 <strcpy@plt>:
  402320:	ff 25 3a 1d 21 00    	jmpq   *0x211d3a(%rip)        # 614060 <_GLOBAL_OFFSET_TABLE_+0x60>
  402326:	68 09 00 00 00       	pushq  $0x9
  40232b:	e9 50 ff ff ff       	jmpq   402280 <_init+0x28>

0000000000402330 <chroot@plt>:
  402330:	ff 25 32 1d 21 00    	jmpq   *0x211d32(%rip)        # 614068 <_GLOBAL_OFFSET_TABLE_+0x68>
  402336:	68 0a 00 00 00       	pushq  $0xa
  40233b:	e9 40 ff ff ff       	jmpq   402280 <_init+0x28>

0000000000402340 <writev@plt>:
  402340:	ff 25 2a 1d 21 00    	jmpq   *0x211d2a(%rip)        # 614070 <_GLOBAL_OFFSET_TABLE_+0x70>
  402346:	68 0b 00 00 00       	pushq  $0xb
  40234b:	e9 30 ff ff ff       	jmpq   402280 <_init+0x28>

0000000000402350 <puts@plt>:
  402350:	ff 25 22 1d 21 00    	jmpq   *0x211d22(%rip)        # 614078 <_GLOBAL_OFFSET_TABLE_+0x78>
  402356:	68 0c 00 00 00       	pushq  $0xc
  40235b:	e9 20 ff ff ff       	jmpq   402280 <_init+0x28>

0000000000402360 <qsort@plt>:
  402360:	ff 25 1a 1d 21 00    	jmpq   *0x211d1a(%rip)        # 614080 <_GLOBAL_OFFSET_TABLE_+0x80>
  402366:	68 0d 00 00 00       	pushq  $0xd
  40236b:	e9 10 ff ff ff       	jmpq   402280 <_init+0x28>

0000000000402370 <fread@plt>:
  402370:	ff 25 12 1d 21 00    	jmpq   *0x211d12(%rip)        # 614088 <_GLOBAL_OFFSET_TABLE_+0x88>
  402376:	68 0e 00 00 00       	pushq  $0xe
  40237b:	e9 00 ff ff ff       	jmpq   402280 <_init+0x28>

0000000000402380 <vsnprintf@plt>:
  402380:	ff 25 0a 1d 21 00    	jmpq   *0x211d0a(%rip)        # 614090 <_GLOBAL_OFFSET_TABLE_+0x90>
  402386:	68 0f 00 00 00       	pushq  $0xf
  40238b:	e9 f0 fe ff ff       	jmpq   402280 <_init+0x28>

0000000000402390 <setsockopt@plt>:
  402390:	ff 25 02 1d 21 00    	jmpq   *0x211d02(%rip)        # 614098 <_GLOBAL_OFFSET_TABLE_+0x98>
  402396:	68 10 00 00 00       	pushq  $0x10
  40239b:	e9 e0 fe ff ff       	jmpq   402280 <_init+0x28>

00000000004023a0 <readlink@plt>:
  4023a0:	ff 25 fa 1c 21 00    	jmpq   *0x211cfa(%rip)        # 6140a0 <_GLOBAL_OFFSET_TABLE_+0xa0>
  4023a6:	68 11 00 00 00       	pushq  $0x11
  4023ab:	e9 d0 fe ff ff       	jmpq   402280 <_init+0x28>

00000000004023b0 <fcntl@plt>:
  4023b0:	ff 25 f2 1c 21 00    	jmpq   *0x211cf2(%rip)        # 6140a8 <_GLOBAL_OFFSET_TABLE_+0xa8>
  4023b6:	68 12 00 00 00       	pushq  $0x12
  4023bb:	e9 c0 fe ff ff       	jmpq   402280 <_init+0x28>

00000000004023c0 <write@plt>:
  4023c0:	ff 25 ea 1c 21 00    	jmpq   *0x211cea(%rip)        # 6140b0 <_GLOBAL_OFFSET_TABLE_+0xb0>
  4023c6:	68 13 00 00 00       	pushq  $0x13
  4023cb:	e9 b0 fe ff ff       	jmpq   402280 <_init+0x28>

00000000004023d0 <getpid@plt>:
  4023d0:	ff 25 e2 1c 21 00    	jmpq   *0x211ce2(%rip)        # 6140b8 <_GLOBAL_OFFSET_TABLE_+0xb8>
  4023d6:	68 14 00 00 00       	pushq  $0x14
  4023db:	e9 a0 fe ff ff       	jmpq   402280 <_init+0x28>

00000000004023e0 <fclose@plt>:
  4023e0:	ff 25 da 1c 21 00    	jmpq   *0x211cda(%rip)        # 6140c0 <_GLOBAL_OFFSET_TABLE_+0xc0>
  4023e6:	68 15 00 00 00       	pushq  $0x15
  4023eb:	e9 90 fe ff ff       	jmpq   402280 <_init+0x28>

00000000004023f0 <opendir@plt>:
  4023f0:	ff 25 d2 1c 21 00    	jmpq   *0x211cd2(%rip)        # 6140c8 <_GLOBAL_OFFSET_TABLE_+0xc8>
  4023f6:	68 16 00 00 00       	pushq  $0x16
  4023fb:	e9 80 fe ff ff       	jmpq   402280 <_init+0x28>

0000000000402400 <ctime@plt>:
  402400:	ff 25 ca 1c 21 00    	jmpq   *0x211cca(%rip)        # 6140d0 <_GLOBAL_OFFSET_TABLE_+0xd0>
  402406:	68 17 00 00 00       	pushq  $0x17
  40240b:	e9 70 fe ff ff       	jmpq   402280 <_init+0x28>

0000000000402410 <shutdown@plt>:
  402410:	ff 25 c2 1c 21 00    	jmpq   *0x211cc2(%rip)        # 6140d8 <_GLOBAL_OFFSET_TABLE_+0xd8>
  402416:	68 18 00 00 00       	pushq  $0x18
  40241b:	e9 60 fe ff ff       	jmpq   402280 <_init+0x28>

0000000000402420 <strlen@plt>:
  402420:	ff 25 ba 1c 21 00    	jmpq   *0x211cba(%rip)        # 6140e0 <_GLOBAL_OFFSET_TABLE_+0xe0>
  402426:	68 19 00 00 00       	pushq  $0x19
  40242b:	e9 50 fe ff ff       	jmpq   402280 <_init+0x28>

0000000000402430 <__lxstat@plt>:
  402430:	ff 25 b2 1c 21 00    	jmpq   *0x211cb2(%rip)        # 6140e8 <_GLOBAL_OFFSET_TABLE_+0xe8>
  402436:	68 1a 00 00 00       	pushq  $0x1a
  40243b:	e9 40 fe ff ff       	jmpq   402280 <_init+0x28>

0000000000402440 <chdir@plt>:
  402440:	ff 25 aa 1c 21 00    	jmpq   *0x211caa(%rip)        # 6140f0 <_GLOBAL_OFFSET_TABLE_+0xf0>
  402446:	68 1b 00 00 00       	pushq  $0x1b
  40244b:	e9 30 fe ff ff       	jmpq   402280 <_init+0x28>

0000000000402450 <getuid@plt>:
  402450:	ff 25 a2 1c 21 00    	jmpq   *0x211ca2(%rip)        # 6140f8 <_GLOBAL_OFFSET_TABLE_+0xf8>
  402456:	68 1c 00 00 00       	pushq  $0x1c
  40245b:	e9 20 fe ff ff       	jmpq   402280 <_init+0x28>

0000000000402460 <mmap@plt>:
  402460:	ff 25 9a 1c 21 00    	jmpq   *0x211c9a(%rip)        # 614100 <_GLOBAL_OFFSET_TABLE_+0x100>
  402466:	68 1d 00 00 00       	pushq  $0x1d
  40246b:	e9 10 fe ff ff       	jmpq   402280 <_init+0x28>

0000000000402470 <dup2@plt>:
  402470:	ff 25 92 1c 21 00    	jmpq   *0x211c92(%rip)        # 614108 <_GLOBAL_OFFSET_TABLE_+0x108>
  402476:	68 1e 00 00 00       	pushq  $0x1e
  40247b:	e9 00 fe ff ff       	jmpq   402280 <_init+0x28>

0000000000402480 <strchr@plt>:
  402480:	ff 25 8a 1c 21 00    	jmpq   *0x211c8a(%rip)        # 614110 <_GLOBAL_OFFSET_TABLE_+0x110>
  402486:	68 1f 00 00 00       	pushq  $0x1f
  40248b:	e9 f0 fd ff ff       	jmpq   402280 <_init+0x28>

0000000000402490 <snprintf@plt>:
  402490:	ff 25 82 1c 21 00    	jmpq   *0x211c82(%rip)        # 614118 <_GLOBAL_OFFSET_TABLE_+0x118>
  402496:	68 20 00 00 00       	pushq  $0x20
  40249b:	e9 e0 fd ff ff       	jmpq   402280 <_init+0x28>

00000000004024a0 <gai_strerror@plt>:
  4024a0:	ff 25 7a 1c 21 00    	jmpq   *0x211c7a(%rip)        # 614120 <_GLOBAL_OFFSET_TABLE_+0x120>
  4024a6:	68 21 00 00 00       	pushq  $0x21
  4024ab:	e9 d0 fd ff ff       	jmpq   402280 <_init+0x28>

00000000004024b0 <strrchr@plt>:
  4024b0:	ff 25 72 1c 21 00    	jmpq   *0x211c72(%rip)        # 614128 <_GLOBAL_OFFSET_TABLE_+0x128>
  4024b6:	68 22 00 00 00       	pushq  $0x22
  4024bb:	e9 c0 fd ff ff       	jmpq   402280 <_init+0x28>

00000000004024c0 <gettimeofday@plt>:
  4024c0:	ff 25 6a 1c 21 00    	jmpq   *0x211c6a(%rip)        # 614130 <_GLOBAL_OFFSET_TABLE_+0x130>
  4024c6:	68 23 00 00 00       	pushq  $0x23
  4024cb:	e9 b0 fd ff ff       	jmpq   402280 <_init+0x28>

00000000004024d0 <getcwd@plt>:
  4024d0:	ff 25 62 1c 21 00    	jmpq   *0x211c62(%rip)        # 614138 <_GLOBAL_OFFSET_TABLE_+0x138>
  4024d6:	68 24 00 00 00       	pushq  $0x24
  4024db:	e9 a0 fd ff ff       	jmpq   402280 <_init+0x28>

00000000004024e0 <alarm@plt>:
  4024e0:	ff 25 5a 1c 21 00    	jmpq   *0x211c5a(%rip)        # 614140 <_GLOBAL_OFFSET_TABLE_+0x140>
  4024e6:	68 25 00 00 00       	pushq  $0x25
  4024eb:	e9 90 fd ff ff       	jmpq   402280 <_init+0x28>

00000000004024f0 <close@plt>:
  4024f0:	ff 25 52 1c 21 00    	jmpq   *0x211c52(%rip)        # 614148 <_GLOBAL_OFFSET_TABLE_+0x148>
  4024f6:	68 26 00 00 00       	pushq  $0x26
  4024fb:	e9 80 fd ff ff       	jmpq   402280 <_init+0x28>

0000000000402500 <setgroups@plt>:
  402500:	ff 25 4a 1c 21 00    	jmpq   *0x211c4a(%rip)        # 614150 <_GLOBAL_OFFSET_TABLE_+0x150>
  402506:	68 27 00 00 00       	pushq  $0x27
  40250b:	e9 70 fd ff ff       	jmpq   402280 <_init+0x28>

0000000000402510 <crypt@plt>:
  402510:	ff 25 42 1c 21 00    	jmpq   *0x211c42(%rip)        # 614158 <_GLOBAL_OFFSET_TABLE_+0x158>
  402516:	68 28 00 00 00       	pushq  $0x28
  40251b:	e9 60 fd ff ff       	jmpq   402280 <_init+0x28>

0000000000402520 <pipe@plt>:
  402520:	ff 25 3a 1c 21 00    	jmpq   *0x211c3a(%rip)        # 614160 <_GLOBAL_OFFSET_TABLE_+0x160>
  402526:	68 29 00 00 00       	pushq  $0x29
  40252b:	e9 50 fd ff ff       	jmpq   402280 <_init+0x28>

0000000000402530 <getnameinfo@plt>:
  402530:	ff 25 32 1c 21 00    	jmpq   *0x211c32(%rip)        # 614168 <_GLOBAL_OFFSET_TABLE_+0x168>
  402536:	68 2a 00 00 00       	pushq  $0x2a
  40253b:	e9 40 fd ff ff       	jmpq   402280 <_init+0x28>

0000000000402540 <setsid@plt>:
  402540:	ff 25 2a 1c 21 00    	jmpq   *0x211c2a(%rip)        # 614170 <_GLOBAL_OFFSET_TABLE_+0x170>
  402546:	68 2b 00 00 00       	pushq  $0x2b
  40254b:	e9 30 fd ff ff       	jmpq   402280 <_init+0x28>

0000000000402550 <strspn@plt>:
  402550:	ff 25 22 1c 21 00    	jmpq   *0x211c22(%rip)        # 614178 <_GLOBAL_OFFSET_TABLE_+0x178>
  402556:	68 2c 00 00 00       	pushq  $0x2c
  40255b:	e9 20 fd ff ff       	jmpq   402280 <_init+0x28>

0000000000402560 <closedir@plt>:
  402560:	ff 25 1a 1c 21 00    	jmpq   *0x211c1a(%rip)        # 614180 <_GLOBAL_OFFSET_TABLE_+0x180>
  402566:	68 2d 00 00 00       	pushq  $0x2d
  40256b:	e9 10 fd ff ff       	jmpq   402280 <_init+0x28>

0000000000402570 <strcspn@plt>:
  402570:	ff 25 12 1c 21 00    	jmpq   *0x211c12(%rip)        # 614188 <_GLOBAL_OFFSET_TABLE_+0x188>
  402576:	68 2e 00 00 00       	pushq  $0x2e
  40257b:	e9 00 fd ff ff       	jmpq   402280 <_init+0x28>

0000000000402580 <read@plt>:
  402580:	ff 25 0a 1c 21 00    	jmpq   *0x211c0a(%rip)        # 614190 <_GLOBAL_OFFSET_TABLE_+0x190>
  402586:	68 2f 00 00 00       	pushq  $0x2f
  40258b:	e9 f0 fc ff ff       	jmpq   402280 <_init+0x28>

0000000000402590 <__libc_start_main@plt>:
  402590:	ff 25 02 1c 21 00    	jmpq   *0x211c02(%rip)        # 614198 <_GLOBAL_OFFSET_TABLE_+0x198>
  402596:	68 30 00 00 00       	pushq  $0x30
  40259b:	e9 e0 fc ff ff       	jmpq   402280 <_init+0x28>

00000000004025a0 <fgets@plt>:
  4025a0:	ff 25 fa 1b 21 00    	jmpq   *0x211bfa(%rip)        # 6141a0 <_GLOBAL_OFFSET_TABLE_+0x1a0>
  4025a6:	68 31 00 00 00       	pushq  $0x31
  4025ab:	e9 d0 fc ff ff       	jmpq   402280 <_init+0x28>

00000000004025b0 <execve@plt>:
  4025b0:	ff 25 f2 1b 21 00    	jmpq   *0x211bf2(%rip)        # 6141a8 <_GLOBAL_OFFSET_TABLE_+0x1a8>
  4025b6:	68 32 00 00 00       	pushq  $0x32
  4025bb:	e9 c0 fc ff ff       	jmpq   402280 <_init+0x28>

00000000004025c0 <atoll@plt>:
  4025c0:	ff 25 ea 1b 21 00    	jmpq   *0x211bea(%rip)        # 6141b0 <_GLOBAL_OFFSET_TABLE_+0x1b0>
  4025c6:	68 33 00 00 00       	pushq  $0x33
  4025cb:	e9 b0 fc ff ff       	jmpq   402280 <_init+0x28>

00000000004025d0 <strcmp@plt>:
  4025d0:	ff 25 e2 1b 21 00    	jmpq   *0x211be2(%rip)        # 6141b8 <_GLOBAL_OFFSET_TABLE_+0x1b8>
  4025d6:	68 34 00 00 00       	pushq  $0x34
  4025db:	e9 a0 fc ff ff       	jmpq   402280 <_init+0x28>

00000000004025e0 <getpwnam@plt>:
  4025e0:	ff 25 da 1b 21 00    	jmpq   *0x211bda(%rip)        # 6141c0 <_GLOBAL_OFFSET_TABLE_+0x1c0>
  4025e6:	68 35 00 00 00       	pushq  $0x35
  4025eb:	e9 90 fc ff ff       	jmpq   402280 <_init+0x28>

00000000004025f0 <fprintf@plt>:
  4025f0:	ff 25 d2 1b 21 00    	jmpq   *0x211bd2(%rip)        # 6141c8 <_GLOBAL_OFFSET_TABLE_+0x1c8>
  4025f6:	68 36 00 00 00       	pushq  $0x36
  4025fb:	e9 80 fc ff ff       	jmpq   402280 <_init+0x28>

0000000000402600 <__gmon_start__@plt>:
  402600:	ff 25 ca 1b 21 00    	jmpq   *0x211bca(%rip)        # 6141d0 <_GLOBAL_OFFSET_TABLE_+0x1d0>
  402606:	68 37 00 00 00       	pushq  $0x37
  40260b:	e9 70 fc ff ff       	jmpq   402280 <_init+0x28>

0000000000402610 <memcpy@plt>:
  402610:	ff 25 c2 1b 21 00    	jmpq   *0x211bc2(%rip)        # 6141d8 <_GLOBAL_OFFSET_TABLE_+0x1d8>
  402616:	68 38 00 00 00       	pushq  $0x38
  40261b:	e9 60 fc ff ff       	jmpq   402280 <_init+0x28>

0000000000402620 <tzset@plt>:
  402620:	ff 25 ba 1b 21 00    	jmpq   *0x211bba(%rip)        # 6141e0 <_GLOBAL_OFFSET_TABLE_+0x1e0>
  402626:	68 39 00 00 00       	pushq  $0x39
  40262b:	e9 50 fc ff ff       	jmpq   402280 <_init+0x28>

0000000000402630 <kill@plt>:
  402630:	ff 25 b2 1b 21 00    	jmpq   *0x211bb2(%rip)        # 6141e8 <_GLOBAL_OFFSET_TABLE_+0x1e8>
  402636:	68 3a 00 00 00       	pushq  $0x3a
  40263b:	e9 40 fc ff ff       	jmpq   402280 <_init+0x28>

0000000000402640 <time@plt>:
  402640:	ff 25 aa 1b 21 00    	jmpq   *0x211baa(%rip)        # 6141f0 <_GLOBAL_OFFSET_TABLE_+0x1f0>
  402646:	68 3b 00 00 00       	pushq  $0x3b
  40264b:	e9 30 fc ff ff       	jmpq   402280 <_init+0x28>

0000000000402650 <fileno@plt>:
  402650:	ff 25 a2 1b 21 00    	jmpq   *0x211ba2(%rip)        # 6141f8 <_GLOBAL_OFFSET_TABLE_+0x1f8>
  402656:	68 3c 00 00 00       	pushq  $0x3c
  40265b:	e9 20 fc ff ff       	jmpq   402280 <_init+0x28>

0000000000402660 <inet_aton@plt>:
  402660:	ff 25 9a 1b 21 00    	jmpq   *0x211b9a(%rip)        # 614200 <_GLOBAL_OFFSET_TABLE_+0x200>
  402666:	68 3d 00 00 00       	pushq  $0x3d
  40266b:	e9 10 fc ff ff       	jmpq   402280 <_init+0x28>

0000000000402670 <__xstat@plt>:
  402670:	ff 25 92 1b 21 00    	jmpq   *0x211b92(%rip)        # 614208 <_GLOBAL_OFFSET_TABLE_+0x208>
  402676:	68 3e 00 00 00       	pushq  $0x3e
  40267b:	e9 00 fc ff ff       	jmpq   402280 <_init+0x28>

0000000000402680 <readdir@plt>:
  402680:	ff 25 8a 1b 21 00    	jmpq   *0x211b8a(%rip)        # 614210 <_GLOBAL_OFFSET_TABLE_+0x210>
  402686:	68 3f 00 00 00       	pushq  $0x3f
  40268b:	e9 f0 fb ff ff       	jmpq   402280 <_init+0x28>

0000000000402690 <tolower@plt>:
  402690:	ff 25 82 1b 21 00    	jmpq   *0x211b82(%rip)        # 614218 <_GLOBAL_OFFSET_TABLE_+0x218>
  402696:	68 40 00 00 00       	pushq  $0x40
  40269b:	e9 e0 fb ff ff       	jmpq   402280 <_init+0x28>

00000000004026a0 <malloc@plt>:
  4026a0:	ff 25 7a 1b 21 00    	jmpq   *0x211b7a(%rip)        # 614220 <_GLOBAL_OFFSET_TABLE_+0x220>
  4026a6:	68 41 00 00 00       	pushq  $0x41
  4026ab:	e9 d0 fb ff ff       	jmpq   402280 <_init+0x28>

00000000004026b0 <strncasecmp@plt>:
  4026b0:	ff 25 72 1b 21 00    	jmpq   *0x211b72(%rip)        # 614228 <_GLOBAL_OFFSET_TABLE_+0x228>
  4026b6:	68 42 00 00 00       	pushq  $0x42
  4026bb:	e9 c0 fb ff ff       	jmpq   402280 <_init+0x28>

00000000004026c0 <fflush@plt>:
  4026c0:	ff 25 6a 1b 21 00    	jmpq   *0x211b6a(%rip)        # 614230 <_GLOBAL_OFFSET_TABLE_+0x230>
  4026c6:	68 43 00 00 00       	pushq  $0x43
  4026cb:	e9 b0 fb ff ff       	jmpq   402280 <_init+0x28>

00000000004026d0 <nice@plt>:
  4026d0:	ff 25 62 1b 21 00    	jmpq   *0x211b62(%rip)        # 614238 <_GLOBAL_OFFSET_TABLE_+0x238>
  4026d6:	68 44 00 00 00       	pushq  $0x44
  4026db:	e9 a0 fb ff ff       	jmpq   402280 <_init+0x28>

00000000004026e0 <__isoc99_sscanf@plt>:
  4026e0:	ff 25 5a 1b 21 00    	jmpq   *0x211b5a(%rip)        # 614240 <_GLOBAL_OFFSET_TABLE_+0x240>
  4026e6:	68 45 00 00 00       	pushq  $0x45
  4026eb:	e9 90 fb ff ff       	jmpq   402280 <_init+0x28>

00000000004026f0 <syslog@plt>:
  4026f0:	ff 25 52 1b 21 00    	jmpq   *0x211b52(%rip)        # 614248 <_GLOBAL_OFFSET_TABLE_+0x248>
  4026f6:	68 46 00 00 00       	pushq  $0x46
  4026fb:	e9 80 fb ff ff       	jmpq   402280 <_init+0x28>

0000000000402700 <listen@plt>:
  402700:	ff 25 4a 1b 21 00    	jmpq   *0x211b4a(%rip)        # 614250 <_GLOBAL_OFFSET_TABLE_+0x250>
  402706:	68 47 00 00 00       	pushq  $0x47
  40270b:	e9 70 fb ff ff       	jmpq   402280 <_init+0x28>

0000000000402710 <clock_gettime@plt>:
  402710:	ff 25 42 1b 21 00    	jmpq   *0x211b42(%rip)        # 614258 <_GLOBAL_OFFSET_TABLE_+0x258>
  402716:	68 48 00 00 00       	pushq  $0x48
  40271b:	e9 60 fb ff ff       	jmpq   402280 <_init+0x28>

0000000000402720 <daemon@plt>:
  402720:	ff 25 3a 1b 21 00    	jmpq   *0x211b3a(%rip)        # 614260 <_GLOBAL_OFFSET_TABLE_+0x260>
  402726:	68 49 00 00 00       	pushq  $0x49
  40272b:	e9 50 fb ff ff       	jmpq   402280 <_init+0x28>

0000000000402730 <strpbrk@plt>:
  402730:	ff 25 32 1b 21 00    	jmpq   *0x211b32(%rip)        # 614268 <_GLOBAL_OFFSET_TABLE_+0x268>
  402736:	68 4a 00 00 00       	pushq  $0x4a
  40273b:	e9 40 fb ff ff       	jmpq   402280 <_init+0x28>

0000000000402740 <setrlimit@plt>:
  402740:	ff 25 2a 1b 21 00    	jmpq   *0x211b2a(%rip)        # 614270 <_GLOBAL_OFFSET_TABLE_+0x270>
  402746:	68 4b 00 00 00       	pushq  $0x4b
  40274b:	e9 30 fb ff ff       	jmpq   402280 <_init+0x28>

0000000000402750 <realloc@plt>:
  402750:	ff 25 22 1b 21 00    	jmpq   *0x211b22(%rip)        # 614278 <_GLOBAL_OFFSET_TABLE_+0x278>
  402756:	68 4c 00 00 00       	pushq  $0x4c
  40275b:	e9 20 fb ff ff       	jmpq   402280 <_init+0x28>

0000000000402760 <fdopen@plt>:
  402760:	ff 25 1a 1b 21 00    	jmpq   *0x211b1a(%rip)        # 614280 <_GLOBAL_OFFSET_TABLE_+0x280>
  402766:	68 4d 00 00 00       	pushq  $0x4d
  40276b:	e9 10 fb ff ff       	jmpq   402280 <_init+0x28>

0000000000402770 <munmap@plt>:
  402770:	ff 25 12 1b 21 00    	jmpq   *0x211b12(%rip)        # 614288 <_GLOBAL_OFFSET_TABLE_+0x288>
  402776:	68 4e 00 00 00       	pushq  $0x4e
  40277b:	e9 00 fb ff ff       	jmpq   402280 <_init+0x28>

0000000000402780 <poll@plt>:
  402780:	ff 25 0a 1b 21 00    	jmpq   *0x211b0a(%rip)        # 614290 <_GLOBAL_OFFSET_TABLE_+0x290>
  402786:	68 4f 00 00 00       	pushq  $0x4f
  40278b:	e9 f0 fa ff ff       	jmpq   402280 <_init+0x28>

0000000000402790 <chmod@plt>:
  402790:	ff 25 02 1b 21 00    	jmpq   *0x211b02(%rip)        # 614298 <_GLOBAL_OFFSET_TABLE_+0x298>
  402796:	68 50 00 00 00       	pushq  $0x50
  40279b:	e9 e0 fa ff ff       	jmpq   402280 <_init+0x28>

00000000004027a0 <bind@plt>:
  4027a0:	ff 25 fa 1a 21 00    	jmpq   *0x211afa(%rip)        # 6142a0 <_GLOBAL_OFFSET_TABLE_+0x2a0>
  4027a6:	68 51 00 00 00       	pushq  $0x51
  4027ab:	e9 d0 fa ff ff       	jmpq   402280 <_init+0x28>

00000000004027b0 <sigset@plt>:
  4027b0:	ff 25 f2 1a 21 00    	jmpq   *0x211af2(%rip)        # 6142a8 <_GLOBAL_OFFSET_TABLE_+0x2a8>
  4027b6:	68 52 00 00 00       	pushq  $0x52
  4027bb:	e9 c0 fa ff ff       	jmpq   402280 <_init+0x28>

00000000004027c0 <strftime@plt>:
  4027c0:	ff 25 ea 1a 21 00    	jmpq   *0x211aea(%rip)        # 6142b0 <_GLOBAL_OFFSET_TABLE_+0x2b0>
  4027c6:	68 53 00 00 00       	pushq  $0x53
  4027cb:	e9 b0 fa ff ff       	jmpq   402280 <_init+0x28>

00000000004027d0 <memmove@plt>:
  4027d0:	ff 25 e2 1a 21 00    	jmpq   *0x211ae2(%rip)        # 6142b8 <_GLOBAL_OFFSET_TABLE_+0x2b8>
  4027d6:	68 54 00 00 00       	pushq  $0x54
  4027db:	e9 a0 fa ff ff       	jmpq   402280 <_init+0x28>

00000000004027e0 <setgid@plt>:
  4027e0:	ff 25 da 1a 21 00    	jmpq   *0x211ada(%rip)        # 6142c0 <_GLOBAL_OFFSET_TABLE_+0x2c0>
  4027e6:	68 55 00 00 00       	pushq  $0x55
  4027eb:	e9 90 fa ff ff       	jmpq   402280 <_init+0x28>

00000000004027f0 <waitpid@plt>:
  4027f0:	ff 25 d2 1a 21 00    	jmpq   *0x211ad2(%rip)        # 6142c8 <_GLOBAL_OFFSET_TABLE_+0x2c8>
  4027f6:	68 56 00 00 00       	pushq  $0x56
  4027fb:	e9 80 fa ff ff       	jmpq   402280 <_init+0x28>

0000000000402800 <atol@plt>:
  402800:	ff 25 ca 1a 21 00    	jmpq   *0x211aca(%rip)        # 6142d0 <_GLOBAL_OFFSET_TABLE_+0x2d0>
  402806:	68 57 00 00 00       	pushq  $0x57
  40280b:	e9 70 fa ff ff       	jmpq   402280 <_init+0x28>

0000000000402810 <open@plt>:
  402810:	ff 25 c2 1a 21 00    	jmpq   *0x211ac2(%rip)        # 6142d8 <_GLOBAL_OFFSET_TABLE_+0x2d8>
  402816:	68 58 00 00 00       	pushq  $0x58
  40281b:	e9 60 fa ff ff       	jmpq   402280 <_init+0x28>

0000000000402820 <fchown@plt>:
  402820:	ff 25 ba 1a 21 00    	jmpq   *0x211aba(%rip)        # 6142e0 <_GLOBAL_OFFSET_TABLE_+0x2e0>
  402826:	68 59 00 00 00       	pushq  $0x59
  40282b:	e9 50 fa ff ff       	jmpq   402280 <_init+0x28>

0000000000402830 <fopen@plt>:
  402830:	ff 25 b2 1a 21 00    	jmpq   *0x211ab2(%rip)        # 6142e8 <_GLOBAL_OFFSET_TABLE_+0x2e8>
  402836:	68 5a 00 00 00       	pushq  $0x5a
  40283b:	e9 40 fa ff ff       	jmpq   402280 <_init+0x28>

0000000000402840 <perror@plt>:
  402840:	ff 25 aa 1a 21 00    	jmpq   *0x211aaa(%rip)        # 6142f0 <_GLOBAL_OFFSET_TABLE_+0x2f0>
  402846:	68 5b 00 00 00       	pushq  $0x5b
  40284b:	e9 30 fa ff ff       	jmpq   402280 <_init+0x28>

0000000000402850 <gmtime@plt>:
  402850:	ff 25 a2 1a 21 00    	jmpq   *0x211aa2(%rip)        # 6142f8 <_GLOBAL_OFFSET_TABLE_+0x2f8>
  402856:	68 5c 00 00 00       	pushq  $0x5c
  40285b:	e9 20 fa ff ff       	jmpq   402280 <_init+0x28>

0000000000402860 <accept@plt>:
  402860:	ff 25 9a 1a 21 00    	jmpq   *0x211a9a(%rip)        # 614300 <_GLOBAL_OFFSET_TABLE_+0x300>
  402866:	68 5d 00 00 00       	pushq  $0x5d
  40286b:	e9 10 fa ff ff       	jmpq   402280 <_init+0x28>

0000000000402870 <getsockname@plt>:
  402870:	ff 25 92 1a 21 00    	jmpq   *0x211a92(%rip)        # 614308 <_GLOBAL_OFFSET_TABLE_+0x308>
  402876:	68 5e 00 00 00       	pushq  $0x5e
  40287b:	e9 00 fa ff ff       	jmpq   402280 <_init+0x28>

0000000000402880 <atoi@plt>:
  402880:	ff 25 8a 1a 21 00    	jmpq   *0x211a8a(%rip)        # 614310 <_GLOBAL_OFFSET_TABLE_+0x310>
  402886:	68 5f 00 00 00       	pushq  $0x5f
  40288b:	e9 f0 f9 ff ff       	jmpq   402280 <_init+0x28>

0000000000402890 <strcat@plt>:
  402890:	ff 25 82 1a 21 00    	jmpq   *0x211a82(%rip)        # 614318 <_GLOBAL_OFFSET_TABLE_+0x318>
  402896:	68 60 00 00 00       	pushq  $0x60
  40289b:	e9 e0 f9 ff ff       	jmpq   402280 <_init+0x28>

00000000004028a0 <openlog@plt>:
  4028a0:	ff 25 7a 1a 21 00    	jmpq   *0x211a7a(%rip)        # 614320 <_GLOBAL_OFFSET_TABLE_+0x320>
  4028a6:	68 61 00 00 00       	pushq  $0x61
  4028ab:	e9 d0 f9 ff ff       	jmpq   402280 <_init+0x28>

00000000004028b0 <gethostname@plt>:
  4028b0:	ff 25 72 1a 21 00    	jmpq   *0x211a72(%rip)        # 614328 <_GLOBAL_OFFSET_TABLE_+0x328>
  4028b6:	68 62 00 00 00       	pushq  $0x62
  4028bb:	e9 c0 f9 ff ff       	jmpq   402280 <_init+0x28>

00000000004028c0 <sprintf@plt>:
  4028c0:	ff 25 6a 1a 21 00    	jmpq   *0x211a6a(%rip)        # 614330 <_GLOBAL_OFFSET_TABLE_+0x330>
  4028c6:	68 63 00 00 00       	pushq  $0x63
  4028cb:	e9 b0 f9 ff ff       	jmpq   402280 <_init+0x28>

00000000004028d0 <exit@plt>:
  4028d0:	ff 25 62 1a 21 00    	jmpq   *0x211a62(%rip)        # 614338 <_GLOBAL_OFFSET_TABLE_+0x338>
  4028d6:	68 64 00 00 00       	pushq  $0x64
  4028db:	e9 a0 f9 ff ff       	jmpq   402280 <_init+0x28>

00000000004028e0 <fwrite@plt>:
  4028e0:	ff 25 5a 1a 21 00    	jmpq   *0x211a5a(%rip)        # 614340 <_GLOBAL_OFFSET_TABLE_+0x340>
  4028e6:	68 65 00 00 00       	pushq  $0x65
  4028eb:	e9 90 f9 ff ff       	jmpq   402280 <_init+0x28>

00000000004028f0 <getrlimit@plt>:
  4028f0:	ff 25 52 1a 21 00    	jmpq   *0x211a52(%rip)        # 614348 <_GLOBAL_OFFSET_TABLE_+0x348>
  4028f6:	68 66 00 00 00       	pushq  $0x66
  4028fb:	e9 80 f9 ff ff       	jmpq   402280 <_init+0x28>

0000000000402900 <setuid@plt>:
  402900:	ff 25 4a 1a 21 00    	jmpq   *0x211a4a(%rip)        # 614350 <_GLOBAL_OFFSET_TABLE_+0x350>
  402906:	68 67 00 00 00       	pushq  $0x67
  40290b:	e9 70 f9 ff ff       	jmpq   402280 <_init+0x28>

0000000000402910 <getaddrinfo@plt>:
  402910:	ff 25 42 1a 21 00    	jmpq   *0x211a42(%rip)        # 614358 <_GLOBAL_OFFSET_TABLE_+0x358>
  402916:	68 68 00 00 00       	pushq  $0x68
  40291b:	e9 60 f9 ff ff       	jmpq   402280 <_init+0x28>

0000000000402920 <strdup@plt>:
  402920:	ff 25 3a 1a 21 00    	jmpq   *0x211a3a(%rip)        # 614360 <_GLOBAL_OFFSET_TABLE_+0x360>
  402926:	68 69 00 00 00       	pushq  $0x69
  40292b:	e9 50 f9 ff ff       	jmpq   402280 <_init+0x28>

0000000000402930 <initgroups@plt>:
  402930:	ff 25 32 1a 21 00    	jmpq   *0x211a32(%rip)        # 614368 <_GLOBAL_OFFSET_TABLE_+0x368>
  402936:	68 6a 00 00 00       	pushq  $0x6a
  40293b:	e9 40 f9 ff ff       	jmpq   402280 <_init+0x28>

0000000000402940 <sleep@plt>:
  402940:	ff 25 2a 1a 21 00    	jmpq   *0x211a2a(%rip)        # 614370 <_GLOBAL_OFFSET_TABLE_+0x370>
  402946:	68 6b 00 00 00       	pushq  $0x6b
  40294b:	e9 30 f9 ff ff       	jmpq   402280 <_init+0x28>

0000000000402950 <fork@plt>:
  402950:	ff 25 22 1a 21 00    	jmpq   *0x211a22(%rip)        # 614378 <_GLOBAL_OFFSET_TABLE_+0x378>
  402956:	68 6c 00 00 00       	pushq  $0x6c
  40295b:	e9 20 f9 ff ff       	jmpq   402280 <_init+0x28>

0000000000402960 <strstr@plt>:
  402960:	ff 25 1a 1a 21 00    	jmpq   *0x211a1a(%rip)        # 614380 <_GLOBAL_OFFSET_TABLE_+0x380>
  402966:	68 6d 00 00 00       	pushq  $0x6d
  40296b:	e9 10 f9 ff ff       	jmpq   402280 <_init+0x28>

0000000000402970 <getdtablesize@plt>:
  402970:	ff 25 12 1a 21 00    	jmpq   *0x211a12(%rip)        # 614388 <_GLOBAL_OFFSET_TABLE_+0x388>
  402976:	68 6e 00 00 00       	pushq  $0x6e
  40297b:	e9 00 f9 ff ff       	jmpq   402280 <_init+0x28>

0000000000402980 <__ctype_tolower_loc@plt>:
  402980:	ff 25 0a 1a 21 00    	jmpq   *0x211a0a(%rip)        # 614390 <_GLOBAL_OFFSET_TABLE_+0x390>
  402986:	68 6f 00 00 00       	pushq  $0x6f
  40298b:	e9 f0 f8 ff ff       	jmpq   402280 <_init+0x28>

0000000000402990 <__ctype_b_loc@plt>:
  402990:	ff 25 02 1a 21 00    	jmpq   *0x211a02(%rip)        # 614398 <_GLOBAL_OFFSET_TABLE_+0x398>
  402996:	68 70 00 00 00       	pushq  $0x70
  40299b:	e9 e0 f8 ff ff       	jmpq   402280 <_init+0x28>

00000000004029a0 <freeaddrinfo@plt>:
  4029a0:	ff 25 fa 19 21 00    	jmpq   *0x2119fa(%rip)        # 6143a0 <_GLOBAL_OFFSET_TABLE_+0x3a0>
  4029a6:	68 71 00 00 00       	pushq  $0x71
  4029ab:	e9 d0 f8 ff ff       	jmpq   402280 <_init+0x28>

00000000004029b0 <socket@plt>:
  4029b0:	ff 25 f2 19 21 00    	jmpq   *0x2119f2(%rip)        # 6143a8 <_GLOBAL_OFFSET_TABLE_+0x3a8>
  4029b6:	68 72 00 00 00       	pushq  $0x72
  4029bb:	e9 c0 f8 ff ff       	jmpq   402280 <_init+0x28>

Disassembly of section .text:

00000000004029c0 <usage>:
  4029c0:	48 83 ec 08          	sub    $0x8,%rsp
  4029c4:	48 8b 3d 45 35 21 00 	mov    0x213545(%rip),%rdi        # 615f10 <stderr@@GLIBC_2.2.5>
  4029cb:	48 8b 15 26 36 21 00 	mov    0x213626(%rip),%rdx        # 615ff8 <argv0>
  4029d2:	be b0 e5 40 00       	mov    $0x40e5b0,%esi
  4029d7:	31 c0                	xor    %eax,%eax
  4029d9:	e8 12 fc ff ff       	callq  4025f0 <fprintf@plt>
  4029de:	bf 01 00 00 00       	mov    $0x1,%edi
  4029e3:	e8 e8 fe ff ff       	callq  4028d0 <exit@plt>

00000000004029e8 <make_argp.isra.2>:
  4029e8:	41 55                	push   %r13
  4029ea:	41 54                	push   %r12
  4029ec:	31 c0                	xor    %eax,%eax
  4029ee:	55                   	push   %rbp
  4029ef:	53                   	push   %rbx
  4029f0:	48 83 c9 ff          	or     $0xffffffffffffffff,%rcx
  4029f4:	48 89 fd             	mov    %rdi,%rbp
  4029f7:	48 89 f7             	mov    %rsi,%rdi
  4029fa:	48 89 f3             	mov    %rsi,%rbx
  4029fd:	48 83 ec 08          	sub    $0x8,%rsp
  402a01:	f2 ae                	repnz scas %es:(%rdi),%al
  402a03:	48 f7 d9             	neg    %rcx
  402a06:	48 8d 3c cd 00 00 00 	lea    0x0(,%rcx,8),%rdi
  402a0d:	00 
  402a0e:	e8 8d fc ff ff       	callq  4026a0 <malloc@plt>
  402a13:	48 85 c0             	test   %rax,%rax
  402a16:	49 89 c4             	mov    %rax,%r12
  402a19:	0f 84 88 00 00 00    	je     402aa7 <make_argp.isra.2+0xbf>
  402a1f:	48 89 ef             	mov    %rbp,%rdi
  402a22:	be 2f 00 00 00       	mov    $0x2f,%esi
  402a27:	e8 84 fa ff ff       	callq  4024b0 <strrchr@plt>
  402a2c:	48 8d 50 01          	lea    0x1(%rax),%rdx
  402a30:	48 85 c0             	test   %rax,%rax
  402a33:	be 3d 00 00 00       	mov    $0x3d,%esi
  402a38:	48 89 df             	mov    %rbx,%rdi
  402a3b:	48 0f 45 ea          	cmovne %rdx,%rbp
  402a3f:	49 89 2c 24          	mov    %rbp,(%r12)
  402a43:	bd 01 00 00 00       	mov    $0x1,%ebp
  402a48:	e8 33 fa ff ff       	callq  402480 <strchr@plt>
  402a4d:	48 85 c0             	test   %rax,%rax
  402a50:	75 4a                	jne    402a9c <make_argp.isra.2+0xb4>
  402a52:	48 89 d8             	mov    %rbx,%rax
  402a55:	8a 10                	mov    (%rax),%dl
  402a57:	84 d2                	test   %dl,%dl
  402a59:	74 28                	je     402a83 <make_argp.isra.2+0x9b>
  402a5b:	80 fa 2b             	cmp    $0x2b,%dl
  402a5e:	4c 8d 68 01          	lea    0x1(%rax),%r13
  402a62:	75 1a                	jne    402a7e <make_argp.isra.2+0x96>
  402a64:	c6 00 00             	movb   $0x0,(%rax)
  402a67:	48 89 de             	mov    %rbx,%rsi
  402a6a:	48 89 df             	mov    %rbx,%rdi
  402a6d:	e8 5e 47 00 00       	callq  4071d0 <strdecode>
  402a72:	48 63 c5             	movslq %ebp,%rax
  402a75:	ff c5                	inc    %ebp
  402a77:	49 89 1c c4          	mov    %rbx,(%r12,%rax,8)
  402a7b:	4c 89 eb             	mov    %r13,%rbx
  402a7e:	4c 89 e8             	mov    %r13,%rax
  402a81:	eb d2                	jmp    402a55 <make_argp.isra.2+0x6d>
  402a83:	48 39 d8             	cmp    %rbx,%rax
  402a86:	74 14                	je     402a9c <make_argp.isra.2+0xb4>
  402a88:	48 89 de             	mov    %rbx,%rsi
  402a8b:	48 89 df             	mov    %rbx,%rdi
  402a8e:	e8 3d 47 00 00       	callq  4071d0 <strdecode>
  402a93:	48 63 c5             	movslq %ebp,%rax
  402a96:	ff c5                	inc    %ebp
  402a98:	49 89 1c c4          	mov    %rbx,(%r12,%rax,8)
  402a9c:	48 63 ed             	movslq %ebp,%rbp
  402a9f:	49 c7 04 ec 00 00 00 	movq   $0x0,(%r12,%rbp,8)
  402aa6:	00 
  402aa7:	5a                   	pop    %rdx
  402aa8:	4c 89 e0             	mov    %r12,%rax
  402aab:	5b                   	pop    %rbx
  402aac:	5d                   	pop    %rbp
  402aad:	41 5c                	pop    %r12
  402aaf:	41 5d                	pop    %r13
  402ab1:	c3                   	retq   

0000000000402ab2 <post_post_garbage_hack.isra.3>:
  402ab2:	53                   	push   %rbx
  402ab3:	48 89 fb             	mov    %rdi,%rbx
  402ab6:	48 83 ec 10          	sub    $0x10,%rsp
  402aba:	83 3d 4b 3a 21 00 00 	cmpl   $0x0,0x213a4b(%rip)        # 61650c <sub_process>
  402ac1:	74 07                	je     402aca <post_post_garbage_hack.isra.3+0x18>
  402ac3:	8b 3f                	mov    (%rdi),%edi
  402ac5:	e8 d6 4f 00 00       	callq  407aa0 <httpd_set_ndelay>
  402aca:	8b 3b                	mov    (%rbx),%edi
  402acc:	48 89 e6             	mov    %rsp,%rsi
  402acf:	ba 02 00 00 00       	mov    $0x2,%edx
  402ad4:	e8 a7 fa ff ff       	callq  402580 <read@plt>
  402ad9:	48 83 c4 10          	add    $0x10,%rsp
  402add:	5b                   	pop    %rbx
  402ade:	c3                   	retq   

0000000000402adf <build_env>:
  402adf:	55                   	push   %rbp
  402ae0:	53                   	push   %rbx
  402ae1:	48 89 f5             	mov    %rsi,%rbp
  402ae4:	48 83 ce ff          	or     $0xffffffffffffffff,%rsi
  402ae8:	31 c0                	xor    %eax,%eax
  402aea:	48 89 fb             	mov    %rdi,%rbx
  402aed:	48 83 ec 08          	sub    $0x8,%rsp
  402af1:	48 89 f1             	mov    %rsi,%rcx
  402af4:	f2 ae                	repnz scas %es:(%rdi),%al
  402af6:	48 89 ef             	mov    %rbp,%rdi
  402af9:	48 89 ca             	mov    %rcx,%rdx
  402afc:	48 89 f1             	mov    %rsi,%rcx
  402aff:	f2 ae                	repnz scas %es:(%rdi),%al
  402b01:	48 f7 d2             	not    %rdx
  402b04:	48 89 c8             	mov    %rcx,%rax
  402b07:	48 f7 d0             	not    %rax
  402b0a:	48 8d 54 02 fe       	lea    -0x2(%rdx,%rax,1),%rdx
  402b0f:	48 3b 15 1a 36 21 00 	cmp    0x21361a(%rip),%rdx        # 616130 <maxbuf.5965>
  402b16:	76 0f                	jbe    402b27 <build_env+0x48>
  402b18:	be 30 61 61 00       	mov    $0x616130,%esi
  402b1d:	bf 28 61 61 00       	mov    $0x616128,%edi
  402b22:	e8 f9 4f 00 00       	callq  407b20 <httpd_realloc_str>
  402b27:	48 8b 35 02 36 21 00 	mov    0x213602(%rip),%rsi        # 616130 <maxbuf.5965>
  402b2e:	48 8b 3d f3 35 21 00 	mov    0x2135f3(%rip),%rdi        # 616128 <buf.5964>
  402b35:	48 89 e9             	mov    %rbp,%rcx
  402b38:	48 89 da             	mov    %rbx,%rdx
  402b3b:	31 c0                	xor    %eax,%eax
  402b3d:	e8 fe 45 00 00       	callq  407140 <my_snprintf>
  402b42:	48 8b 3d df 35 21 00 	mov    0x2135df(%rip),%rdi        # 616128 <buf.5964>
  402b49:	e8 d2 fd ff ff       	callq  402920 <strdup@plt>
  402b4e:	48 85 c0             	test   %rax,%rax
  402b51:	75 19                	jne    402b6c <build_env+0x8d>
  402b53:	bf 03 00 00 00       	mov    $0x3,%edi
  402b58:	be 30 04 41 00       	mov    $0x410430,%esi
  402b5d:	e8 8e fb ff ff       	callq  4026f0 <syslog@plt>
  402b62:	bf 01 00 00 00       	mov    $0x1,%edi
  402b67:	e8 64 fd ff ff       	callq  4028d0 <exit@plt>
  402b6c:	5a                   	pop    %rdx
  402b6d:	5b                   	pop    %rbx
  402b6e:	5d                   	pop    %rbp
  402b6f:	c3                   	retq   

0000000000402b70 <make_envp>:
  402b70:	41 57                	push   %r15
  402b72:	41 56                	push   %r14
  402b74:	be c8 08 41 00       	mov    $0x4108c8,%esi
  402b79:	41 55                	push   %r13
  402b7b:	41 54                	push   %r12
  402b7d:	55                   	push   %rbp
  402b7e:	53                   	push   %rbx
  402b7f:	48 89 fd             	mov    %rdi,%rbp
  402b82:	bf 00 f4 40 00       	mov    $0x40f400,%edi
  402b87:	48 81 ec 18 01 00 00 	sub    $0x118,%rsp
  402b8e:	e8 4c ff ff ff       	callq  402adf <build_env>
  402b93:	be 49 ec 40 00       	mov    $0x40ec49,%esi
  402b98:	bf 08 f4 40 00       	mov    $0x40f408,%edi
  402b9d:	48 89 05 9c 35 21 00 	mov    %rax,0x21359c(%rip)        # 616140 <envp.5969>
  402ba4:	e8 36 ff ff ff       	callq  402adf <build_env>
  402ba9:	48 89 05 98 35 21 00 	mov    %rax,0x213598(%rip)        # 616148 <envp.5969+0x8>
  402bb0:	48 8b 45 08          	mov    0x8(%rbp),%rax
  402bb4:	83 78 64 00          	cmpl   $0x0,0x64(%rax)
  402bb8:	74 0c                	je     402bc6 <make_envp+0x56>
  402bba:	48 8b b5 00 02 00 00 	mov    0x200(%rbp),%rsi
  402bc1:	48 85 f6             	test   %rsi,%rsi
  402bc4:	75 0f                	jne    402bd5 <make_envp+0x65>
  402bc6:	48 8b 70 08          	mov    0x8(%rax),%rsi
  402bca:	41 bc 02 00 00 00    	mov    $0x2,%r12d
  402bd0:	48 85 f6             	test   %rsi,%rsi
  402bd3:	74 17                	je     402bec <make_envp+0x7c>
  402bd5:	bf 1b f4 40 00       	mov    $0x40f41b,%edi
  402bda:	41 bc 03 00 00 00    	mov    $0x3,%r12d
  402be0:	e8 fa fe ff ff       	callq  402adf <build_env>
  402be5:	48 89 05 64 35 21 00 	mov    %rax,0x213564(%rip)        # 616150 <envp.5969+0x10>
  402bec:	48 8b b5 e0 00 00 00 	mov    0xe0(%rbp),%rsi
  402bf3:	49 63 c4             	movslq %r12d,%rax
  402bf6:	bf 44 f4 40 00       	mov    $0x40f444,%edi
  402bfb:	48 c7 04 c5 40 61 61 	movq   $0x40f42a,0x616140(,%rax,8)
  402c02:	00 2a f4 40 00 
  402c07:	41 8d 5c 24 04       	lea    0x4(%r12),%ebx
  402c0c:	e8 ce fe ff ff       	callq  402adf <build_env>
  402c11:	41 8d 54 24 01       	lea    0x1(%r12),%edx
  402c16:	48 8d 7c 24 10       	lea    0x10(%rsp),%rdi
  402c1b:	be 00 01 00 00       	mov    $0x100,%esi
  402c20:	48 63 d2             	movslq %edx,%rdx
  402c23:	48 89 04 d5 40 61 61 	mov    %rax,0x616140(,%rdx,8)
  402c2a:	00 
  402c2b:	48 8b 45 08          	mov    0x8(%rbp),%rax
  402c2f:	ba 32 ed 40 00       	mov    $0x40ed32,%edx
  402c34:	0f b7 48 10          	movzwl 0x10(%rax),%ecx
  402c38:	31 c0                	xor    %eax,%eax
  402c3a:	e8 01 45 00 00       	callq  407140 <my_snprintf>
  402c3f:	48 8d 74 24 10       	lea    0x10(%rsp),%rsi
  402c44:	bf 57 f4 40 00       	mov    $0x40f457,%edi
  402c49:	e8 91 fe ff ff       	callq  402adf <build_env>
  402c4e:	8b bd b4 00 00 00    	mov    0xb4(%rbp),%edi
  402c54:	41 8d 54 24 02       	lea    0x2(%r12),%edx
  402c59:	48 63 d2             	movslq %edx,%rdx
  402c5c:	48 89 04 d5 40 61 61 	mov    %rax,0x616140(,%rdx,8)
  402c63:	00 
  402c64:	e8 d7 63 00 00       	callq  409040 <httpd_method_str>
  402c69:	bf 66 f4 40 00       	mov    $0x40f466,%edi
  402c6e:	48 89 c6             	mov    %rax,%rsi
  402c71:	e8 69 fe ff ff       	callq  402adf <build_env>
  402c76:	41 8d 54 24 03       	lea    0x3(%r12),%edx
  402c7b:	48 8b b5 00 01 00 00 	mov    0x100(%rbp),%rsi
  402c82:	48 63 d2             	movslq %edx,%rdx
  402c85:	48 89 04 d5 40 61 61 	mov    %rax,0x616140(,%rdx,8)
  402c8c:	00 
  402c8d:	80 3e 00             	cmpb   $0x0,(%rsi)
  402c90:	0f 84 a4 00 00 00    	je     402d3a <make_envp+0x1ca>
  402c96:	bf 78 f4 40 00       	mov    $0x40f478,%edi
  402c9b:	48 63 db             	movslq %ebx,%rbx
  402c9e:	45 8d 6c 24 05       	lea    0x5(%r12),%r13d
  402ca3:	e8 37 fe ff ff       	callq  402adf <build_env>
  402ca8:	48 89 04 dd 40 61 61 	mov    %rax,0x616140(,%rbx,8)
  402caf:	00 
  402cb0:	48 8b 45 08          	mov    0x8(%rbp),%rax
  402cb4:	48 83 ce ff          	or     $0xffffffffffffffff,%rsi
  402cb8:	48 89 f1             	mov    %rsi,%rcx
  402cbb:	4c 8b 85 00 01 00 00 	mov    0x100(%rbp),%r8
  402cc2:	44 89 eb             	mov    %r13d,%ebx
  402cc5:	4c 8b 78 40          	mov    0x40(%rax),%r15
  402cc9:	31 c0                	xor    %eax,%eax
  402ccb:	4c 89 ff             	mov    %r15,%rdi
  402cce:	f2 ae                	repnz scas %es:(%rdi),%al
  402cd0:	4c 89 c7             	mov    %r8,%rdi
  402cd3:	4c 89 44 24 08       	mov    %r8,0x8(%rsp)
  402cd8:	48 f7 d1             	not    %rcx
  402cdb:	48 89 ca             	mov    %rcx,%rdx
  402cde:	48 89 f1             	mov    %rsi,%rcx
  402ce1:	f2 ae                	repnz scas %es:(%rdi),%al
  402ce3:	48 89 c8             	mov    %rcx,%rax
  402ce6:	48 f7 d0             	not    %rax
  402ce9:	48 8d 74 02 ff       	lea    -0x1(%rdx,%rax,1),%rsi
  402cee:	48 89 f7             	mov    %rsi,%rdi
  402cf1:	48 89 34 24          	mov    %rsi,(%rsp)
  402cf5:	e8 a6 f9 ff ff       	callq  4026a0 <malloc@plt>
  402cfa:	48 85 c0             	test   %rax,%rax
  402cfd:	49 89 c6             	mov    %rax,%r14
  402d00:	74 38                	je     402d3a <make_envp+0x1ca>
  402d02:	4c 8b 44 24 08       	mov    0x8(%rsp),%r8
  402d07:	48 8b 34 24          	mov    (%rsp),%rsi
  402d0b:	48 89 c7             	mov    %rax,%rdi
  402d0e:	4c 89 f9             	mov    %r15,%rcx
  402d11:	ba 86 f4 40 00       	mov    $0x40f486,%edx
  402d16:	31 c0                	xor    %eax,%eax
  402d18:	4d 63 ed             	movslq %r13d,%r13
  402d1b:	41 8d 5c 24 06       	lea    0x6(%r12),%ebx
  402d20:	e8 1b 44 00 00       	callq  407140 <my_snprintf>
  402d25:	4c 89 f6             	mov    %r14,%rsi
  402d28:	bf 8b f4 40 00       	mov    $0x40f48b,%edi
  402d2d:	e8 ad fd ff ff       	callq  402adf <build_env>
  402d32:	4a 89 04 ed 40 61 61 	mov    %rax,0x616140(,%r13,8)
  402d39:	00 
  402d3a:	4c 8b ad e8 00 00 00 	mov    0xe8(%rbp),%r13
  402d41:	be 1b f0 40 00       	mov    $0x40f01b,%esi
  402d46:	44 8d 63 01          	lea    0x1(%rbx),%r12d
  402d4a:	4c 89 ef             	mov    %r13,%rdi
  402d4d:	e8 7e f8 ff ff       	callq  4025d0 <strcmp@plt>
  402d52:	85 c0                	test   %eax,%eax
  402d54:	b8 c9 f2 40 00       	mov    $0x40f2c9,%eax
  402d59:	bf 9e f4 40 00       	mov    $0x40f49e,%edi
  402d5e:	4c 0f 44 e8          	cmove  %rax,%r13
  402d62:	4c 89 ee             	mov    %r13,%rsi
  402d65:	e8 75 fd ff ff       	callq  402adf <build_env>
  402d6a:	48 8b b5 08 01 00 00 	mov    0x108(%rbp),%rsi
  402d71:	48 63 d3             	movslq %ebx,%rdx
  402d74:	48 89 04 d5 40 61 61 	mov    %rax,0x616140(,%rdx,8)
  402d7b:	00 
  402d7c:	80 3e 00             	cmpb   $0x0,(%rsi)
  402d7f:	74 1b                	je     402d9c <make_envp+0x22c>
  402d81:	4d 63 e4             	movslq %r12d,%r12
  402d84:	83 c3 02             	add    $0x2,%ebx
  402d87:	bf ae f4 40 00       	mov    $0x40f4ae,%edi
  402d8c:	e8 4e fd ff ff       	callq  402adf <build_env>
  402d91:	4a 89 04 e5 40 61 61 	mov    %rax,0x616140(,%r12,8)
  402d98:	00 
  402d99:	41 89 dc             	mov    %ebx,%r12d
  402d9c:	48 8d 7d 10          	lea    0x10(%rbp),%rdi
  402da0:	41 8d 5c 24 01       	lea    0x1(%r12),%ebx
  402da5:	e8 26 6b 00 00       	callq  4098d0 <httpd_ntoa>
  402daa:	bf be f4 40 00       	mov    $0x40f4be,%edi
  402daf:	48 89 c6             	mov    %rax,%rsi
  402db2:	e8 28 fd ff ff       	callq  402adf <build_env>
  402db7:	48 8b b5 10 01 00 00 	mov    0x110(%rbp),%rsi
  402dbe:	49 63 d4             	movslq %r12d,%rdx
  402dc1:	48 89 04 d5 40 61 61 	mov    %rax,0x616140(,%rdx,8)
  402dc8:	00 
  402dc9:	80 3e 00             	cmpb   $0x0,(%rsi)
  402dcc:	74 1c                	je     402dea <make_envp+0x27a>
  402dce:	48 63 db             	movslq %ebx,%rbx
  402dd1:	41 83 c4 02          	add    $0x2,%r12d
  402dd5:	bf cd f4 40 00       	mov    $0x40f4cd,%edi
  402dda:	e8 00 fd ff ff       	callq  402adf <build_env>
  402ddf:	48 89 04 dd 40 61 61 	mov    %rax,0x616140(,%rbx,8)
  402de6:	00 
  402de7:	44 89 e3             	mov    %r12d,%ebx
  402dea:	48 8b b5 18 01 00 00 	mov    0x118(%rbp),%rsi
  402df1:	80 3e 00             	cmpb   $0x0,(%rsi)
  402df4:	74 1c                	je     402e12 <make_envp+0x2a2>
  402df6:	44 8d 63 01          	lea    0x1(%rbx),%r12d
  402dfa:	bf dd f4 40 00       	mov    $0x40f4dd,%edi
  402dff:	48 63 db             	movslq %ebx,%rbx
  402e02:	e8 d8 fc ff ff       	callq  402adf <build_env>
  402e07:	48 89 04 dd 40 61 61 	mov    %rax,0x616140(,%rbx,8)
  402e0e:	00 
  402e0f:	44 89 e3             	mov    %r12d,%ebx
  402e12:	48 8b b5 20 01 00 00 	mov    0x120(%rbp),%rsi
  402e19:	80 3e 00             	cmpb   $0x0,(%rsi)
  402e1c:	74 1c                	je     402e3a <make_envp+0x2ca>
  402e1e:	44 8d 63 01          	lea    0x1(%rbx),%r12d
  402e22:	bf f0 f4 40 00       	mov    $0x40f4f0,%edi
  402e27:	48 63 db             	movslq %ebx,%rbx
  402e2a:	e8 b0 fc ff ff       	callq  402adf <build_env>
  402e2f:	48 89 04 dd 40 61 61 	mov    %rax,0x616140(,%rbx,8)
  402e36:	00 
  402e37:	44 89 e3             	mov    %r12d,%ebx
  402e3a:	48 8b b5 28 01 00 00 	mov    0x128(%rbp),%rsi
  402e41:	80 3e 00             	cmpb   $0x0,(%rsi)
  402e44:	74 1c                	je     402e62 <make_envp+0x2f2>
  402e46:	44 8d 63 01          	lea    0x1(%rbx),%r12d
  402e4a:	bf ff f4 40 00       	mov    $0x40f4ff,%edi
  402e4f:	48 63 db             	movslq %ebx,%rbx
  402e52:	e8 88 fc ff ff       	callq  402adf <build_env>
  402e57:	48 89 04 dd 40 61 61 	mov    %rax,0x616140(,%rbx,8)
  402e5e:	00 
  402e5f:	44 89 e3             	mov    %r12d,%ebx
  402e62:	48 8b b5 30 01 00 00 	mov    0x130(%rbp),%rsi
  402e69:	80 3e 00             	cmpb   $0x0,(%rsi)
  402e6c:	74 1c                	je     402e8a <make_envp+0x31a>
  402e6e:	44 8d 63 01          	lea    0x1(%rbx),%r12d
  402e72:	bf 17 f5 40 00       	mov    $0x40f517,%edi
  402e77:	48 63 db             	movslq %ebx,%rbx
  402e7a:	e8 60 fc ff ff       	callq  402adf <build_env>
  402e7f:	48 89 04 dd 40 61 61 	mov    %rax,0x616140(,%rbx,8)
  402e86:	00 
  402e87:	44 89 e3             	mov    %r12d,%ebx
  402e8a:	48 8b b5 38 01 00 00 	mov    0x138(%rbp),%rsi
  402e91:	80 3e 00             	cmpb   $0x0,(%rsi)
  402e94:	74 1c                	je     402eb2 <make_envp+0x342>
  402e96:	44 8d 63 01          	lea    0x1(%rbx),%r12d
  402e9a:	bf 2f f5 40 00       	mov    $0x40f52f,%edi
  402e9f:	48 63 db             	movslq %ebx,%rbx
  402ea2:	e8 38 fc ff ff       	callq  402adf <build_env>
  402ea7:	48 89 04 dd 40 61 61 	mov    %rax,0x616140(,%rbx,8)
  402eae:	00 
  402eaf:	44 89 e3             	mov    %r12d,%ebx
  402eb2:	48 8b b5 40 01 00 00 	mov    0x140(%rbp),%rsi
  402eb9:	80 3e 00             	cmpb   $0x0,(%rsi)
  402ebc:	74 1c                	je     402eda <make_envp+0x36a>
  402ebe:	44 8d 63 01          	lea    0x1(%rbx),%r12d
  402ec2:	bf 3e f5 40 00       	mov    $0x40f53e,%edi
  402ec7:	48 63 db             	movslq %ebx,%rbx
  402eca:	e8 10 fc ff ff       	callq  402adf <build_env>
  402ecf:	48 89 04 dd 40 61 61 	mov    %rax,0x616140(,%rbx,8)
  402ed6:	00 
  402ed7:	44 89 e3             	mov    %r12d,%ebx
  402eda:	48 8b b5 50 01 00 00 	mov    0x150(%rbp),%rsi
  402ee1:	80 3e 00             	cmpb   $0x0,(%rsi)
  402ee4:	74 1c                	je     402f02 <make_envp+0x392>
  402ee6:	44 8d 63 01          	lea    0x1(%rbx),%r12d
  402eea:	bf 4e f5 40 00       	mov    $0x40f54e,%edi
  402eef:	48 63 db             	movslq %ebx,%rbx
  402ef2:	e8 e8 fb ff ff       	callq  402adf <build_env>
  402ef7:	48 89 04 dd 40 61 61 	mov    %rax,0x616140(,%rbx,8)
  402efe:	00 
  402eff:	44 89 e3             	mov    %r12d,%ebx
  402f02:	48 8b 8d f0 01 00 00 	mov    0x1f0(%rbp),%rcx
  402f09:	48 83 f9 ff          	cmp    $0xffffffffffffffff,%rcx
  402f0d:	74 37                	je     402f46 <make_envp+0x3d6>
  402f0f:	48 8d 7c 24 10       	lea    0x10(%rsp),%rdi
  402f14:	ba 5b f5 40 00       	mov    $0x40f55b,%edx
  402f19:	be 00 01 00 00       	mov    $0x100,%esi
  402f1e:	31 c0                	xor    %eax,%eax
  402f20:	44 8d 63 01          	lea    0x1(%rbx),%r12d
  402f24:	48 63 db             	movslq %ebx,%rbx
  402f27:	e8 14 42 00 00       	callq  407140 <my_snprintf>
  402f2c:	48 8d 74 24 10       	lea    0x10(%rsp),%rsi
  402f31:	bf 5f f5 40 00       	mov    $0x40f55f,%edi
  402f36:	e8 a4 fb ff ff       	callq  402adf <build_env>
  402f3b:	48 89 04 dd 40 61 61 	mov    %rax,0x616140(,%rbx,8)
  402f42:	00 
  402f43:	44 89 e3             	mov    %r12d,%ebx
  402f46:	48 8b b5 68 01 00 00 	mov    0x168(%rbp),%rsi
  402f4d:	80 3e 00             	cmpb   $0x0,(%rsi)
  402f50:	74 1c                	je     402f6e <make_envp+0x3fe>
  402f52:	44 8d 63 01          	lea    0x1(%rbx),%r12d
  402f56:	bf 71 f5 40 00       	mov    $0x40f571,%edi
  402f5b:	48 63 db             	movslq %ebx,%rbx
  402f5e:	e8 7c fb ff ff       	callq  402adf <build_env>
  402f63:	48 89 04 dd 40 61 61 	mov    %rax,0x616140(,%rbx,8)
  402f6a:	00 
  402f6b:	44 89 e3             	mov    %r12d,%ebx
  402f6e:	48 8b 85 60 01 00 00 	mov    0x160(%rbp),%rax
  402f75:	80 38 00             	cmpb   $0x0,(%rax)
  402f78:	74 21                	je     402f9b <make_envp+0x42b>
  402f7a:	44 8d 63 01          	lea    0x1(%rbx),%r12d
  402f7e:	be 80 f5 40 00       	mov    $0x40f580,%esi
  402f83:	48 63 db             	movslq %ebx,%rbx
  402f86:	bf 86 f5 40 00       	mov    $0x40f586,%edi
  402f8b:	e8 4f fb ff ff       	callq  402adf <build_env>
  402f90:	48 89 04 dd 40 61 61 	mov    %rax,0x616140(,%rbx,8)
  402f97:	00 
  402f98:	44 89 e3             	mov    %r12d,%ebx
  402f9b:	bf 93 f5 40 00       	mov    $0x40f593,%edi
  402fa0:	e8 eb f2 ff ff       	callq  402290 <getenv@plt>
  402fa5:	48 85 c0             	test   %rax,%rax
  402fa8:	74 29                	je     402fd3 <make_envp+0x463>
  402faa:	44 8d 63 01          	lea    0x1(%rbx),%r12d
  402fae:	bf 93 f5 40 00       	mov    $0x40f593,%edi
  402fb3:	48 63 db             	movslq %ebx,%rbx
  402fb6:	e8 d5 f2 ff ff       	callq  402290 <getenv@plt>
  402fbb:	bf 96 f5 40 00       	mov    $0x40f596,%edi
  402fc0:	48 89 c6             	mov    %rax,%rsi
  402fc3:	e8 17 fb ff ff       	callq  402adf <build_env>
  402fc8:	48 89 04 dd 40 61 61 	mov    %rax,0x616140(,%rbx,8)
  402fcf:	00 
  402fd0:	44 89 e3             	mov    %r12d,%ebx
  402fd3:	48 8b 45 08          	mov    0x8(%rbp),%rax
  402fd7:	bf 9c f5 40 00       	mov    $0x40f59c,%edi
  402fdc:	48 8b 70 18          	mov    0x18(%rax),%rsi
  402fe0:	e8 fa fa ff ff       	callq  402adf <build_env>
  402fe5:	48 63 d3             	movslq %ebx,%rdx
  402fe8:	ff c3                	inc    %ebx
  402fea:	48 63 db             	movslq %ebx,%rbx
  402fed:	48 89 04 d5 40 61 61 	mov    %rax,0x616140(,%rdx,8)
  402ff4:	00 
  402ff5:	b8 40 61 61 00       	mov    $0x616140,%eax
  402ffa:	48 c7 04 dd 40 61 61 	movq   $0x0,0x616140(,%rbx,8)
  403001:	00 00 00 00 00 
  403006:	48 81 c4 18 01 00 00 	add    $0x118,%rsp
  40300d:	5b                   	pop    %rbx
  40300e:	5d                   	pop    %rbp
  40300f:	41 5c                	pop    %r12
  403011:	41 5d                	pop    %r13
  403013:	41 5e                	pop    %r14
  403015:	41 5f                	pop    %r15
  403017:	c3                   	retq   

0000000000403018 <cgi_interpose_input>:
  403018:	41 55                	push   %r13
  40301a:	41 54                	push   %r12
  40301c:	41 89 f4             	mov    %esi,%r12d
  40301f:	55                   	push   %rbp
  403020:	53                   	push   %rbx
  403021:	48 89 fd             	mov    %rdi,%rbp
  403024:	48 81 ec 08 04 00 00 	sub    $0x408,%rsp
  40302b:	48 8b b7 a8 00 00 00 	mov    0xa8(%rdi),%rsi
  403032:	48 8b 9f a0 00 00 00 	mov    0xa0(%rdi),%rbx
  403039:	48 29 f3             	sub    %rsi,%rbx
  40303c:	74 5a                	je     403098 <cgi_interpose_input+0x80>
  40303e:	48 03 b7 90 00 00 00 	add    0x90(%rdi),%rsi
  403045:	48 89 da             	mov    %rbx,%rdx
  403048:	44 89 e7             	mov    %r12d,%edi
  40304b:	e8 40 86 00 00       	callq  40b690 <httpd_write_fully>
  403050:	48 98                	cltq   
  403052:	48 39 c3             	cmp    %rax,%rbx
  403055:	75 7e                	jne    4030d5 <cgi_interpose_input+0xbd>
  403057:	eb 3f                	jmp    403098 <cgi_interpose_input+0x80>
  403059:	48 29 da             	sub    %rbx,%rdx
  40305c:	8b bd c0 02 00 00    	mov    0x2c0(%rbp),%edi
  403062:	b8 00 04 00 00       	mov    $0x400,%eax
  403067:	48 81 fa 00 04 00 00 	cmp    $0x400,%rdx
  40306e:	48 89 e6             	mov    %rsp,%rsi
  403071:	48 0f 47 d0          	cmova  %rax,%rdx
  403075:	e8 06 f5 ff ff       	callq  402580 <read@plt>
  40307a:	48 85 c0             	test   %rax,%rax
  40307d:	49 89 c5             	mov    %rax,%r13
  403080:	79 2b                	jns    4030ad <cgi_interpose_input+0x95>
  403082:	e8 69 f2 ff ff       	callq  4022f0 <__errno_location@plt>
  403087:	8b 00                	mov    (%rax),%eax
  403089:	83 f8 04             	cmp    $0x4,%eax
  40308c:	75 18                	jne    4030a6 <cgi_interpose_input+0x8e>
  40308e:	bf 01 00 00 00       	mov    $0x1,%edi
  403093:	e8 a8 f8 ff ff       	callq  402940 <sleep@plt>
  403098:	48 8b 95 f0 01 00 00 	mov    0x1f0(%rbp),%rdx
  40309f:	48 39 d3             	cmp    %rdx,%rbx
  4030a2:	72 b5                	jb     403059 <cgi_interpose_input+0x41>
  4030a4:	eb 23                	jmp    4030c9 <cgi_interpose_input+0xb1>
  4030a6:	83 f8 0b             	cmp    $0xb,%eax
  4030a9:	75 2a                	jne    4030d5 <cgi_interpose_input+0xbd>
  4030ab:	eb e1                	jmp    40308e <cgi_interpose_input+0x76>
  4030ad:	74 26                	je     4030d5 <cgi_interpose_input+0xbd>
  4030af:	48 89 c2             	mov    %rax,%rdx
  4030b2:	48 89 e6             	mov    %rsp,%rsi
  4030b5:	44 89 e7             	mov    %r12d,%edi
  4030b8:	e8 d3 85 00 00       	callq  40b690 <httpd_write_fully>
  4030bd:	48 98                	cltq   
  4030bf:	49 39 c5             	cmp    %rax,%r13
  4030c2:	75 11                	jne    4030d5 <cgi_interpose_input+0xbd>
  4030c4:	4c 01 eb             	add    %r13,%rbx
  4030c7:	eb cf                	jmp    403098 <cgi_interpose_input+0x80>
  4030c9:	48 8d bd c0 02 00 00 	lea    0x2c0(%rbp),%rdi
  4030d0:	e8 dd f9 ff ff       	callq  402ab2 <post_post_garbage_hack.isra.3>
  4030d5:	48 81 c4 08 04 00 00 	add    $0x408,%rsp
  4030dc:	5b                   	pop    %rbx
  4030dd:	5d                   	pop    %rbp
  4030de:	41 5c                	pop    %r12
  4030e0:	41 5d                	pop    %r13
  4030e2:	c3                   	retq   

00000000004030e3 <cgi_interpose_output.isra.4>:
  4030e3:	41 57                	push   %r15
  4030e5:	41 56                	push   %r14
  4030e7:	49 89 fe             	mov    %rdi,%r14
  4030ea:	41 55                	push   %r13
  4030ec:	41 54                	push   %r12
  4030ee:	55                   	push   %rbp
  4030ef:	53                   	push   %rbx
  4030f0:	31 db                	xor    %ebx,%ebx
  4030f2:	48 81 ec 28 04 00 00 	sub    $0x428,%rsp
  4030f9:	8b 3f                	mov    (%rdi),%edi
  4030fb:	89 74 24 0c          	mov    %esi,0xc(%rsp)
  4030ff:	48 8d 6c 24 20       	lea    0x20(%rsp),%rbp
  403104:	e8 d7 49 00 00       	callq  407ae0 <httpd_clear_ndelay>
  403109:	48 8d 74 24 10       	lea    0x10(%rsp),%rsi
  40310e:	48 8d 7c 24 18       	lea    0x18(%rsp),%rdi
  403113:	ba f4 01 00 00       	mov    $0x1f4,%edx
  403118:	48 c7 44 24 10 00 00 	movq   $0x0,0x10(%rsp)
  40311f:	00 00 
  403121:	e8 fa 49 00 00       	callq  407b20 <httpd_realloc_str>
  403126:	8b 7c 24 0c          	mov    0xc(%rsp),%edi
  40312a:	ba 00 04 00 00       	mov    $0x400,%edx
  40312f:	48 89 ee             	mov    %rbp,%rsi
  403132:	e8 49 f4 ff ff       	callq  402580 <read@plt>
  403137:	85 c0                	test   %eax,%eax
  403139:	79 30                	jns    40316b <cgi_interpose_output.isra.4+0x88>
  40313b:	e8 b0 f1 ff ff       	callq  4022f0 <__errno_location@plt>
  403140:	8b 00                	mov    (%rax),%eax
  403142:	83 f8 04             	cmp    $0x4,%eax
  403145:	74 12                	je     403159 <cgi_interpose_output.isra.4+0x76>
  403147:	83 f8 0b             	cmp    $0xb,%eax
  40314a:	74 0d                	je     403159 <cgi_interpose_output.isra.4+0x76>
  40314c:	49 89 dd             	mov    %rbx,%r13
  40314f:	49 89 dc             	mov    %rbx,%r12
  403152:	4c 03 6c 24 18       	add    0x18(%rsp),%r13
  403157:	eb 79                	jmp    4031d2 <cgi_interpose_output.isra.4+0xef>
  403159:	bf 01 00 00 00       	mov    $0x1,%edi
  40315e:	49 89 dc             	mov    %rbx,%r12
  403161:	e8 da f7 ff ff       	callq  402940 <sleep@plt>
  403166:	4c 89 e3             	mov    %r12,%rbx
  403169:	eb bb                	jmp    403126 <cgi_interpose_output.isra.4+0x43>
  40316b:	74 df                	je     40314c <cgi_interpose_output.isra.4+0x69>
  40316d:	4c 63 e8             	movslq %eax,%r13
  403170:	48 8d 74 24 10       	lea    0x10(%rsp),%rsi
  403175:	48 8d 7c 24 18       	lea    0x18(%rsp),%rdi
  40317a:	4e 8d 24 2b          	lea    (%rbx,%r13,1),%r12
  40317e:	4c 89 e2             	mov    %r12,%rdx
  403181:	e8 9a 49 00 00       	callq  407b20 <httpd_realloc_str>
  403186:	48 03 5c 24 18       	add    0x18(%rsp),%rbx
  40318b:	4c 89 ea             	mov    %r13,%rdx
  40318e:	48 89 ee             	mov    %rbp,%rsi
  403191:	48 89 df             	mov    %rbx,%rdi
  403194:	e8 37 f6 ff ff       	callq  4027d0 <memmove@plt>
  403199:	48 8b 44 24 18       	mov    0x18(%rsp),%rax
  40319e:	be 1b f6 40 00       	mov    $0x40f61b,%esi
  4031a3:	42 c6 04 20 00       	movb   $0x0,(%rax,%r12,1)
  4031a8:	48 8b 5c 24 18       	mov    0x18(%rsp),%rbx
  4031ad:	48 89 df             	mov    %rbx,%rdi
  4031b0:	e8 ab f7 ff ff       	callq  402960 <strstr@plt>
  4031b5:	48 85 c0             	test   %rax,%rax
  4031b8:	49 89 c5             	mov    %rax,%r13
  4031bb:	75 15                	jne    4031d2 <cgi_interpose_output.isra.4+0xef>
  4031bd:	be 20 f6 40 00       	mov    $0x40f620,%esi
  4031c2:	48 89 df             	mov    %rbx,%rdi
  4031c5:	e8 96 f7 ff ff       	callq  402960 <strstr@plt>
  4031ca:	48 85 c0             	test   %rax,%rax
  4031cd:	49 89 c5             	mov    %rax,%r13
  4031d0:	74 94                	je     403166 <cgi_interpose_output.isra.4+0x83>
  4031d2:	48 8b 5c 24 18       	mov    0x18(%rsp),%rbx
  4031d7:	80 3b 00             	cmpb   $0x0,(%rbx)
  4031da:	0f 84 15 02 00 00    	je     4033f5 <cgi_interpose_output.isra.4+0x312>
  4031e0:	ba 05 00 00 00       	mov    $0x5,%edx
  4031e5:	be 23 f6 40 00       	mov    $0x40f623,%esi
  4031ea:	48 89 df             	mov    %rbx,%rdi
  4031ed:	e8 1e f1 ff ff       	callq  402310 <strncmp@plt>
  4031f2:	85 c0                	test   %eax,%eax
  4031f4:	41 bf c8 00 00 00    	mov    $0xc8,%r15d
  4031fa:	75 19                	jne    403215 <cgi_interpose_output.isra.4+0x132>
  4031fc:	be c7 f2 40 00       	mov    $0x40f2c7,%esi
  403201:	48 89 df             	mov    %rbx,%rdi
  403204:	e8 67 f3 ff ff       	callq  402570 <strcspn@plt>
  403209:	48 8d 3c 03          	lea    (%rbx,%rax,1),%rdi
  40320d:	e8 6e f6 ff ff       	callq  402880 <atoi@plt>
  403212:	41 89 c7             	mov    %eax,%r15d
  403215:	be 29 f6 40 00       	mov    $0x40f629,%esi
  40321a:	48 89 df             	mov    %rbx,%rdi
  40321d:	e8 3e f7 ff ff       	callq  402960 <strstr@plt>
  403222:	4c 39 e8             	cmp    %r13,%rax
  403225:	73 2f                	jae    403256 <cgi_interpose_output.isra.4+0x173>
  403227:	48 85 c0             	test   %rax,%rax
  40322a:	74 2a                	je     403256 <cgi_interpose_output.isra.4+0x173>
  40322c:	48 39 c3             	cmp    %rax,%rbx
  40322f:	74 06                	je     403237 <cgi_interpose_output.isra.4+0x154>
  403231:	80 78 ff 0a          	cmpb   $0xa,-0x1(%rax)
  403235:	75 1f                	jne    403256 <cgi_interpose_output.isra.4+0x173>
  403237:	48 8d 58 07          	lea    0x7(%rax),%rbx
  40323b:	be c7 f2 40 00       	mov    $0x40f2c7,%esi
  403240:	48 89 df             	mov    %rbx,%rdi
  403243:	e8 08 f3 ff ff       	callq  402550 <strspn@plt>
  403248:	48 8d 3c 03          	lea    (%rbx,%rax,1),%rdi
  40324c:	e8 2f f6 ff ff       	callq  402880 <atoi@plt>
  403251:	41 89 c7             	mov    %eax,%r15d
  403254:	eb 2a                	jmp    403280 <cgi_interpose_output.isra.4+0x19d>
  403256:	be 31 f6 40 00       	mov    $0x40f631,%esi
  40325b:	48 89 df             	mov    %rbx,%rdi
  40325e:	e8 fd f6 ff ff       	callq  402960 <strstr@plt>
  403263:	48 85 c0             	test   %rax,%rax
  403266:	74 18                	je     403280 <cgi_interpose_output.isra.4+0x19d>
  403268:	49 39 c5             	cmp    %rax,%r13
  40326b:	76 13                	jbe    403280 <cgi_interpose_output.isra.4+0x19d>
  40326d:	48 39 c3             	cmp    %rax,%rbx
  403270:	0f 84 d5 00 00 00    	je     40334b <cgi_interpose_output.isra.4+0x268>
  403276:	80 78 ff 0a          	cmpb   $0xa,-0x1(%rax)
  40327a:	0f 84 cb 00 00 00    	je     40334b <cgi_interpose_output.isra.4+0x268>
  403280:	41 81 ff 93 01 00 00 	cmp    $0x193,%r15d
  403287:	41 b8 b0 f3 40 00    	mov    $0x40f3b0,%r8d
  40328d:	0f 84 c4 00 00 00    	je     403357 <cgi_interpose_output.isra.4+0x274>
  403293:	7f 5d                	jg     4032f2 <cgi_interpose_output.isra.4+0x20f>
  403295:	41 81 ff 30 01 00 00 	cmp    $0x130,%r15d
  40329c:	41 b8 0e f6 40 00    	mov    $0x40f60e,%r8d
  4032a2:	0f 84 af 00 00 00    	je     403357 <cgi_interpose_output.isra.4+0x274>
  4032a8:	7f 27                	jg     4032d1 <cgi_interpose_output.isra.4+0x1ee>
  4032aa:	41 81 ff c8 00 00 00 	cmp    $0xc8,%r15d
  4032b1:	41 b8 d4 f5 40 00    	mov    $0x40f5d4,%r8d
  4032b7:	0f 84 9a 00 00 00    	je     403357 <cgi_interpose_output.isra.4+0x274>
  4032bd:	41 81 ff 2e 01 00 00 	cmp    $0x12e,%r15d
  4032c4:	41 b8 ce f5 40 00    	mov    $0x40f5ce,%r8d
  4032ca:	75 77                	jne    403343 <cgi_interpose_output.isra.4+0x260>
  4032cc:	e9 86 00 00 00       	jmpq   403357 <cgi_interpose_output.isra.4+0x274>
  4032d1:	41 81 ff 90 01 00 00 	cmp    $0x190,%r15d
  4032d8:	4c 8b 05 a9 29 21 00 	mov    0x2129a9(%rip),%r8        # 615c88 <httpd_err400title>
  4032df:	74 76                	je     403357 <cgi_interpose_output.isra.4+0x274>
  4032e1:	41 81 ff 91 01 00 00 	cmp    $0x191,%r15d
  4032e8:	41 b8 9c f1 40 00    	mov    $0x40f19c,%r8d
  4032ee:	74 67                	je     403357 <cgi_interpose_output.isra.4+0x274>
  4032f0:	eb 51                	jmp    403343 <cgi_interpose_output.isra.4+0x260>
  4032f2:	41 81 ff f4 01 00 00 	cmp    $0x1f4,%r15d
  4032f9:	41 b8 a1 f3 40 00    	mov    $0x40f3a1,%r8d
  4032ff:	74 56                	je     403357 <cgi_interpose_output.isra.4+0x274>
  403301:	7f 21                	jg     403324 <cgi_interpose_output.isra.4+0x241>
  403303:	41 81 ff 94 01 00 00 	cmp    $0x194,%r15d
  40330a:	41 b8 ca f5 40 00    	mov    $0x40f5ca,%r8d
  403310:	74 45                	je     403357 <cgi_interpose_output.isra.4+0x274>
  403312:	41 81 ff 98 01 00 00 	cmp    $0x198,%r15d
  403319:	4c 8b 05 58 29 21 00 	mov    0x212958(%rip),%r8        # 615c78 <httpd_err408title>
  403320:	74 35                	je     403357 <cgi_interpose_output.isra.4+0x274>
  403322:	eb 1f                	jmp    403343 <cgi_interpose_output.isra.4+0x260>
  403324:	41 81 ff f5 01 00 00 	cmp    $0x1f5,%r15d
  40332b:	41 b8 ae f2 40 00    	mov    $0x40f2ae,%r8d
  403331:	74 24                	je     403357 <cgi_interpose_output.isra.4+0x274>
  403333:	41 81 ff f7 01 00 00 	cmp    $0x1f7,%r15d
  40333a:	4c 8b 05 27 29 21 00 	mov    0x212927(%rip),%r8        # 615c68 <httpd_err503title>
  403341:	74 14                	je     403357 <cgi_interpose_output.isra.4+0x274>
  403343:	41 b8 04 f6 40 00    	mov    $0x40f604,%r8d
  403349:	eb 0c                	jmp    403357 <cgi_interpose_output.isra.4+0x274>
  40334b:	41 bf 2e 01 00 00    	mov    $0x12e,%r15d
  403351:	41 b8 ce f5 40 00    	mov    $0x40f5ce,%r8d
  403357:	44 89 f9             	mov    %r15d,%ecx
  40335a:	ba 3b f6 40 00       	mov    $0x40f63b,%edx
  40335f:	be 00 04 00 00       	mov    $0x400,%esi
  403364:	48 89 ef             	mov    %rbp,%rdi
  403367:	31 c0                	xor    %eax,%eax
  403369:	e8 d2 3d 00 00       	callq  407140 <my_snprintf>
  40336e:	31 c0                	xor    %eax,%eax
  403370:	48 89 ef             	mov    %rbp,%rdi
  403373:	48 83 c9 ff          	or     $0xffffffffffffffff,%rcx
  403377:	f2 ae                	repnz scas %es:(%rdi),%al
  403379:	41 8b 3e             	mov    (%r14),%edi
  40337c:	48 89 ee             	mov    %rbp,%rsi
  40337f:	48 f7 d1             	not    %rcx
  403382:	48 8d 51 ff          	lea    -0x1(%rcx),%rdx
  403386:	e8 05 83 00 00       	callq  40b690 <httpd_write_fully>
  40338b:	48 8b 74 24 18       	mov    0x18(%rsp),%rsi
  403390:	41 8b 3e             	mov    (%r14),%edi
  403393:	4c 89 e2             	mov    %r12,%rdx
  403396:	e8 f5 82 00 00       	callq  40b690 <httpd_write_fully>
  40339b:	8b 7c 24 0c          	mov    0xc(%rsp),%edi
  40339f:	ba 00 04 00 00       	mov    $0x400,%edx
  4033a4:	48 89 ee             	mov    %rbp,%rsi
  4033a7:	e8 d4 f1 ff ff       	callq  402580 <read@plt>
  4033ac:	85 c0                	test   %eax,%eax
  4033ae:	48 89 c3             	mov    %rax,%rbx
  4033b1:	79 2c                	jns    4033df <cgi_interpose_output.isra.4+0x2fc>
  4033b3:	e8 38 ef ff ff       	callq  4022f0 <__errno_location@plt>
  4033b8:	8b 00                	mov    (%rax),%eax
  4033ba:	83 f8 04             	cmp    $0x4,%eax
  4033bd:	74 14                	je     4033d3 <cgi_interpose_output.isra.4+0x2f0>
  4033bf:	83 f8 0b             	cmp    $0xb,%eax
  4033c2:	74 0f                	je     4033d3 <cgi_interpose_output.isra.4+0x2f0>
  4033c4:	41 8b 3e             	mov    (%r14),%edi
  4033c7:	be 01 00 00 00       	mov    $0x1,%esi
  4033cc:	e8 3f f0 ff ff       	callq  402410 <shutdown@plt>
  4033d1:	eb 22                	jmp    4033f5 <cgi_interpose_output.isra.4+0x312>
  4033d3:	bf 01 00 00 00       	mov    $0x1,%edi
  4033d8:	e8 63 f5 ff ff       	callq  402940 <sleep@plt>
  4033dd:	eb bc                	jmp    40339b <cgi_interpose_output.isra.4+0x2b8>
  4033df:	74 e3                	je     4033c4 <cgi_interpose_output.isra.4+0x2e1>
  4033e1:	41 8b 3e             	mov    (%r14),%edi
  4033e4:	48 63 d0             	movslq %eax,%rdx
  4033e7:	48 89 ee             	mov    %rbp,%rsi
  4033ea:	e8 a1 82 00 00       	callq  40b690 <httpd_write_fully>
  4033ef:	39 c3                	cmp    %eax,%ebx
  4033f1:	74 a8                	je     40339b <cgi_interpose_output.isra.4+0x2b8>
  4033f3:	eb cf                	jmp    4033c4 <cgi_interpose_output.isra.4+0x2e1>
  4033f5:	48 81 c4 28 04 00 00 	add    $0x428,%rsp
  4033fc:	5b                   	pop    %rbx
  4033fd:	5d                   	pop    %rbp
  4033fe:	41 5c                	pop    %r12
  403400:	41 5d                	pop    %r13
  403402:	41 5e                	pop    %r14
  403404:	41 5f                	pop    %r15
  403406:	c3                   	retq   

0000000000403407 <cgi_child>:
  403407:	41 56                	push   %r14
  403409:	41 55                	push   %r13
  40340b:	31 d2                	xor    %edx,%edx
  40340d:	41 54                	push   %r12
  40340f:	55                   	push   %rbp
  403410:	be 02 00 00 00       	mov    $0x2,%esi
  403415:	53                   	push   %rbx
  403416:	48 89 fb             	mov    %rdi,%rbx
  403419:	31 c0                	xor    %eax,%eax
  40341b:	48 83 ec 10          	sub    $0x10,%rsp
  40341f:	8b bf c0 02 00 00    	mov    0x2c0(%rdi),%edi
  403425:	e8 86 ef ff ff       	callq  4023b0 <fcntl@plt>
  40342a:	e8 91 ee ff ff       	callq  4022c0 <closelog@plt>
  40342f:	8b bb c0 02 00 00    	mov    0x2c0(%rbx),%edi
  403435:	83 ff 02             	cmp    $0x2,%edi
  403438:	77 14                	ja     40344e <cgi_child+0x47>
  40343a:	be 03 00 00 00       	mov    $0x3,%esi
  40343f:	e8 2c f0 ff ff       	callq  402470 <dup2@plt>
  403444:	85 c0                	test   %eax,%eax
  403446:	78 06                	js     40344e <cgi_child+0x47>
  403448:	89 83 c0 02 00 00    	mov    %eax,0x2c0(%rbx)
  40344e:	48 89 df             	mov    %rbx,%rdi
  403451:	e8 1a f7 ff ff       	callq  402b70 <make_envp>
  403456:	48 8b b3 08 01 00 00 	mov    0x108(%rbx),%rsi
  40345d:	48 8b bb f0 00 00 00 	mov    0xf0(%rbx),%rdi
  403464:	49 89 c6             	mov    %rax,%r14
  403467:	e8 7c f5 ff ff       	callq  4029e8 <make_argp.isra.2>
  40346c:	83 bb b4 00 00 00 03 	cmpl   $0x3,0xb4(%rbx)
  403473:	49 89 c5             	mov    %rax,%r13
  403476:	0f 85 bc 00 00 00    	jne    403538 <cgi_child+0x131>
  40347c:	48 8b 83 a8 00 00 00 	mov    0xa8(%rbx),%rax
  403483:	48 39 83 a0 00 00 00 	cmp    %rax,0xa0(%rbx)
  40348a:	0f 86 a8 00 00 00    	jbe    403538 <cgi_child+0x131>
  403490:	48 89 e7             	mov    %rsp,%rdi
  403493:	e8 88 f0 ff ff       	callq  402520 <pipe@plt>
  403498:	85 c0                	test   %eax,%eax
  40349a:	0f 88 dd 00 00 00    	js     40357d <cgi_child+0x176>
  4034a0:	e8 ab f4 ff ff       	callq  402950 <fork@plt>
  4034a5:	85 c0                	test   %eax,%eax
  4034a7:	79 47                	jns    4034f0 <cgi_child+0xe9>
  4034a9:	be d7 f5 40 00       	mov    $0x40f5d7,%esi
  4034ae:	bf 03 00 00 00       	mov    $0x3,%edi
  4034b3:	31 c0                	xor    %eax,%eax
  4034b5:	e8 36 f2 ff ff       	callq  4026f0 <syslog@plt>
  4034ba:	4c 8b 8b d0 00 00 00 	mov    0xd0(%rbx),%r9
  4034c1:	41 b8 48 06 41 00    	mov    $0x410648,%r8d
  4034c7:	b9 c9 f2 40 00       	mov    $0x40f2c9,%ecx
  4034cc:	ba a1 f3 40 00       	mov    $0x40f3a1,%edx
  4034d1:	be f4 01 00 00       	mov    $0x1f4,%esi
  4034d6:	48 89 df             	mov    %rbx,%rdi
  4034d9:	e8 e2 59 00 00       	callq  408ec0 <httpd_send_err>
  4034de:	48 89 df             	mov    %rbx,%rdi
  4034e1:	e8 3a 82 00 00       	callq  40b720 <httpd_write_response>
  4034e6:	bf 01 00 00 00       	mov    $0x1,%edi
  4034eb:	e8 e0 f3 ff ff       	callq  4028d0 <exit@plt>
  4034f0:	75 25                	jne    403517 <cgi_child+0x110>
  4034f2:	8b 3c 24             	mov    (%rsp),%edi
  4034f5:	c7 05 0d 30 21 00 01 	movl   $0x1,0x21300d(%rip)        # 61650c <sub_process>
  4034fc:	00 00 00 
  4034ff:	e8 ec ef ff ff       	callq  4024f0 <close@plt>
  403504:	8b 74 24 04          	mov    0x4(%rsp),%esi
  403508:	48 89 df             	mov    %rbx,%rdi
  40350b:	e8 08 fb ff ff       	callq  403018 <cgi_interpose_input>
  403510:	31 ff                	xor    %edi,%edi
  403512:	e8 b9 f3 ff ff       	callq  4028d0 <exit@plt>
  403517:	8b 7c 24 04          	mov    0x4(%rsp),%edi
  40351b:	e8 d0 ef ff ff       	callq  4024f0 <close@plt>
  403520:	8b 3c 24             	mov    (%rsp),%edi
  403523:	85 ff                	test   %edi,%edi
  403525:	74 22                	je     403549 <cgi_child+0x142>
  403527:	31 f6                	xor    %esi,%esi
  403529:	e8 42 ef ff ff       	callq  402470 <dup2@plt>
  40352e:	8b 3c 24             	mov    (%rsp),%edi
  403531:	e8 ba ef ff ff       	callq  4024f0 <close@plt>
  403536:	eb 11                	jmp    403549 <cgi_child+0x142>
  403538:	8b bb c0 02 00 00    	mov    0x2c0(%rbx),%edi
  40353e:	85 ff                	test   %edi,%edi
  403540:	74 07                	je     403549 <cgi_child+0x142>
  403542:	31 f6                	xor    %esi,%esi
  403544:	e8 27 ef ff ff       	callq  402470 <dup2@plt>
  403549:	49 8b 7d 00          	mov    0x0(%r13),%rdi
  40354d:	ba 04 00 00 00       	mov    $0x4,%edx
  403552:	be 56 f6 40 00       	mov    $0x40f656,%esi
  403557:	e8 b4 ed ff ff       	callq  402310 <strncmp@plt>
  40355c:	85 c0                	test   %eax,%eax
  40355e:	0f 84 9c 00 00 00    	je     403600 <cgi_child+0x1f9>
  403564:	83 bb 08 02 00 00 00 	cmpl   $0x0,0x208(%rbx)
  40356b:	0f 84 8f 00 00 00    	je     403600 <cgi_child+0x1f9>
  403571:	48 89 e7             	mov    %rsp,%rdi
  403574:	e8 a7 ef ff ff       	callq  402520 <pipe@plt>
  403579:	85 c0                	test   %eax,%eax
  40357b:	79 0a                	jns    403587 <cgi_child+0x180>
  40357d:	be 4c f6 40 00       	mov    $0x40f64c,%esi
  403582:	e9 27 ff ff ff       	jmpq   4034ae <cgi_child+0xa7>
  403587:	e8 c4 f3 ff ff       	callq  402950 <fork@plt>
  40358c:	85 c0                	test   %eax,%eax
  40358e:	0f 88 15 ff ff ff    	js     4034a9 <cgi_child+0xa2>
  403594:	75 29                	jne    4035bf <cgi_child+0x1b8>
  403596:	8b 7c 24 04          	mov    0x4(%rsp),%edi
  40359a:	c7 05 68 2f 21 00 01 	movl   $0x1,0x212f68(%rip)        # 61650c <sub_process>
  4035a1:	00 00 00 
  4035a4:	e8 47 ef ff ff       	callq  4024f0 <close@plt>
  4035a9:	8b 34 24             	mov    (%rsp),%esi
  4035ac:	48 8d bb c0 02 00 00 	lea    0x2c0(%rbx),%rdi
  4035b3:	e8 2b fb ff ff       	callq  4030e3 <cgi_interpose_output.isra.4>
  4035b8:	31 ff                	xor    %edi,%edi
  4035ba:	e8 11 f3 ff ff       	callq  4028d0 <exit@plt>
  4035bf:	8b 3c 24             	mov    (%rsp),%edi
  4035c2:	e8 29 ef ff ff       	callq  4024f0 <close@plt>
  4035c7:	8b 7c 24 04          	mov    0x4(%rsp),%edi
  4035cb:	83 ff 01             	cmp    $0x1,%edi
  4035ce:	74 0a                	je     4035da <cgi_child+0x1d3>
  4035d0:	be 01 00 00 00       	mov    $0x1,%esi
  4035d5:	e8 96 ee ff ff       	callq  402470 <dup2@plt>
  4035da:	8b 7c 24 04          	mov    0x4(%rsp),%edi
  4035de:	83 ff 02             	cmp    $0x2,%edi
  4035e1:	74 0a                	je     4035ed <cgi_child+0x1e6>
  4035e3:	be 02 00 00 00       	mov    $0x2,%esi
  4035e8:	e8 83 ee ff ff       	callq  402470 <dup2@plt>
  4035ed:	8b 7c 24 04          	mov    0x4(%rsp),%edi
  4035f1:	8d 47 ff             	lea    -0x1(%rdi),%eax
  4035f4:	83 f8 01             	cmp    $0x1,%eax
  4035f7:	76 31                	jbe    40362a <cgi_child+0x223>
  4035f9:	e8 f2 ee ff ff       	callq  4024f0 <close@plt>
  4035fe:	eb 2a                	jmp    40362a <cgi_child+0x223>
  403600:	8b bb c0 02 00 00    	mov    0x2c0(%rbx),%edi
  403606:	83 ff 01             	cmp    $0x1,%edi
  403609:	74 0a                	je     403615 <cgi_child+0x20e>
  40360b:	be 01 00 00 00       	mov    $0x1,%esi
  403610:	e8 5b ee ff ff       	callq  402470 <dup2@plt>
  403615:	8b bb c0 02 00 00    	mov    0x2c0(%rbx),%edi
  40361b:	83 ff 02             	cmp    $0x2,%edi
  40361e:	74 0a                	je     40362a <cgi_child+0x223>
  403620:	be 02 00 00 00       	mov    $0x2,%esi
  403625:	e8 46 ee ff ff       	callq  402470 <dup2@plt>
  40362a:	bf 0a 00 00 00       	mov    $0xa,%edi
  40362f:	e8 9c f0 ff ff       	callq  4026d0 <nice@plt>
  403634:	48 8b ab f0 00 00 00 	mov    0xf0(%rbx),%rbp
  40363b:	48 89 ef             	mov    %rbp,%rdi
  40363e:	e8 dd f2 ff ff       	callq  402920 <strdup@plt>
  403643:	48 85 c0             	test   %rax,%rax
  403646:	49 89 c4             	mov    %rax,%r12
  403649:	74 21                	je     40366c <cgi_child+0x265>
  40364b:	be 2f 00 00 00       	mov    $0x2f,%esi
  403650:	48 89 c7             	mov    %rax,%rdi
  403653:	e8 58 ee ff ff       	callq  4024b0 <strrchr@plt>
  403658:	48 85 c0             	test   %rax,%rax
  40365b:	74 0f                	je     40366c <cgi_child+0x265>
  40365d:	c6 00 00             	movb   $0x0,(%rax)
  403660:	4c 89 e7             	mov    %r12,%rdi
  403663:	48 8d 68 01          	lea    0x1(%rax),%rbp
  403667:	e8 d4 ed ff ff       	callq  402440 <chdir@plt>
  40366c:	31 f6                	xor    %esi,%esi
  40366e:	bf 0d 00 00 00       	mov    $0xd,%edi
  403673:	31 c0                	xor    %eax,%eax
  403675:	e8 36 f1 ff ff       	callq  4027b0 <sigset@plt>
  40367a:	4c 89 f2             	mov    %r14,%rdx
  40367d:	4c 89 ee             	mov    %r13,%rsi
  403680:	48 89 ef             	mov    %rbp,%rdi
  403683:	e8 28 ef ff ff       	callq  4025b0 <execve@plt>
  403688:	48 8b 93 f0 00 00 00 	mov    0xf0(%rbx),%rdx
  40368f:	be 5b f6 40 00       	mov    $0x40f65b,%esi
  403694:	bf 03 00 00 00       	mov    $0x3,%edi
  403699:	31 c0                	xor    %eax,%eax
  40369b:	e8 50 f0 ff ff       	callq  4026f0 <syslog@plt>
  4036a0:	e9 15 fe ff ff       	jmpq   4034ba <cgi_child+0xb3>

00000000004036a5 <panic>:
  4036a5:	53                   	push   %rbx
  4036a6:	be 68 16 41 00       	mov    $0x411668,%esi
  4036ab:	bf 03 00 00 00       	mov    $0x3,%edi
  4036b0:	31 c0                	xor    %eax,%eax
  4036b2:	bb 40 65 61 00       	mov    $0x616540,%ebx
  4036b7:	e8 34 f0 ff ff       	callq  4026f0 <syslog@plt>
  4036bc:	48 8b 03             	mov    (%rbx),%rax
  4036bf:	48 85 c0             	test   %rax,%rax
  4036c2:	74 16                	je     4036da <panic+0x35>
  4036c4:	83 78 20 00          	cmpl   $0x0,0x20(%rax)
  4036c8:	75 0a                	jne    4036d4 <panic+0x2f>
  4036ca:	48 89 df             	mov    %rbx,%rdi
  4036cd:	e8 9e 95 00 00       	callq  40cc70 <really_unmap>
  4036d2:	eb e8                	jmp    4036bc <panic+0x17>
  4036d4:	48 8d 58 40          	lea    0x40(%rax),%rbx
  4036d8:	eb e2                	jmp    4036bc <panic+0x17>
  4036da:	5b                   	pop    %rbx
  4036db:	c3                   	retq   
  4036dc:	0f 1f 40 00          	nopl   0x0(%rax)

00000000004036e0 <main>:
  4036e0:	41 57                	push   %r15
  4036e2:	41 56                	push   %r14
  4036e4:	41 55                	push   %r13
  4036e6:	41 54                	push   %r12
  4036e8:	41 89 fc             	mov    %edi,%r12d
  4036eb:	55                   	push   %rbp
  4036ec:	53                   	push   %rbx
  4036ed:	48 89 f5             	mov    %rsi,%rbp
  4036f0:	48 81 ec 48 11 00 00 	sub    $0x1148,%rsp
  4036f7:	48 8b 1e             	mov    (%rsi),%rbx
  4036fa:	be 2f 00 00 00       	mov    $0x2f,%esi
  4036ff:	48 89 df             	mov    %rbx,%rdi
  403702:	48 89 1d ef 28 21 00 	mov    %rbx,0x2128ef(%rip)        # 615ff8 <argv0>
  403709:	e8 a2 ed ff ff       	callq  4024b0 <strrchr@plt>
  40370e:	48 8d 50 01          	lea    0x1(%rax),%rdx
  403712:	48 85 c0             	test   %rax,%rax
  403715:	be 09 00 00 00       	mov    $0x9,%esi
  40371a:	48 0f 45 da          	cmovne %rdx,%rbx
  40371e:	ba 18 00 00 00       	mov    $0x18,%edx
  403723:	48 89 df             	mov    %rbx,%rdi
  403726:	e8 75 f1 ff ff       	callq  4028a0 <openlog@plt>
  40372b:	48 89 ee             	mov    %rbp,%rsi
  40372e:	44 89 e7             	mov    %r12d,%edi
  403731:	48 8d ac 24 b0 00 00 	lea    0xb0(%rsp),%rbp
  403738:	00 
  403739:	4c 8d 64 24 30       	lea    0x30(%rsp),%r12
  40373e:	e8 0d 18 00 00       	callq  404f50 <parse_args>
  403743:	e8 d8 ee ff ff       	callq  402620 <tzset@plt>
  403748:	48 8d 4c 24 1c       	lea    0x1c(%rsp),%rcx
  40374d:	48 8d 74 24 18       	lea    0x18(%rsp),%rsi
  403752:	48 89 ea             	mov    %rbp,%rdx
  403755:	4c 89 e7             	mov    %r12,%rdi
  403758:	e8 c3 2f 00 00       	callq  406720 <lookup_hostname.constprop.1>
  40375d:	8b 4c 24 18          	mov    0x18(%rsp),%ecx
  403761:	85 c9                	test   %ecx,%ecx
  403763:	75 0b                	jne    403770 <main+0x90>
  403765:	83 7c 24 1c 00       	cmpl   $0x0,0x1c(%rsp)
  40376a:	0f 84 7a 06 00 00    	je     403dea <main+0x70a>
  403770:	48 8b 3d 19 28 21 00 	mov    0x212819(%rip),%rdi        # 615f90 <throttlefile>
  403777:	c7 05 d3 27 21 00 00 	movl   $0x0,0x2127d3(%rip)        # 615f54 <numthrottles>
  40377e:	00 00 00 
  403781:	c7 05 c5 27 21 00 00 	movl   $0x0,0x2127c5(%rip)        # 615f50 <maxthrottles>
  403788:	00 00 00 
  40378b:	48 c7 05 c2 27 21 00 	movq   $0x0,0x2127c2(%rip)        # 615f58 <throttles>
  403792:	00 00 00 00 
  403796:	48 85 ff             	test   %rdi,%rdi
  403799:	74 05                	je     4037a0 <main+0xc0>
  40379b:	e8 40 1d 00 00       	callq  4054e0 <read_throttlefile>
  4037a0:	e8 ab ec ff ff       	callq  402450 <getuid@plt>
  4037a5:	85 c0                	test   %eax,%eax
  4037a7:	41 bf ff 7f 00 00    	mov    $0x7fff,%r15d
  4037ad:	c7 44 24 04 ff 7f 00 	movl   $0x7fff,0x4(%rsp)
  4037b4:	00 
  4037b5:	0f 84 0a 06 00 00    	je     403dc5 <main+0x6e5>
  4037bb:	48 8b 1d d6 27 21 00 	mov    0x2127d6(%rip),%rbx        # 615f98 <logfile>
  4037c2:	48 85 db             	test   %rbx,%rbx
  4037c5:	0f 84 fa 07 00 00    	je     403fc5 <main+0x8e5>
  4037cb:	bf ce ed 40 00       	mov    $0x40edce,%edi
  4037d0:	b9 0a 00 00 00       	mov    $0xa,%ecx
  4037d5:	48 89 de             	mov    %rbx,%rsi
  4037d8:	f3 a6                	repz cmpsb %es:(%rdi),%ds:(%rsi)
  4037da:	0f 84 ae 05 00 00    	je     403d8e <main+0x6ae>
  4037e0:	be 59 f6 40 00       	mov    $0x40f659,%esi
  4037e5:	48 89 df             	mov    %rbx,%rdi
  4037e8:	e8 e3 ed ff ff       	callq  4025d0 <strcmp@plt>
  4037ed:	85 c0                	test   %eax,%eax
  4037ef:	0f 85 d8 07 00 00    	jne    403fcd <main+0x8ed>
  4037f5:	4c 8b 35 04 27 21 00 	mov    0x212704(%rip),%r14        # 615f00 <__TMC_END__>
  4037fc:	48 8b 3d e5 27 21 00 	mov    0x2127e5(%rip),%rdi        # 615fe8 <dir>
  403803:	48 85 ff             	test   %rdi,%rdi
  403806:	74 0d                	je     403815 <main+0x135>
  403808:	e8 33 ec ff ff       	callq  402440 <chdir@plt>
  40380d:	85 c0                	test   %eax,%eax
  40380f:	0f 88 83 08 00 00    	js     404098 <main+0x9b8>
  403815:	48 8d 9c 24 30 01 00 	lea    0x130(%rsp),%rbx
  40381c:	00 
  40381d:	be 00 10 00 00       	mov    $0x1000,%esi
  403822:	48 89 df             	mov    %rbx,%rdi
  403825:	e8 a6 ec ff ff       	callq  4024d0 <getcwd@plt>
  40382a:	48 89 da             	mov    %rbx,%rdx
  40382d:	8b 0a                	mov    (%rdx),%ecx
  40382f:	48 83 c2 04          	add    $0x4,%rdx
  403833:	8d 81 ff fe fe fe    	lea    -0x1010101(%rcx),%eax
  403839:	f7 d1                	not    %ecx
  40383b:	21 c8                	and    %ecx,%eax
  40383d:	25 80 80 80 80       	and    $0x80808080,%eax
  403842:	74 e9                	je     40382d <main+0x14d>
  403844:	89 c1                	mov    %eax,%ecx
  403846:	c1 e9 10             	shr    $0x10,%ecx
  403849:	a9 80 80 00 00       	test   $0x8080,%eax
  40384e:	0f 44 c1             	cmove  %ecx,%eax
  403851:	48 8d 4a 02          	lea    0x2(%rdx),%rcx
  403855:	48 0f 44 d1          	cmove  %rcx,%rdx
  403859:	89 c1                	mov    %eax,%ecx
  40385b:	00 c1                	add    %al,%cl
  40385d:	48 83 da 03          	sbb    $0x3,%rdx
  403861:	48 29 da             	sub    %rbx,%rdx
  403864:	80 bc 14 2f 01 00 00 	cmpb   $0x2f,0x12f(%rsp,%rdx,1)
  40386b:	2f 
  40386c:	74 06                	je     403874 <main+0x194>
  40386e:	66 c7 04 13 2f 00    	movw   $0x2f,(%rbx,%rdx,1)
  403874:	8b 15 7a 27 21 00    	mov    0x21277a(%rip),%edx        # 615ff4 <debug>
  40387a:	85 d2                	test   %edx,%edx
  40387c:	0f 85 1e 05 00 00    	jne    403da0 <main+0x6c0>
  403882:	48 8b 3d 7f 26 21 00 	mov    0x21267f(%rip),%rdi        # 615f08 <stdin@@GLIBC_2.2.5>
  403889:	e8 52 eb ff ff       	callq  4023e0 <fclose@plt>
  40388e:	48 8b 3d 6b 26 21 00 	mov    0x21266b(%rip),%rdi        # 615f00 <__TMC_END__>
  403895:	49 39 fe             	cmp    %rdi,%r14
  403898:	74 05                	je     40389f <main+0x1bf>
  40389a:	e8 41 eb ff ff       	callq  4023e0 <fclose@plt>
  40389f:	48 8b 3d 6a 26 21 00 	mov    0x21266a(%rip),%rdi        # 615f10 <stderr@@GLIBC_2.2.5>
  4038a6:	e8 35 eb ff ff       	callq  4023e0 <fclose@plt>
  4038ab:	be 01 00 00 00       	mov    $0x1,%esi
  4038b0:	bf 01 00 00 00       	mov    $0x1,%edi
  4038b5:	e8 66 ee ff ff       	callq  402720 <daemon@plt>
  4038ba:	85 c0                	test   %eax,%eax
  4038bc:	be fb ed 40 00       	mov    $0x40edfb,%esi
  4038c1:	0f 88 e8 04 00 00    	js     403daf <main+0x6cf>
  4038c7:	48 8b 3d b2 26 21 00 	mov    0x2126b2(%rip),%rdi        # 615f80 <pidfile>
  4038ce:	48 85 ff             	test   %rdi,%rdi
  4038d1:	74 34                	je     403907 <main+0x227>
  4038d3:	be c4 fe 40 00       	mov    $0x40fec4,%esi
  4038d8:	e8 53 ef ff ff       	callq  402830 <fopen@plt>
  4038dd:	48 85 c0             	test   %rax,%rax
  4038e0:	49 89 c5             	mov    %rax,%r13
  4038e3:	0f 84 d4 07 00 00    	je     4040bd <main+0x9dd>
  4038e9:	e8 e2 ea ff ff       	callq  4023d0 <getpid@plt>
  4038ee:	4c 89 ef             	mov    %r13,%rdi
  4038f1:	89 c2                	mov    %eax,%edx
  4038f3:	be 07 ee 40 00       	mov    $0x40ee07,%esi
  4038f8:	31 c0                	xor    %eax,%eax
  4038fa:	e8 f1 ec ff ff       	callq  4025f0 <fprintf@plt>
  4038ff:	4c 89 ef             	mov    %r13,%rdi
  403902:	e8 d9 ea ff ff       	callq  4023e0 <fclose@plt>
  403907:	e8 c4 32 00 00       	callq  406bd0 <fdwatch_get_nfiles>
  40390c:	85 c0                	test   %eax,%eax
  40390e:	89 05 2c 26 21 00    	mov    %eax,0x21262c(%rip)        # 615f40 <max_connects>
  403914:	0f 88 90 04 00 00    	js     403daa <main+0x6ca>
  40391a:	83 e8 0a             	sub    $0xa,%eax
  40391d:	83 3d b4 26 21 00 00 	cmpl   $0x0,0x2126b4(%rip)        # 615fd8 <do_chroot>
  403924:	89 05 16 26 21 00    	mov    %eax,0x212616(%rip)        # 615f40 <max_connects>
  40392a:	0f 85 ed 05 00 00    	jne    403f1d <main+0x83d>
  403930:	48 8b 3d a9 26 21 00 	mov    0x2126a9(%rip),%rdi        # 615fe0 <data_dir>
  403937:	48 85 ff             	test   %rdi,%rdi
  40393a:	74 0d                	je     403949 <main+0x269>
  40393c:	e8 ff ea ff ff       	callq  402440 <chdir@plt>
  403941:	85 c0                	test   %eax,%eax
  403943:	0f 88 af 07 00 00    	js     4040f8 <main+0xa18>
  403949:	be a0 5d 40 00       	mov    $0x405da0,%esi
  40394e:	bf 0f 00 00 00       	mov    $0xf,%edi
  403953:	31 c0                	xor    %eax,%eax
  403955:	e8 56 ee ff ff       	callq  4027b0 <sigset@plt>
  40395a:	be a0 5d 40 00       	mov    $0x405da0,%esi
  40395f:	bf 02 00 00 00       	mov    $0x2,%edi
  403964:	31 c0                	xor    %eax,%eax
  403966:	e8 45 ee ff ff       	callq  4027b0 <sigset@plt>
  40396b:	be 10 48 40 00       	mov    $0x404810,%esi
  403970:	bf 11 00 00 00       	mov    $0x11,%edi
  403975:	31 c0                	xor    %eax,%eax
  403977:	e8 34 ee ff ff       	callq  4027b0 <sigset@plt>
  40397c:	be 01 00 00 00       	mov    $0x1,%esi
  403981:	bf 0d 00 00 00       	mov    $0xd,%edi
  403986:	31 c0                	xor    %eax,%eax
  403988:	e8 23 ee ff ff       	callq  4027b0 <sigset@plt>
  40398d:	be c0 43 40 00       	mov    $0x4043c0,%esi
  403992:	bf 01 00 00 00       	mov    $0x1,%edi
  403997:	31 c0                	xor    %eax,%eax
  403999:	e8 12 ee ff ff       	callq  4027b0 <sigset@plt>
  40399e:	be 60 5d 40 00       	mov    $0x405d60,%esi
  4039a3:	bf 0a 00 00 00       	mov    $0xa,%edi
  4039a8:	31 c0                	xor    %eax,%eax
  4039aa:	e8 01 ee ff ff       	callq  4027b0 <sigset@plt>
  4039af:	be 80 47 40 00       	mov    $0x404780,%esi
  4039b4:	bf 0c 00 00 00       	mov    $0xc,%edi
  4039b9:	31 c0                	xor    %eax,%eax
  4039bb:	e8 f0 ed ff ff       	callq  4027b0 <sigset@plt>
  4039c0:	be c0 47 40 00       	mov    $0x4047c0,%esi
  4039c5:	bf 0e 00 00 00       	mov    $0xe,%edi
  4039ca:	31 c0                	xor    %eax,%eax
  4039cc:	e8 df ed ff ff       	callq  4027b0 <sigset@plt>
  4039d1:	bf 68 01 00 00       	mov    $0x168,%edi
  4039d6:	c7 05 4c 25 21 00 00 	movl   $0x0,0x21254c(%rip)        # 615f2c <got_hup>
  4039dd:	00 00 00 
  4039e0:	c7 05 3e 25 21 00 00 	movl   $0x0,0x21253e(%rip)        # 615f28 <got_usr1>
  4039e7:	00 00 00 
  4039ea:	c7 05 30 25 21 00 00 	movl   $0x0,0x212530(%rip)        # 615f24 <watchdog_flag>
  4039f1:	00 00 00 
  4039f4:	e8 e7 ea ff ff       	callq  4024e0 <alarm@plt>
  4039f9:	e8 42 9a 00 00       	callq  40d440 <tmr_init>
  4039fe:	31 f6                	xor    %esi,%esi
  403a00:	83 7c 24 1c 00       	cmpl   $0x0,0x1c(%rsp)
  403a05:	8b 05 9d 25 21 00    	mov    0x21259d(%rip),%eax        # 615fa8 <no_empty_referers>
  403a0b:	48 89 ea             	mov    %rbp,%rdx
  403a0e:	0f b7 0d db 25 21 00 	movzwl 0x2125db(%rip),%ecx        # 615ff0 <port>
  403a15:	44 8b 0d 9c 25 21 00 	mov    0x21259c(%rip),%r9d        # 615fb8 <cgi_limit>
  403a1c:	4c 8b 05 9d 25 21 00 	mov    0x21259d(%rip),%r8        # 615fc0 <cgi_pattern>
  403a23:	48 8b 3d 5e 25 21 00 	mov    0x21255e(%rip),%rdi        # 615f88 <hostname>
  403a2a:	48 0f 44 d6          	cmove  %rsi,%rdx
  403a2e:	83 7c 24 18 00       	cmpl   $0x0,0x18(%rsp)
  403a33:	50                   	push   %rax
  403a34:	8b 05 8e 25 21 00    	mov    0x21258e(%rip),%eax        # 615fc8 <do_global_passwd>
  403a3a:	ff 35 60 25 21 00    	pushq  0x212560(%rip)        # 615fa0 <local_pattern>
  403a40:	ff 35 6a 25 21 00    	pushq  0x21256a(%rip)        # 615fb0 <url_pattern>
  403a46:	50                   	push   %rax
  403a47:	8b 05 7f 25 21 00    	mov    0x21257f(%rip),%eax        # 615fcc <do_vhost>
  403a4d:	49 0f 45 f4          	cmovne %r12,%rsi
  403a51:	50                   	push   %rax
  403a52:	8b 05 78 25 21 00    	mov    0x212578(%rip),%eax        # 615fd0 <no_symlink_check>
  403a58:	50                   	push   %rax
  403a59:	8b 05 75 25 21 00    	mov    0x212575(%rip),%eax        # 615fd4 <no_log>
  403a5f:	41 56                	push   %r14
  403a61:	50                   	push   %rax
  403a62:	8b 05 f8 24 21 00    	mov    0x2124f8(%rip),%eax        # 615f60 <max_age>
  403a68:	53                   	push   %rbx
  403a69:	50                   	push   %rax
  403a6a:	ff 35 f8 24 21 00    	pushq  0x2124f8(%rip)        # 615f68 <p3p>
  403a70:	ff 35 fa 24 21 00    	pushq  0x2124fa(%rip)        # 615f70 <charset>
  403a76:	e8 c5 60 00 00       	callq  409b40 <httpd_initialize>
  403a7b:	48 83 c4 60          	add    $0x60,%rsp
  403a7f:	48 85 c0             	test   %rax,%rax
  403a82:	48 89 05 a7 24 21 00 	mov    %rax,0x2124a7(%rip)        # 615f30 <hs>
  403a89:	0f 84 2c 03 00 00    	je     403dbb <main+0x6db>
  403a8f:	48 8b 15 52 2d 21 00 	mov    0x212d52(%rip),%rdx        # 6167e8 <JunkClientData>
  403a96:	31 ff                	xor    %edi,%edi
  403a98:	41 b8 01 00 00 00    	mov    $0x1,%r8d
  403a9e:	b9 c0 d4 01 00       	mov    $0x1d4c0,%ecx
  403aa3:	be a0 47 40 00       	mov    $0x4047a0,%esi
  403aa8:	e8 83 9f 00 00       	callq  40da30 <tmr_create>
  403aad:	48 85 c0             	test   %rax,%rax
  403ab0:	0f 84 29 06 00 00    	je     4040df <main+0x9ff>
  403ab6:	48 8b 15 2b 2d 21 00 	mov    0x212d2b(%rip),%rdx        # 6167e8 <JunkClientData>
  403abd:	31 ff                	xor    %edi,%edi
  403abf:	41 b8 01 00 00 00    	mov    $0x1,%r8d
  403ac5:	b9 88 13 00 00       	mov    $0x1388,%ecx
  403aca:	be 40 62 40 00       	mov    $0x406240,%esi
  403acf:	e8 5c 9f 00 00       	callq  40da30 <tmr_create>
  403ad4:	48 85 c0             	test   %rax,%rax
  403ad7:	0f 84 46 07 00 00    	je     404223 <main+0xb43>
  403add:	83 3d 70 24 21 00 00 	cmpl   $0x0,0x212470(%rip)        # 615f54 <numthrottles>
  403ae4:	7e 27                	jle    403b0d <main+0x42d>
  403ae6:	48 8b 15 fb 2c 21 00 	mov    0x212cfb(%rip),%rdx        # 6167e8 <JunkClientData>
  403aed:	31 ff                	xor    %edi,%edi
  403aef:	41 b8 01 00 00 00    	mov    $0x1,%r8d
  403af5:	b9 d0 07 00 00       	mov    $0x7d0,%ecx
  403afa:	be 60 44 40 00       	mov    $0x404460,%esi
  403aff:	e8 2c 9f 00 00       	callq  40da30 <tmr_create>
  403b04:	48 85 c0             	test   %rax,%rax
  403b07:	0f 84 56 06 00 00    	je     404163 <main+0xa83>
  403b0d:	48 8b 15 d4 2c 21 00 	mov    0x212cd4(%rip),%rdx        # 6167e8 <JunkClientData>
  403b14:	31 ff                	xor    %edi,%edi
  403b16:	41 b8 01 00 00 00    	mov    $0x1,%r8d
  403b1c:	b9 80 ee 36 00       	mov    $0x36ee80,%ecx
  403b21:	be 70 47 40 00       	mov    $0x404770,%esi
  403b26:	e8 05 9f 00 00       	callq  40da30 <tmr_create>
  403b2b:	48 85 c0             	test   %rax,%rax
  403b2e:	0f 84 8a 06 00 00    	je     4041be <main+0xade>
  403b34:	31 ff                	xor    %edi,%edi
  403b36:	e8 05 eb ff ff       	callq  402640 <time@plt>
  403b3b:	48 c7 05 9a 2c 21 00 	movq   $0x0,0x212c9a(%rip)        # 6167e0 <stats_connections>
  403b42:	00 00 00 00 
  403b46:	48 89 05 8b 2c 21 00 	mov    %rax,0x212c8b(%rip)        # 6167d8 <stats_time>
  403b4d:	48 89 05 7c 2c 21 00 	mov    %rax,0x212c7c(%rip)        # 6167d0 <start_time>
  403b54:	48 c7 05 61 2c 21 00 	movq   $0x0,0x212c61(%rip)        # 6167c0 <stats_bytes>
  403b5b:	00 00 00 00 
  403b5f:	c7 05 5f 2c 21 00 00 	movl   $0x0,0x212c5f(%rip)        # 6167c8 <stats_simultaneous>
  403b66:	00 00 00 
  403b69:	e8 e2 e8 ff ff       	callq  402450 <getuid@plt>
  403b6e:	85 c0                	test   %eax,%eax
  403b70:	75 65                	jne    403bd7 <main+0x4f7>
  403b72:	31 f6                	xor    %esi,%esi
  403b74:	31 ff                	xor    %edi,%edi
  403b76:	e8 85 e9 ff ff       	callq  402500 <setgroups@plt>
  403b7b:	85 c0                	test   %eax,%eax
  403b7d:	be ad ee 40 00       	mov    $0x40eead,%esi
  403b82:	0f 88 27 02 00 00    	js     403daf <main+0x6cf>
  403b88:	44 89 ff             	mov    %r15d,%edi
  403b8b:	e8 50 ec ff ff       	callq  4027e0 <setgid@plt>
  403b90:	85 c0                	test   %eax,%eax
  403b92:	be bc ee 40 00       	mov    $0x40eebc,%esi
  403b97:	0f 88 12 02 00 00    	js     403daf <main+0x6cf>
  403b9d:	48 8b 3d d4 23 21 00 	mov    0x2123d4(%rip),%rdi        # 615f78 <user>
  403ba4:	44 89 fe             	mov    %r15d,%esi
  403ba7:	e8 84 ed ff ff       	callq  402930 <initgroups@plt>
  403bac:	85 c0                	test   %eax,%eax
  403bae:	0f 88 f8 06 00 00    	js     4042ac <main+0xbcc>
  403bb4:	8b 7c 24 04          	mov    0x4(%rsp),%edi
  403bb8:	e8 43 ed ff ff       	callq  402900 <setuid@plt>
  403bbd:	85 c0                	test   %eax,%eax
  403bbf:	be d8 ee 40 00       	mov    $0x40eed8,%esi
  403bc4:	0f 88 e5 01 00 00    	js     403daf <main+0x6cf>
  403bca:	83 3d 07 24 21 00 00 	cmpl   $0x0,0x212407(%rip)        # 615fd8 <do_chroot>
  403bd1:	0f 84 76 05 00 00    	je     40414d <main+0xa6d>
  403bd7:	48 63 2d 62 23 21 00 	movslq 0x212362(%rip),%rbp        # 615f40 <max_connects>
  403bde:	48 89 eb             	mov    %rbp,%rbx
  403be1:	48 69 ed 90 00 00 00 	imul   $0x90,%rbp,%rbp
  403be8:	48 89 ef             	mov    %rbp,%rdi
  403beb:	e8 b0 ea ff ff       	callq  4026a0 <malloc@plt>
  403bf0:	48 85 c0             	test   %rax,%rax
  403bf3:	48 89 05 4e 23 21 00 	mov    %rax,0x21234e(%rip)        # 615f48 <connects>
  403bfa:	0f 84 a2 06 00 00    	je     4042a2 <main+0xbc2>
  403c00:	31 c9                	xor    %ecx,%ecx
  403c02:	85 db                	test   %ebx,%ebx
  403c04:	48 89 c2             	mov    %rax,%rdx
  403c07:	7e 26                	jle    403c2f <main+0x54f>
  403c09:	0f 1f 80 00 00 00 00 	nopl   0x0(%rax)
  403c10:	83 c1 01             	add    $0x1,%ecx
  403c13:	c7 02 00 00 00 00    	movl   $0x0,(%rdx)
  403c19:	48 c7 42 08 00 00 00 	movq   $0x0,0x8(%rdx)
  403c20:	00 
  403c21:	89 4a 04             	mov    %ecx,0x4(%rdx)
  403c24:	48 81 c2 90 00 00 00 	add    $0x90,%rdx
  403c2b:	39 cb                	cmp    %ecx,%ebx
  403c2d:	75 e1                	jne    403c10 <main+0x530>
  403c2f:	c7 84 28 74 ff ff ff 	movl   $0xffffffff,-0x8c(%rax,%rbp,1)
  403c36:	ff ff ff ff 
  403c3a:	48 8b 05 ef 22 21 00 	mov    0x2122ef(%rip),%rax        # 615f30 <hs>
  403c41:	c7 05 f1 22 21 00 00 	movl   $0x0,0x2122f1(%rip)        # 615f3c <first_free_connect>
  403c48:	00 00 00 
  403c4b:	c7 05 ef 22 21 00 00 	movl   $0x0,0x2122ef(%rip)        # 615f44 <num_connects>
  403c52:	00 00 00 
  403c55:	c7 05 d9 22 21 00 00 	movl   $0x0,0x2122d9(%rip)        # 615f38 <httpd_conn_count>
  403c5c:	00 00 00 
  403c5f:	48 85 c0             	test   %rax,%rax
  403c62:	74 29                	je     403c8d <main+0x5ad>
  403c64:	8b 78 48             	mov    0x48(%rax),%edi
  403c67:	83 ff ff             	cmp    $0xffffffff,%edi
  403c6a:	74 10                	je     403c7c <main+0x59c>
  403c6c:	31 d2                	xor    %edx,%edx
  403c6e:	31 f6                	xor    %esi,%esi
  403c70:	e8 7b 30 00 00       	callq  406cf0 <fdwatch_add_fd>
  403c75:	48 8b 05 b4 22 21 00 	mov    0x2122b4(%rip),%rax        # 615f30 <hs>
  403c7c:	8b 78 4c             	mov    0x4c(%rax),%edi
  403c7f:	83 ff ff             	cmp    $0xffffffff,%edi
  403c82:	74 09                	je     403c8d <main+0x5ad>
  403c84:	31 d2                	xor    %edx,%edx
  403c86:	31 f6                	xor    %esi,%esi
  403c88:	e8 63 30 00 00       	callq  406cf0 <fdwatch_add_fd>
  403c8d:	48 8d 7c 24 20       	lea    0x20(%rsp),%rdi
  403c92:	e8 f9 9c 00 00       	callq  40d990 <tmr_prepare_timeval>
  403c97:	66 0f 1f 84 00 00 00 	nopw   0x0(%rax,%rax,1)
  403c9e:	00 00 
  403ca0:	8b 05 7a 22 21 00    	mov    0x21227a(%rip),%eax        # 615f20 <terminate>
  403ca6:	85 c0                	test   %eax,%eax
  403ca8:	74 0d                	je     403cb7 <main+0x5d7>
  403caa:	83 3d 93 22 21 00 00 	cmpl   $0x0,0x212293(%rip)        # 615f44 <num_connects>
  403cb1:	0f 8e 4a 05 00 00    	jle    404201 <main+0xb21>
  403cb7:	8b 05 6f 22 21 00    	mov    0x21226f(%rip),%eax        # 615f2c <got_hup>
  403cbd:	85 c0                	test   %eax,%eax
  403cbf:	0f 85 35 02 00 00    	jne    403efa <main+0x81a>
  403cc5:	48 8d 7c 24 20       	lea    0x20(%rsp),%rdi
  403cca:	e8 51 98 00 00       	callq  40d520 <tmr_mstimeout>
  403ccf:	48 89 c7             	mov    %rax,%rdi
  403cd2:	e8 e9 30 00 00       	callq  406dc0 <fdwatch>
  403cd7:	85 c0                	test   %eax,%eax
  403cd9:	89 c3                	mov    %eax,%ebx
  403cdb:	0f 88 50 01 00 00    	js     403e31 <main+0x751>
  403ce1:	48 8d 7c 24 20       	lea    0x20(%rsp),%rdi
  403ce6:	e8 a5 9c 00 00       	callq  40d990 <tmr_prepare_timeval>
  403ceb:	85 db                	test   %ebx,%ebx
  403ced:	0f 84 1b 02 00 00    	je     403f0e <main+0x82e>
  403cf3:	48 8b 05 36 22 21 00 	mov    0x212236(%rip),%rax        # 615f30 <hs>
  403cfa:	48 85 c0             	test   %rax,%rax
  403cfd:	74 39                	je     403d38 <main+0x658>
  403cff:	8b 78 4c             	mov    0x4c(%rax),%edi
  403d02:	83 ff ff             	cmp    $0xffffffff,%edi
  403d05:	74 19                	je     403d20 <main+0x640>
  403d07:	e8 e4 30 00 00       	callq  406df0 <fdwatch_check_fd>
  403d0c:	85 c0                	test   %eax,%eax
  403d0e:	0f 85 68 04 00 00    	jne    40417c <main+0xa9c>
  403d14:	48 8b 05 15 22 21 00 	mov    0x212215(%rip),%rax        # 615f30 <hs>
  403d1b:	48 85 c0             	test   %rax,%rax
  403d1e:	74 18                	je     403d38 <main+0x658>
  403d20:	8b 78 48             	mov    0x48(%rax),%edi
  403d23:	83 ff ff             	cmp    $0xffffffff,%edi
  403d26:	74 10                	je     403d38 <main+0x658>
  403d28:	e8 c3 30 00 00       	callq  406df0 <fdwatch_check_fd>
  403d2d:	85 c0                	test   %eax,%eax
  403d2f:	0f 85 68 04 00 00    	jne    40419d <main+0xabd>
  403d35:	0f 1f 00             	nopl   (%rax)
  403d38:	e8 03 31 00 00       	callq  406e40 <fdwatch_get_next_client_data>
  403d3d:	48 83 f8 ff          	cmp    $0xffffffffffffffff,%rax
  403d41:	48 89 c3             	mov    %rax,%rbx
  403d44:	0f 84 3f 01 00 00    	je     403e89 <main+0x7a9>
  403d4a:	48 85 db             	test   %rbx,%rbx
  403d4d:	74 e9                	je     403d38 <main+0x658>
  403d4f:	48 8b 43 08          	mov    0x8(%rbx),%rax
  403d53:	8b b8 c0 02 00 00    	mov    0x2c0(%rax),%edi
  403d59:	e8 92 30 00 00       	callq  406df0 <fdwatch_check_fd>
  403d5e:	85 c0                	test   %eax,%eax
  403d60:	0f 84 b9 00 00 00    	je     403e1f <main+0x73f>
  403d66:	8b 03                	mov    (%rbx),%eax
  403d68:	83 f8 02             	cmp    $0x2,%eax
  403d6b:	0f 84 06 01 00 00    	je     403e77 <main+0x797>
  403d71:	83 f8 04             	cmp    $0x4,%eax
  403d74:	0f 84 eb 00 00 00    	je     403e65 <main+0x785>
  403d7a:	83 f8 01             	cmp    $0x1,%eax
  403d7d:	75 b9                	jne    403d38 <main+0x658>
  403d7f:	48 8d 74 24 20       	lea    0x20(%rsp),%rsi
  403d84:	48 89 df             	mov    %rbx,%rdi
  403d87:	e8 64 22 00 00       	callq  405ff0 <handle_read>
  403d8c:	eb aa                	jmp    403d38 <main+0x658>
  403d8e:	c7 05 3c 22 21 00 01 	movl   $0x1,0x21223c(%rip)        # 615fd4 <no_log>
  403d95:	00 00 00 
  403d98:	45 31 f6             	xor    %r14d,%r14d
  403d9b:	e9 5c fa ff ff       	jmpq   4037fc <main+0x11c>
  403da0:	e8 9b e7 ff ff       	callq  402540 <setsid@plt>
  403da5:	e9 1d fb ff ff       	jmpq   4038c7 <main+0x1e7>
  403daa:	be 28 ea 40 00       	mov    $0x40ea28,%esi
  403daf:	bf 02 00 00 00       	mov    $0x2,%edi
  403db4:	31 c0                	xor    %eax,%eax
  403db6:	e8 35 e9 ff ff       	callq  4026f0 <syslog@plt>
  403dbb:	bf 01 00 00 00       	mov    $0x1,%edi
  403dc0:	e8 0b eb ff ff       	callq  4028d0 <exit@plt>
  403dc5:	48 8b 3d ac 21 21 00 	mov    0x2121ac(%rip),%rdi        # 615f78 <user>
  403dcc:	e8 0f e8 ff ff       	callq  4025e0 <getpwnam@plt>
  403dd1:	48 85 c0             	test   %rax,%rax
  403dd4:	0f 84 87 04 00 00    	je     404261 <main+0xb81>
  403dda:	8b 48 10             	mov    0x10(%rax),%ecx
  403ddd:	44 8b 78 14          	mov    0x14(%rax),%r15d
  403de1:	89 4c 24 04          	mov    %ecx,0x4(%rsp)
  403de5:	e9 d1 f9 ff ff       	jmpq   4037bb <main+0xdb>
  403dea:	be 81 ed 40 00       	mov    $0x40ed81,%esi
  403def:	bf 03 00 00 00       	mov    $0x3,%edi
  403df4:	31 c0                	xor    %eax,%eax
  403df6:	e8 f5 e8 ff ff       	callq  4026f0 <syslog@plt>
  403dfb:	48 8b 3d 0e 21 21 00 	mov    0x21210e(%rip),%rdi        # 615f10 <stderr@@GLIBC_2.2.5>
  403e02:	48 8b 15 ef 21 21 00 	mov    0x2121ef(%rip),%rdx        # 615ff8 <argv0>
  403e09:	be 70 e9 40 00       	mov    $0x40e970,%esi
  403e0e:	31 c0                	xor    %eax,%eax
  403e10:	e8 db e7 ff ff       	callq  4025f0 <fprintf@plt>
  403e15:	bf 01 00 00 00       	mov    $0x1,%edi
  403e1a:	e8 b1 ea ff ff       	callq  4028d0 <exit@plt>
  403e1f:	48 8d 74 24 20       	lea    0x20(%rsp),%rsi
  403e24:	48 89 df             	mov    %rbx,%rdi
  403e27:	e8 84 20 00 00       	callq  405eb0 <clear_connection>
  403e2c:	e9 07 ff ff ff       	jmpq   403d38 <main+0x658>
  403e31:	e8 ba e4 ff ff       	callq  4022f0 <__errno_location@plt>
  403e36:	8b 00                	mov    (%rax),%eax
  403e38:	83 f8 04             	cmp    $0x4,%eax
  403e3b:	0f 84 5f fe ff ff    	je     403ca0 <main+0x5c0>
  403e41:	83 f8 0b             	cmp    $0xb,%eax
  403e44:	0f 84 56 fe ff ff    	je     403ca0 <main+0x5c0>
  403e4a:	bf 03 00 00 00       	mov    $0x3,%edi
  403e4f:	be e4 ee 40 00       	mov    $0x40eee4,%esi
  403e54:	31 c0                	xor    %eax,%eax
  403e56:	e8 95 e8 ff ff       	callq  4026f0 <syslog@plt>
  403e5b:	bf 01 00 00 00       	mov    $0x1,%edi
  403e60:	e8 6b ea ff ff       	callq  4028d0 <exit@plt>
  403e65:	48 8d 74 24 20       	lea    0x20(%rsp),%rsi
  403e6a:	48 89 df             	mov    %rbx,%rdi
  403e6d:	e8 3e 28 00 00       	callq  4066b0 <handle_linger>
  403e72:	e9 c1 fe ff ff       	jmpq   403d38 <main+0x658>
  403e77:	48 8d 74 24 20       	lea    0x20(%rsp),%rsi
  403e7c:	48 89 df             	mov    %rbx,%rdi
  403e7f:	e8 dc 24 00 00       	callq  406360 <handle_send>
  403e84:	e9 af fe ff ff       	jmpq   403d38 <main+0x658>
  403e89:	48 8d 7c 24 20       	lea    0x20(%rsp),%rdi
  403e8e:	e8 9d 98 00 00       	callq  40d730 <tmr_run>
  403e93:	8b 05 8f 20 21 00    	mov    0x21208f(%rip),%eax        # 615f28 <got_usr1>
  403e99:	85 c0                	test   %eax,%eax
  403e9b:	0f 84 ff fd ff ff    	je     403ca0 <main+0x5c0>
  403ea1:	83 3d 78 20 21 00 00 	cmpl   $0x0,0x212078(%rip)        # 615f20 <terminate>
  403ea8:	0f 85 f2 fd ff ff    	jne    403ca0 <main+0x5c0>
  403eae:	48 8b 05 7b 20 21 00 	mov    0x21207b(%rip),%rax        # 615f30 <hs>
  403eb5:	c7 05 61 20 21 00 01 	movl   $0x1,0x212061(%rip)        # 615f20 <terminate>
  403ebc:	00 00 00 
  403ebf:	48 85 c0             	test   %rax,%rax
  403ec2:	0f 84 d8 fd ff ff    	je     403ca0 <main+0x5c0>
  403ec8:	8b 78 48             	mov    0x48(%rax),%edi
  403ecb:	83 ff ff             	cmp    $0xffffffff,%edi
  403ece:	74 0c                	je     403edc <main+0x7fc>
  403ed0:	e8 8b 2e 00 00       	callq  406d60 <fdwatch_del_fd>
  403ed5:	48 8b 05 54 20 21 00 	mov    0x212054(%rip),%rax        # 615f30 <hs>
  403edc:	8b 78 4c             	mov    0x4c(%rax),%edi
  403edf:	83 ff ff             	cmp    $0xffffffff,%edi
  403ee2:	74 05                	je     403ee9 <main+0x809>
  403ee4:	e8 77 2e 00 00       	callq  406d60 <fdwatch_del_fd>
  403ee9:	48 8b 3d 40 20 21 00 	mov    0x212040(%rip),%rdi        # 615f30 <hs>
  403ef0:	e8 5b 3b 00 00       	callq  407a50 <httpd_unlisten>
  403ef5:	e9 a6 fd ff ff       	jmpq   403ca0 <main+0x5c0>
  403efa:	e8 51 19 00 00       	callq  405850 <re_open_logfile>
  403eff:	c7 05 23 20 21 00 00 	movl   $0x0,0x212023(%rip)        # 615f2c <got_hup>
  403f06:	00 00 00 
  403f09:	e9 b7 fd ff ff       	jmpq   403cc5 <main+0x5e5>
  403f0e:	48 8d 7c 24 20       	lea    0x20(%rsp),%rdi
  403f13:	e8 18 98 00 00       	callq  40d730 <tmr_run>
  403f18:	e9 83 fd ff ff       	jmpq   403ca0 <main+0x5c0>
  403f1d:	48 89 df             	mov    %rbx,%rdi
  403f20:	e8 0b e4 ff ff       	callq  402330 <chroot@plt>
  403f25:	85 c0                	test   %eax,%eax
  403f27:	0f 88 0f 03 00 00    	js     40423c <main+0xb5c>
  403f2d:	4c 8b 2d 64 20 21 00 	mov    0x212064(%rip),%r13        # 615f98 <logfile>
  403f34:	4d 85 ed             	test   %r13,%r13
  403f37:	74 4d                	je     403f86 <main+0x8a6>
  403f39:	be 59 f6 40 00       	mov    $0x40f659,%esi
  403f3e:	4c 89 ef             	mov    %r13,%rdi
  403f41:	e8 8a e6 ff ff       	callq  4025d0 <strcmp@plt>
  403f46:	85 c0                	test   %eax,%eax
  403f48:	74 3c                	je     403f86 <main+0x8a6>
  403f4a:	31 c0                	xor    %eax,%eax
  403f4c:	48 83 c9 ff          	or     $0xffffffffffffffff,%rcx
  403f50:	48 89 df             	mov    %rbx,%rdi
  403f53:	f2 ae                	repnz scas %es:(%rdi),%al
  403f55:	48 89 de             	mov    %rbx,%rsi
  403f58:	4c 89 ef             	mov    %r13,%rdi
  403f5b:	48 f7 d1             	not    %rcx
  403f5e:	48 8d 51 ff          	lea    -0x1(%rcx),%rdx
  403f62:	48 89 4c 24 08       	mov    %rcx,0x8(%rsp)
  403f67:	e8 a4 e3 ff ff       	callq  402310 <strncmp@plt>
  403f6c:	85 c0                	test   %eax,%eax
  403f6e:	0f 85 a9 01 00 00    	jne    40411d <main+0xa3d>
  403f74:	48 8b 4c 24 08       	mov    0x8(%rsp),%rcx
  403f79:	4c 89 ef             	mov    %r13,%rdi
  403f7c:	49 8d 74 0d fe       	lea    -0x2(%r13,%rcx,1),%rsi
  403f81:	e8 9a e3 ff ff       	callq  402320 <strcpy@plt>
  403f86:	48 89 df             	mov    %rbx,%rdi
  403f89:	66 c7 84 24 30 01 00 	movw   $0x2f,0x130(%rsp)
  403f90:	00 2f 00 
  403f93:	e8 a8 e4 ff ff       	callq  402440 <chdir@plt>
  403f98:	85 c0                	test   %eax,%eax
  403f9a:	0f 89 90 f9 ff ff    	jns    403930 <main+0x250>
  403fa0:	be 17 ee 40 00       	mov    $0x40ee17,%esi
  403fa5:	bf 02 00 00 00       	mov    $0x2,%edi
  403faa:	31 c0                	xor    %eax,%eax
  403fac:	e8 3f e7 ff ff       	callq  4026f0 <syslog@plt>
  403fb1:	bf 29 ee 40 00       	mov    $0x40ee29,%edi
  403fb6:	e8 85 e8 ff ff       	callq  402840 <perror@plt>
  403fbb:	bf 01 00 00 00       	mov    $0x1,%edi
  403fc0:	e8 0b e9 ff ff       	callq  4028d0 <exit@plt>
  403fc5:	45 31 f6             	xor    %r14d,%r14d
  403fc8:	e9 2f f8 ff ff       	jmpq   4037fc <main+0x11c>
  403fcd:	48 89 df             	mov    %rbx,%rdi
  403fd0:	be 87 fb 40 00       	mov    $0x40fb87,%esi
  403fd5:	e8 56 e8 ff ff       	callq  402830 <fopen@plt>
  403fda:	48 8b 1d b7 1f 21 00 	mov    0x211fb7(%rip),%rbx        # 615f98 <logfile>
  403fe1:	49 89 c6             	mov    %rax,%r14
  403fe4:	be 80 01 00 00       	mov    $0x180,%esi
  403fe9:	48 89 df             	mov    %rbx,%rdi
  403fec:	e8 9f e7 ff ff       	callq  402790 <chmod@plt>
  403ff1:	4d 85 f6             	test   %r14,%r14
  403ff4:	0f 84 dd 01 00 00    	je     4041d7 <main+0xaf7>
  403ffa:	85 c0                	test   %eax,%eax
  403ffc:	0f 85 d5 01 00 00    	jne    4041d7 <main+0xaf7>
  404002:	80 3b 2f             	cmpb   $0x2f,(%rbx)
  404005:	74 2b                	je     404032 <main+0x952>
  404007:	be 98 e9 40 00       	mov    $0x40e998,%esi
  40400c:	bf 04 00 00 00       	mov    $0x4,%edi
  404011:	31 c0                	xor    %eax,%eax
  404013:	e8 d8 e6 ff ff       	callq  4026f0 <syslog@plt>
  404018:	48 8b 15 d9 1f 21 00 	mov    0x211fd9(%rip),%rdx        # 615ff8 <argv0>
  40401f:	48 8b 3d ea 1e 21 00 	mov    0x211eea(%rip),%rdi        # 615f10 <stderr@@GLIBC_2.2.5>
  404026:	be e0 e9 40 00       	mov    $0x40e9e0,%esi
  40402b:	31 c0                	xor    %eax,%eax
  40402d:	e8 be e5 ff ff       	callq  4025f0 <fprintf@plt>
  404032:	4c 89 f7             	mov    %r14,%rdi
  404035:	e8 16 e6 ff ff       	callq  402650 <fileno@plt>
  40403a:	ba 01 00 00 00       	mov    $0x1,%edx
  40403f:	89 c7                	mov    %eax,%edi
  404041:	be 02 00 00 00       	mov    $0x2,%esi
  404046:	31 c0                	xor    %eax,%eax
  404048:	e8 63 e3 ff ff       	callq  4023b0 <fcntl@plt>
  40404d:	e8 fe e3 ff ff       	callq  402450 <getuid@plt>
  404052:	85 c0                	test   %eax,%eax
  404054:	0f 85 a2 f7 ff ff    	jne    4037fc <main+0x11c>
  40405a:	4c 89 f7             	mov    %r14,%rdi
  40405d:	e8 ee e5 ff ff       	callq  402650 <fileno@plt>
  404062:	8b 74 24 04          	mov    0x4(%rsp),%esi
  404066:	44 89 fa             	mov    %r15d,%edx
  404069:	89 c7                	mov    %eax,%edi
  40406b:	e8 b0 e7 ff ff       	callq  402820 <fchown@plt>
  404070:	85 c0                	test   %eax,%eax
  404072:	0f 89 84 f7 ff ff    	jns    4037fc <main+0x11c>
  404078:	be d8 ed 40 00       	mov    $0x40edd8,%esi
  40407d:	bf 04 00 00 00       	mov    $0x4,%edi
  404082:	31 c0                	xor    %eax,%eax
  404084:	e8 67 e6 ff ff       	callq  4026f0 <syslog@plt>
  404089:	bf ec ed 40 00       	mov    $0x40edec,%edi
  40408e:	e8 ad e7 ff ff       	callq  402840 <perror@plt>
  404093:	e9 64 f7 ff ff       	jmpq   4037fc <main+0x11c>
  404098:	be 3f ee 40 00       	mov    $0x40ee3f,%esi
  40409d:	bf 02 00 00 00       	mov    $0x2,%edi
  4040a2:	31 c0                	xor    %eax,%eax
  4040a4:	e8 47 e6 ff ff       	callq  4026f0 <syslog@plt>
  4040a9:	bf 53 ee 40 00       	mov    $0x40ee53,%edi
  4040ae:	e8 8d e7 ff ff       	callq  402840 <perror@plt>
  4040b3:	bf 01 00 00 00       	mov    $0x1,%edi
  4040b8:	e8 13 e8 ff ff       	callq  4028d0 <exit@plt>
  4040bd:	48 8b 15 bc 1e 21 00 	mov    0x211ebc(%rip),%rdx        # 615f80 <pidfile>
  4040c4:	bf 02 00 00 00       	mov    $0x2,%edi
  4040c9:	be 11 f2 40 00       	mov    $0x40f211,%esi
  4040ce:	31 c0                	xor    %eax,%eax
  4040d0:	e8 1b e6 ff ff       	callq  4026f0 <syslog@plt>
  4040d5:	bf 01 00 00 00       	mov    $0x1,%edi
  4040da:	e8 f1 e7 ff ff       	callq  4028d0 <exit@plt>
  4040df:	bf 02 00 00 00       	mov    $0x2,%edi
  4040e4:	be 59 ee 40 00       	mov    $0x40ee59,%esi
  4040e9:	e8 02 e6 ff ff       	callq  4026f0 <syslog@plt>
  4040ee:	bf 01 00 00 00       	mov    $0x1,%edi
  4040f3:	e8 d8 e7 ff ff       	callq  4028d0 <exit@plt>
  4040f8:	be 36 ee 40 00       	mov    $0x40ee36,%esi
  4040fd:	bf 02 00 00 00       	mov    $0x2,%edi
  404102:	31 c0                	xor    %eax,%eax
  404104:	e8 e7 e5 ff ff       	callq  4026f0 <syslog@plt>
  404109:	bf 4a ee 40 00       	mov    $0x40ee4a,%edi
  40410e:	e8 2d e7 ff ff       	callq  402840 <perror@plt>
  404113:	bf 01 00 00 00       	mov    $0x1,%edi
  404118:	e8 b3 e7 ff ff       	callq  4028d0 <exit@plt>
  40411d:	31 c0                	xor    %eax,%eax
  40411f:	be 48 ea 40 00       	mov    $0x40ea48,%esi
  404124:	bf 04 00 00 00       	mov    $0x4,%edi
  404129:	e8 c2 e5 ff ff       	callq  4026f0 <syslog@plt>
  40412e:	48 8b 15 c3 1e 21 00 	mov    0x211ec3(%rip),%rdx        # 615ff8 <argv0>
  404135:	48 8b 3d d4 1d 21 00 	mov    0x211dd4(%rip),%rdi        # 615f10 <stderr@@GLIBC_2.2.5>
  40413c:	be 98 ea 40 00       	mov    $0x40ea98,%esi
  404141:	31 c0                	xor    %eax,%eax
  404143:	e8 a8 e4 ff ff       	callq  4025f0 <fprintf@plt>
  404148:	e9 39 fe ff ff       	jmpq   403f86 <main+0x8a6>
  40414d:	be 10 eb 40 00       	mov    $0x40eb10,%esi
  404152:	bf 04 00 00 00       	mov    $0x4,%edi
  404157:	31 c0                	xor    %eax,%eax
  404159:	e8 92 e5 ff ff       	callq  4026f0 <syslog@plt>
  40415e:	e9 74 fa ff ff       	jmpq   403bd7 <main+0x4f7>
  404163:	bf 02 00 00 00       	mov    $0x2,%edi
  404168:	be e8 ea 40 00       	mov    $0x40eae8,%esi
  40416d:	e8 7e e5 ff ff       	callq  4026f0 <syslog@plt>
  404172:	bf 01 00 00 00       	mov    $0x1,%edi
  404177:	e8 54 e7 ff ff       	callq  4028d0 <exit@plt>
  40417c:	48 8b 05 ad 1d 21 00 	mov    0x211dad(%rip),%rax        # 615f30 <hs>
  404183:	48 8d 7c 24 20       	lea    0x20(%rsp),%rdi
  404188:	8b 70 4c             	mov    0x4c(%rax),%esi
  40418b:	e8 90 17 00 00       	callq  405920 <handle_newconnect>
  404190:	85 c0                	test   %eax,%eax
  404192:	0f 85 08 fb ff ff    	jne    403ca0 <main+0x5c0>
  404198:	e9 77 fb ff ff       	jmpq   403d14 <main+0x634>
  40419d:	48 8b 05 8c 1d 21 00 	mov    0x211d8c(%rip),%rax        # 615f30 <hs>
  4041a4:	48 8d 7c 24 20       	lea    0x20(%rsp),%rdi
  4041a9:	8b 70 48             	mov    0x48(%rax),%esi
  4041ac:	e8 6f 17 00 00       	callq  405920 <handle_newconnect>
  4041b1:	85 c0                	test   %eax,%eax
  4041b3:	0f 85 e7 fa ff ff    	jne    403ca0 <main+0x5c0>
  4041b9:	e9 7a fb ff ff       	jmpq   403d38 <main+0x658>
  4041be:	bf 02 00 00 00       	mov    $0x2,%edi
  4041c3:	be 8f ee 40 00       	mov    $0x40ee8f,%esi
  4041c8:	e8 23 e5 ff ff       	callq  4026f0 <syslog@plt>
  4041cd:	bf 01 00 00 00       	mov    $0x1,%edi
  4041d2:	e8 f9 e6 ff ff       	callq  4028d0 <exit@plt>
  4041d7:	48 89 da             	mov    %rbx,%rdx
  4041da:	be 11 f2 40 00       	mov    $0x40f211,%esi
  4041df:	bf 02 00 00 00       	mov    $0x2,%edi
  4041e4:	31 c0                	xor    %eax,%eax
  4041e6:	e8 05 e5 ff ff       	callq  4026f0 <syslog@plt>
  4041eb:	48 8b 3d a6 1d 21 00 	mov    0x211da6(%rip),%rdi        # 615f98 <logfile>
  4041f2:	e8 49 e6 ff ff       	callq  402840 <perror@plt>
  4041f7:	bf 01 00 00 00       	mov    $0x1,%edi
  4041fc:	e8 cf e6 ff ff       	callq  4028d0 <exit@plt>
  404201:	e8 4a 1a 00 00       	callq  405c50 <shut_down>
  404206:	bf 05 00 00 00       	mov    $0x5,%edi
  40420b:	be 14 ed 40 00       	mov    $0x40ed14,%esi
  404210:	31 c0                	xor    %eax,%eax
  404212:	e8 d9 e4 ff ff       	callq  4026f0 <syslog@plt>
  404217:	e8 a4 e0 ff ff       	callq  4022c0 <closelog@plt>
  40421c:	31 ff                	xor    %edi,%edi
  40421e:	e8 ad e6 ff ff       	callq  4028d0 <exit@plt>
  404223:	bf 02 00 00 00       	mov    $0x2,%edi
  404228:	be 77 ee 40 00       	mov    $0x40ee77,%esi
  40422d:	e8 be e4 ff ff       	callq  4026f0 <syslog@plt>
  404232:	bf 01 00 00 00       	mov    $0x1,%edi
  404237:	e8 94 e6 ff ff       	callq  4028d0 <exit@plt>
  40423c:	be 0b ee 40 00       	mov    $0x40ee0b,%esi
  404241:	bf 02 00 00 00       	mov    $0x2,%edi
  404246:	31 c0                	xor    %eax,%eax
  404248:	e8 a3 e4 ff ff       	callq  4026f0 <syslog@plt>
  40424d:	bf 9d eb 40 00       	mov    $0x40eb9d,%edi
  404252:	e8 e9 e5 ff ff       	callq  402840 <perror@plt>
  404257:	bf 01 00 00 00       	mov    $0x1,%edi
  40425c:	e8 6f e6 ff ff       	callq  4028d0 <exit@plt>
  404261:	48 8b 15 10 1d 21 00 	mov    0x211d10(%rip),%rdx        # 615f78 <user>
  404268:	be 9e ed 40 00       	mov    $0x40ed9e,%esi
  40426d:	bf 02 00 00 00       	mov    $0x2,%edi
  404272:	e8 79 e4 ff ff       	callq  4026f0 <syslog@plt>
  404277:	48 8b 3d 92 1c 21 00 	mov    0x211c92(%rip),%rdi        # 615f10 <stderr@@GLIBC_2.2.5>
  40427e:	48 8b 0d f3 1c 21 00 	mov    0x211cf3(%rip),%rcx        # 615f78 <user>
  404285:	be b5 ed 40 00       	mov    $0x40edb5,%esi
  40428a:	48 8b 15 67 1d 21 00 	mov    0x211d67(%rip),%rdx        # 615ff8 <argv0>
  404291:	31 c0                	xor    %eax,%eax
  404293:	e8 58 e3 ff ff       	callq  4025f0 <fprintf@plt>
  404298:	bf 01 00 00 00       	mov    $0x1,%edi
  40429d:	e8 2e e6 ff ff       	callq  4028d0 <exit@plt>
  4042a2:	be 50 eb 40 00       	mov    $0x40eb50,%esi
  4042a7:	e9 03 fb ff ff       	jmpq   403daf <main+0x6cf>
  4042ac:	be c8 ee 40 00       	mov    $0x40eec8,%esi
  4042b1:	bf 04 00 00 00       	mov    $0x4,%edi
  4042b6:	31 c0                	xor    %eax,%eax
  4042b8:	e8 33 e4 ff ff       	callq  4026f0 <syslog@plt>
  4042bd:	e9 f2 f8 ff ff       	jmpq   403bb4 <main+0x4d4>

00000000004042c2 <_start>:
  4042c2:	31 ed                	xor    %ebp,%ebp
  4042c4:	49 89 d1             	mov    %rdx,%r9
  4042c7:	5e                   	pop    %rsi
  4042c8:	48 89 e2             	mov    %rsp,%rdx
  4042cb:	48 83 e4 f0          	and    $0xfffffffffffffff0,%rsp
  4042cf:	50                   	push   %rax
  4042d0:	54                   	push   %rsp
  4042d1:	49 c7 c0 e0 e3 40 00 	mov    $0x40e3e0,%r8
  4042d8:	48 c7 c1 70 e3 40 00 	mov    $0x40e370,%rcx
  4042df:	48 c7 c7 e0 36 40 00 	mov    $0x4036e0,%rdi
  4042e6:	e8 a5 e2 ff ff       	callq  402590 <__libc_start_main@plt>
  4042eb:	f4                   	hlt    
  4042ec:	0f 1f 40 00          	nopl   0x0(%rax)

00000000004042f0 <deregister_tm_clones>:
  4042f0:	b8 07 5f 61 00       	mov    $0x615f07,%eax
  4042f5:	55                   	push   %rbp
  4042f6:	48 2d 00 5f 61 00    	sub    $0x615f00,%rax
  4042fc:	48 83 f8 0e          	cmp    $0xe,%rax
  404300:	48 89 e5             	mov    %rsp,%rbp
  404303:	76 1b                	jbe    404320 <deregister_tm_clones+0x30>
  404305:	b8 00 00 00 00       	mov    $0x0,%eax
  40430a:	48 85 c0             	test   %rax,%rax
  40430d:	74 11                	je     404320 <deregister_tm_clones+0x30>
  40430f:	5d                   	pop    %rbp
  404310:	bf 00 5f 61 00       	mov    $0x615f00,%edi
  404315:	ff e0                	jmpq   *%rax
  404317:	66 0f 1f 84 00 00 00 	nopw   0x0(%rax,%rax,1)
  40431e:	00 00 
  404320:	5d                   	pop    %rbp
  404321:	c3                   	retq   
  404322:	0f 1f 40 00          	nopl   0x0(%rax)
  404326:	66 2e 0f 1f 84 00 00 	nopw   %cs:0x0(%rax,%rax,1)
  40432d:	00 00 00 

0000000000404330 <register_tm_clones>:
  404330:	be 00 5f 61 00       	mov    $0x615f00,%esi
  404335:	55                   	push   %rbp
  404336:	48 81 ee 00 5f 61 00 	sub    $0x615f00,%rsi
  40433d:	48 c1 fe 03          	sar    $0x3,%rsi
  404341:	48 89 e5             	mov    %rsp,%rbp
  404344:	48 89 f0             	mov    %rsi,%rax
  404347:	48 c1 e8 3f          	shr    $0x3f,%rax
  40434b:	48 01 c6             	add    %rax,%rsi
  40434e:	48 d1 fe             	sar    %rsi
  404351:	74 15                	je     404368 <register_tm_clones+0x38>
  404353:	b8 00 00 00 00       	mov    $0x0,%eax
  404358:	48 85 c0             	test   %rax,%rax
  40435b:	74 0b                	je     404368 <register_tm_clones+0x38>
  40435d:	5d                   	pop    %rbp
  40435e:	bf 00 5f 61 00       	mov    $0x615f00,%edi
  404363:	ff e0                	jmpq   *%rax
  404365:	0f 1f 00             	nopl   (%rax)
  404368:	5d                   	pop    %rbp
  404369:	c3                   	retq   
  40436a:	66 0f 1f 44 00 00    	nopw   0x0(%rax,%rax,1)

0000000000404370 <__do_global_dtors_aux>:
  404370:	80 3d a1 1b 21 00 00 	cmpb   $0x0,0x211ba1(%rip)        # 615f18 <completed.6898>
  404377:	75 11                	jne    40438a <__do_global_dtors_aux+0x1a>
  404379:	55                   	push   %rbp
  40437a:	48 89 e5             	mov    %rsp,%rbp
  40437d:	e8 6e ff ff ff       	callq  4042f0 <deregister_tm_clones>
  404382:	5d                   	pop    %rbp
  404383:	c6 05 8e 1b 21 00 01 	movb   $0x1,0x211b8e(%rip)        # 615f18 <completed.6898>
  40438a:	f3 c3                	repz retq 
  40438c:	0f 1f 40 00          	nopl   0x0(%rax)

0000000000404390 <frame_dummy>:
  404390:	bf f0 3d 61 00       	mov    $0x613df0,%edi
  404395:	48 83 3f 00          	cmpq   $0x0,(%rdi)
  404399:	75 05                	jne    4043a0 <frame_dummy+0x10>
  40439b:	eb 93                	jmp    404330 <register_tm_clones>
  40439d:	0f 1f 00             	nopl   (%rax)
  4043a0:	b8 00 00 00 00       	mov    $0x0,%eax
  4043a5:	48 85 c0             	test   %rax,%rax
  4043a8:	74 f1                	je     40439b <frame_dummy+0xb>
  4043aa:	55                   	push   %rbp
  4043ab:	48 89 e5             	mov    %rsp,%rbp
  4043ae:	ff d0                	callq  *%rax
  4043b0:	5d                   	pop    %rbp
  4043b1:	e9 7a ff ff ff       	jmpq   404330 <register_tm_clones>
  4043b6:	66 2e 0f 1f 84 00 00 	nopw   %cs:0x0(%rax,%rax,1)
  4043bd:	00 00 00 

00000000004043c0 <handle_hup>:
  4043c0:	c7 05 62 1b 21 00 01 	movl   $0x1,0x211b62(%rip)        # 615f2c <got_hup>
  4043c7:	00 00 00 
  4043ca:	c3                   	retq   
  4043cb:	0f 1f 44 00 00       	nopl   0x0(%rax,%rax,1)

00000000004043d0 <thttpd_logstats>:
  4043d0:	48 83 ec 08          	sub    $0x8,%rsp
  4043d4:	48 85 ff             	test   %rdi,%rdi
  4043d7:	7e 5a                	jle    404433 <thttpd_logstats+0x63>
  4043d9:	4c 8b 05 e0 23 21 00 	mov    0x2123e0(%rip),%r8        # 6167c0 <stats_bytes>
  4043e0:	66 0f ef d2          	pxor   %xmm2,%xmm2
  4043e4:	48 8b 15 f5 23 21 00 	mov    0x2123f5(%rip),%rdx        # 6167e0 <stats_connections>
  4043eb:	66 0f ef c9          	pxor   %xmm1,%xmm1
  4043ef:	66 0f ef c0          	pxor   %xmm0,%xmm0
  4043f3:	44 8b 0d 3e 1b 21 00 	mov    0x211b3e(%rip),%r9d        # 615f38 <httpd_conn_count>
  4043fa:	f3 48 0f 2a d7       	cvtsi2ss %rdi,%xmm2
  4043ff:	8b 0d c3 23 21 00    	mov    0x2123c3(%rip),%ecx        # 6167c8 <stats_simultaneous>
  404405:	be 28 e4 40 00       	mov    $0x40e428,%esi
  40440a:	bf 06 00 00 00       	mov    $0x6,%edi
  40440f:	f3 49 0f 2a c8       	cvtsi2ss %r8,%xmm1
  404414:	b8 02 00 00 00       	mov    $0x2,%eax
  404419:	f3 48 0f 2a c2       	cvtsi2ss %rdx,%xmm0
  40441e:	f3 0f 5e ca          	divss  %xmm2,%xmm1
  404422:	f3 0f 5e c2          	divss  %xmm2,%xmm0
  404426:	f3 0f 5a c9          	cvtss2sd %xmm1,%xmm1
  40442a:	f3 0f 5a c0          	cvtss2sd %xmm0,%xmm0
  40442e:	e8 bd e2 ff ff       	callq  4026f0 <syslog@plt>
  404433:	48 c7 05 a2 23 21 00 	movq   $0x0,0x2123a2(%rip)        # 6167e0 <stats_connections>
  40443a:	00 00 00 00 
  40443e:	48 c7 05 77 23 21 00 	movq   $0x0,0x212377(%rip)        # 6167c0 <stats_bytes>
  404445:	00 00 00 00 
  404449:	c7 05 75 23 21 00 00 	movl   $0x0,0x212375(%rip)        # 6167c8 <stats_simultaneous>
  404450:	00 00 00 
  404453:	48 83 c4 08          	add    $0x8,%rsp
  404457:	c3                   	retq   
  404458:	0f 1f 84 00 00 00 00 	nopl   0x0(%rax,%rax,1)
  40445f:	00 

0000000000404460 <update_throttles>:
  404460:	44 8b 05 ed 1a 21 00 	mov    0x211aed(%rip),%r8d        # 615f54 <numthrottles>
  404467:	41 54                	push   %r12
  404469:	49 bc 56 55 55 55 55 	movabs $0x5555555555555556,%r12
  404470:	55 55 55 
  404473:	55                   	push   %rbp
  404474:	31 ed                	xor    %ebp,%ebp
  404476:	53                   	push   %rbx
  404477:	31 db                	xor    %ebx,%ebx
  404479:	45 85 c0             	test   %r8d,%r8d
  40447c:	7f 75                	jg     4044f3 <update_throttles+0x93>
  40447e:	e9 ed 00 00 00       	jmpq   404570 <update_throttles+0x110>
  404483:	0f 1f 44 00 00       	nopl   0x0(%rax,%rax,1)
  404488:	48 83 ec 08          	sub    $0x8,%rsp
  40448c:	48 8b 09             	mov    (%rcx),%rcx
  40448f:	89 da                	mov    %ebx,%edx
  404491:	50                   	push   %rax
  404492:	be 90 e4 40 00       	mov    $0x40e490,%esi
  404497:	bf 05 00 00 00       	mov    $0x5,%edi
  40449c:	31 c0                	xor    %eax,%eax
  40449e:	e8 4d e2 ff ff       	callq  4026f0 <syslog@plt>
  4044a3:	48 89 e9             	mov    %rbp,%rcx
  4044a6:	48 03 0d ab 1a 21 00 	add    0x211aab(%rip),%rcx        # 615f58 <throttles>
  4044ad:	5e                   	pop    %rsi
  4044ae:	5f                   	pop    %rdi
  4044af:	4c 8b 41 18          	mov    0x18(%rcx),%r8
  4044b3:	4c 8b 49 10          	mov    0x10(%rcx),%r9
  4044b7:	4d 39 c1             	cmp    %r8,%r9
  4044ba:	7e 24                	jle    4044e0 <update_throttles+0x80>
  4044bc:	8b 41 28             	mov    0x28(%rcx),%eax
  4044bf:	85 c0                	test   %eax,%eax
  4044c1:	74 1d                	je     4044e0 <update_throttles+0x80>
  4044c3:	48 83 ec 08          	sub    $0x8,%rsp
  4044c7:	48 8b 09             	mov    (%rcx),%rcx
  4044ca:	89 da                	mov    %ebx,%edx
  4044cc:	50                   	push   %rax
  4044cd:	be 18 e5 40 00       	mov    $0x40e518,%esi
  4044d2:	31 c0                	xor    %eax,%eax
  4044d4:	bf 05 00 00 00       	mov    $0x5,%edi
  4044d9:	e8 12 e2 ff ff       	callq  4026f0 <syslog@plt>
  4044de:	58                   	pop    %rax
  4044df:	5a                   	pop    %rdx
  4044e0:	83 c3 01             	add    $0x1,%ebx
  4044e3:	48 83 c5 30          	add    $0x30,%rbp
  4044e7:	39 1d 67 1a 21 00    	cmp    %ebx,0x211a67(%rip)        # 615f54 <numthrottles>
  4044ed:	0f 8e 7d 00 00 00    	jle    404570 <update_throttles+0x110>
  4044f3:	48 89 e9             	mov    %rbp,%rcx
  4044f6:	48 03 0d 5b 1a 21 00 	add    0x211a5b(%rip),%rcx        # 615f58 <throttles>
  4044fd:	48 8b 51 20          	mov    0x20(%rcx),%rdx
  404501:	48 8b 71 18          	mov    0x18(%rcx),%rsi
  404505:	4c 8b 49 08          	mov    0x8(%rcx),%r9
  404509:	48 c7 41 20 00 00 00 	movq   $0x0,0x20(%rcx)
  404510:	00 
  404511:	48 89 d0             	mov    %rdx,%rax
  404514:	48 c1 e8 3f          	shr    $0x3f,%rax
  404518:	48 01 d0             	add    %rdx,%rax
  40451b:	48 d1 f8             	sar    %rax
  40451e:	48 8d 34 70          	lea    (%rax,%rsi,2),%rsi
  404522:	48 89 f0             	mov    %rsi,%rax
  404525:	48 c1 fe 3f          	sar    $0x3f,%rsi
  404529:	49 f7 ec             	imul   %r12
  40452c:	48 29 f2             	sub    %rsi,%rdx
  40452f:	4c 39 ca             	cmp    %r9,%rdx
  404532:	49 89 d0             	mov    %rdx,%r8
  404535:	48 89 51 18          	mov    %rdx,0x18(%rcx)
  404539:	0f 8e 74 ff ff ff    	jle    4044b3 <update_throttles+0x53>
  40453f:	8b 41 28             	mov    0x28(%rcx),%eax
  404542:	85 c0                	test   %eax,%eax
  404544:	74 9a                	je     4044e0 <update_throttles+0x80>
  404546:	4b 8d 14 09          	lea    (%r9,%r9,1),%rdx
  40454a:	49 39 d0             	cmp    %rdx,%r8
  40454d:	0f 8f 35 ff ff ff    	jg     404488 <update_throttles+0x28>
  404553:	48 83 ec 08          	sub    $0x8,%rsp
  404557:	48 8b 09             	mov    (%rcx),%rcx
  40455a:	89 da                	mov    %ebx,%edx
  40455c:	50                   	push   %rax
  40455d:	be d8 e4 40 00       	mov    $0x40e4d8,%esi
  404562:	bf 06 00 00 00       	mov    $0x6,%edi
  404567:	e9 30 ff ff ff       	jmpq   40449c <update_throttles+0x3c>
  40456c:	0f 1f 40 00          	nopl   0x0(%rax)
  404570:	8b 05 ca 19 21 00    	mov    0x2119ca(%rip),%eax        # 615f40 <max_connects>
  404576:	85 c0                	test   %eax,%eax
  404578:	0f 8e a7 00 00 00    	jle    404625 <update_throttles+0x1c5>
  40457e:	83 e8 01             	sub    $0x1,%eax
  404581:	48 8b 35 c0 19 21 00 	mov    0x2119c0(%rip),%rsi        # 615f48 <connects>
  404588:	4c 8b 0d c9 19 21 00 	mov    0x2119c9(%rip),%r9        # 615f58 <throttles>
  40458f:	4c 8d 54 c0 09       	lea    0x9(%rax,%rax,8),%r10
  404594:	49 c7 c3 ff ff ff ff 	mov    $0xffffffffffffffff,%r11
  40459b:	49 c1 e2 04          	shl    $0x4,%r10
  40459f:	49 01 f2             	add    %rsi,%r10
  4045a2:	eb 10                	jmp    4045b4 <update_throttles+0x154>
  4045a4:	0f 1f 40 00          	nopl   0x0(%rax)
  4045a8:	48 81 c6 90 00 00 00 	add    $0x90,%rsi
  4045af:	49 39 f2             	cmp    %rsi,%r10
  4045b2:	74 71                	je     404625 <update_throttles+0x1c5>
  4045b4:	8b 06                	mov    (%rsi),%eax
  4045b6:	83 e8 02             	sub    $0x2,%eax
  4045b9:	83 f8 01             	cmp    $0x1,%eax
  4045bc:	77 ea                	ja     4045a8 <update_throttles+0x148>
  4045be:	8b 46 38             	mov    0x38(%rsi),%eax
  4045c1:	4c 89 5e 40          	mov    %r11,0x40(%rsi)
  4045c5:	85 c0                	test   %eax,%eax
  4045c7:	7e df                	jle    4045a8 <update_throttles+0x148>
  4045c9:	83 e8 01             	sub    $0x1,%eax
  4045cc:	48 8d 4e 10          	lea    0x10(%rsi),%rcx
  4045d0:	4c 89 df             	mov    %r11,%rdi
  4045d3:	4c 8d 44 86 14       	lea    0x14(%rsi,%rax,4),%r8
  4045d8:	eb 0a                	jmp    4045e4 <update_throttles+0x184>
  4045da:	66 0f 1f 44 00 00    	nopw   0x0(%rax,%rax,1)
  4045e0:	48 8b 7e 40          	mov    0x40(%rsi),%rdi
  4045e4:	48 63 01             	movslq (%rcx),%rax
  4045e7:	48 8d 04 40          	lea    (%rax,%rax,2),%rax
  4045eb:	48 c1 e0 04          	shl    $0x4,%rax
  4045ef:	4c 01 c8             	add    %r9,%rax
  4045f2:	48 63 58 28          	movslq 0x28(%rax),%rbx
  4045f6:	48 8b 40 08          	mov    0x8(%rax),%rax
  4045fa:	48 99                	cqto   
  4045fc:	48 f7 fb             	idiv   %rbx
  4045ff:	48 83 ff ff          	cmp    $0xffffffffffffffff,%rdi
  404603:	74 07                	je     40460c <update_throttles+0x1ac>
  404605:	48 39 f8             	cmp    %rdi,%rax
  404608:	48 0f 4f c7          	cmovg  %rdi,%rax
  40460c:	48 83 c1 04          	add    $0x4,%rcx
  404610:	48 89 46 40          	mov    %rax,0x40(%rsi)
  404614:	4c 39 c1             	cmp    %r8,%rcx
  404617:	75 c7                	jne    4045e0 <update_throttles+0x180>
  404619:	48 81 c6 90 00 00 00 	add    $0x90,%rsi
  404620:	49 39 f2             	cmp    %rsi,%r10
  404623:	75 8f                	jne    4045b4 <update_throttles+0x154>
  404625:	5b                   	pop    %rbx
  404626:	5d                   	pop    %rbp
  404627:	41 5c                	pop    %r12
  404629:	c3                   	retq   
  40462a:	66 0f 1f 44 00 00    	nopw   0x0(%rax,%rax,1)

0000000000404630 <no_value_required>:
  404630:	48 85 f6             	test   %rsi,%rsi
  404633:	75 02                	jne    404637 <no_value_required+0x7>
  404635:	f3 c3                	repz retq 
  404637:	48 83 ec 08          	sub    $0x8,%rsp
  40463b:	48 89 f9             	mov    %rdi,%rcx
  40463e:	48 8b 15 b3 19 21 00 	mov    0x2119b3(%rip),%rdx        # 615ff8 <argv0>
  404645:	48 8b 3d c4 18 21 00 	mov    0x2118c4(%rip),%rdi        # 615f10 <stderr@@GLIBC_2.2.5>
  40464c:	be 60 e5 40 00       	mov    $0x40e560,%esi
  404651:	31 c0                	xor    %eax,%eax
  404653:	e8 98 df ff ff       	callq  4025f0 <fprintf@plt>
  404658:	bf 01 00 00 00       	mov    $0x1,%edi
  40465d:	e8 6e e2 ff ff       	callq  4028d0 <exit@plt>
  404662:	0f 1f 40 00          	nopl   0x0(%rax)
  404666:	66 2e 0f 1f 84 00 00 	nopw   %cs:0x0(%rax,%rax,1)
  40466d:	00 00 00 

0000000000404670 <value_required>:
  404670:	48 85 f6             	test   %rsi,%rsi
  404673:	74 02                	je     404677 <value_required+0x7>
  404675:	f3 c3                	repz retq 
  404677:	48 83 ec 08          	sub    $0x8,%rsp
  40467b:	48 89 f9             	mov    %rdi,%rcx
  40467e:	48 8b 15 73 19 21 00 	mov    0x211973(%rip),%rdx        # 615ff8 <argv0>
  404685:	48 8b 3d 84 18 21 00 	mov    0x211884(%rip),%rdi        # 615f10 <stderr@@GLIBC_2.2.5>
  40468c:	be 88 e5 40 00       	mov    $0x40e588,%esi
  404691:	31 c0                	xor    %eax,%eax
  404693:	e8 58 df ff ff       	callq  4025f0 <fprintf@plt>
  404698:	bf 01 00 00 00       	mov    $0x1,%edi
  40469d:	e8 2e e2 ff ff       	callq  4028d0 <exit@plt>
  4046a2:	0f 1f 40 00          	nopl   0x0(%rax)
  4046a6:	66 2e 0f 1f 84 00 00 	nopw   %cs:0x0(%rax,%rax,1)
  4046ad:	00 00 00 

00000000004046b0 <wakeup_connection>:
  4046b0:	83 3f 03             	cmpl   $0x3,(%rdi)
  4046b3:	48 c7 47 60 00 00 00 	movq   $0x0,0x60(%rdi)
  4046ba:	00 
  4046bb:	74 03                	je     4046c0 <wakeup_connection+0x10>
  4046bd:	f3 c3                	repz retq 
  4046bf:	90                   	nop
  4046c0:	48 8b 47 08          	mov    0x8(%rdi),%rax
  4046c4:	c7 07 02 00 00 00    	movl   $0x2,(%rdi)
  4046ca:	48 89 fe             	mov    %rdi,%rsi
  4046cd:	ba 01 00 00 00       	mov    $0x1,%edx
  4046d2:	8b 80 c0 02 00 00    	mov    0x2c0(%rax),%eax
  4046d8:	89 c7                	mov    %eax,%edi
  4046da:	e9 11 26 00 00       	jmpq   406cf0 <fdwatch_add_fd>
  4046df:	90                   	nop

00000000004046e0 <logstats>:
  4046e0:	53                   	push   %rbx
  4046e1:	48 83 ec 10          	sub    $0x10,%rsp
  4046e5:	48 85 ff             	test   %rdi,%rdi
  4046e8:	74 6e                	je     404758 <logstats+0x78>
  4046ea:	48 8b 07             	mov    (%rdi),%rax
  4046ed:	b9 01 00 00 00       	mov    $0x1,%ecx
  4046f2:	be 90 e6 40 00       	mov    $0x40e690,%esi
  4046f7:	bf 06 00 00 00       	mov    $0x6,%edi
  4046fc:	48 89 c2             	mov    %rax,%rdx
  4046ff:	48 89 c3             	mov    %rax,%rbx
  404702:	48 2b 15 c7 20 21 00 	sub    0x2120c7(%rip),%rdx        # 6167d0 <start_time>
  404709:	48 2b 1d c8 20 21 00 	sub    0x2120c8(%rip),%rbx        # 6167d8 <stats_time>
  404710:	48 89 05 c1 20 21 00 	mov    %rax,0x2120c1(%rip)        # 6167d8 <stats_time>
  404717:	48 0f 44 d9          	cmove  %rcx,%rbx
  40471b:	31 c0                	xor    %eax,%eax
  40471d:	48 89 d9             	mov    %rbx,%rcx
  404720:	e8 cb df ff ff       	callq  4026f0 <syslog@plt>
  404725:	48 89 df             	mov    %rbx,%rdi
  404728:	e8 a3 fc ff ff       	callq  4043d0 <thttpd_logstats>
  40472d:	48 89 df             	mov    %rbx,%rdi
  404730:	e8 8b 82 00 00       	callq  40c9c0 <httpd_logstats>
  404735:	48 89 df             	mov    %rbx,%rdi
  404738:	e8 23 8b 00 00       	callq  40d260 <mmc_logstats>
  40473d:	48 89 df             	mov    %rbx,%rdi
  404740:	e8 5b 27 00 00       	callq  406ea0 <fdwatch_logstats>
  404745:	48 89 df             	mov    %rbx,%rdi
  404748:	e8 e3 91 00 00       	callq  40d930 <tmr_logstats>
  40474d:	48 83 c4 10          	add    $0x10,%rsp
  404751:	5b                   	pop    %rbx
  404752:	c3                   	retq   
  404753:	0f 1f 44 00 00       	nopl   0x0(%rax,%rax,1)
  404758:	48 89 e7             	mov    %rsp,%rdi
  40475b:	31 f6                	xor    %esi,%esi
  40475d:	e8 5e dd ff ff       	callq  4024c0 <gettimeofday@plt>
  404762:	48 89 e7             	mov    %rsp,%rdi
  404765:	eb 83                	jmp    4046ea <logstats+0xa>
  404767:	66 0f 1f 84 00 00 00 	nopw   0x0(%rax,%rax,1)
  40476e:	00 00 

0000000000404770 <show_stats>:
  404770:	48 89 f7             	mov    %rsi,%rdi
  404773:	e9 68 ff ff ff       	jmpq   4046e0 <logstats>
  404778:	0f 1f 84 00 00 00 00 	nopl   0x0(%rax,%rax,1)
  40477f:	00 

0000000000404780 <handle_usr2>:
  404780:	55                   	push   %rbp
  404781:	53                   	push   %rbx
  404782:	48 83 ec 08          	sub    $0x8,%rsp
  404786:	e8 65 db ff ff       	callq  4022f0 <__errno_location@plt>
  40478b:	8b 28                	mov    (%rax),%ebp
  40478d:	48 89 c3             	mov    %rax,%rbx
  404790:	31 ff                	xor    %edi,%edi
  404792:	e8 49 ff ff ff       	callq  4046e0 <logstats>
  404797:	89 2b                	mov    %ebp,(%rbx)
  404799:	48 83 c4 08          	add    $0x8,%rsp
  40479d:	5b                   	pop    %rbx
  40479e:	5d                   	pop    %rbp
  40479f:	c3                   	retq   

00000000004047a0 <occasional>:
  4047a0:	48 83 ec 08          	sub    $0x8,%rsp
  4047a4:	48 89 f7             	mov    %rsi,%rdi
  4047a7:	e8 c4 88 00 00       	callq  40d070 <mmc_cleanup>
  4047ac:	e8 cf 90 00 00       	callq  40d880 <tmr_cleanup>
  4047b1:	c7 05 69 17 21 00 01 	movl   $0x1,0x211769(%rip)        # 615f24 <watchdog_flag>
  4047b8:	00 00 00 
  4047bb:	48 83 c4 08          	add    $0x8,%rsp
  4047bf:	c3                   	retq   

00000000004047c0 <handle_alrm>:
  4047c0:	55                   	push   %rbp
  4047c1:	53                   	push   %rbx
  4047c2:	48 83 ec 08          	sub    $0x8,%rsp
  4047c6:	e8 25 db ff ff       	callq  4022f0 <__errno_location@plt>
  4047cb:	48 89 c3             	mov    %rax,%rbx
  4047ce:	8b 28                	mov    (%rax),%ebp
  4047d0:	8b 05 4e 17 21 00    	mov    0x21174e(%rip),%eax        # 615f24 <watchdog_flag>
  4047d6:	85 c0                	test   %eax,%eax
  4047d8:	74 1d                	je     4047f7 <handle_alrm+0x37>
  4047da:	bf 68 01 00 00       	mov    $0x168,%edi
  4047df:	c7 05 3b 17 21 00 00 	movl   $0x0,0x21173b(%rip)        # 615f24 <watchdog_flag>
  4047e6:	00 00 00 
  4047e9:	e8 f2 dc ff ff       	callq  4024e0 <alarm@plt>
  4047ee:	89 2b                	mov    %ebp,(%rbx)
  4047f0:	48 83 c4 08          	add    $0x8,%rsp
  4047f4:	5b                   	pop    %rbx
  4047f5:	5d                   	pop    %rbp
  4047f6:	c3                   	retq   
  4047f7:	bf 76 eb 40 00       	mov    $0x40eb76,%edi
  4047fc:	e8 3f dc ff ff       	callq  402440 <chdir@plt>
  404801:	e8 da da ff ff       	callq  4022e0 <abort@plt>
  404806:	66 2e 0f 1f 84 00 00 	nopw   %cs:0x0(%rax,%rax,1)
  40480d:	00 00 00 

0000000000404810 <handle_chld>:
  404810:	41 54                	push   %r12
  404812:	55                   	push   %rbp
  404813:	31 ed                	xor    %ebp,%ebp
  404815:	53                   	push   %rbx
  404816:	48 83 ec 10          	sub    $0x10,%rsp
  40481a:	e8 d1 da ff ff       	callq  4022f0 <__errno_location@plt>
  40481f:	44 8b 20             	mov    (%rax),%r12d
  404822:	48 89 c3             	mov    %rax,%rbx
  404825:	0f 1f 00             	nopl   (%rax)
  404828:	48 8d 74 24 0c       	lea    0xc(%rsp),%rsi
  40482d:	ba 01 00 00 00       	mov    $0x1,%edx
  404832:	bf ff ff ff ff       	mov    $0xffffffff,%edi
  404837:	e8 b4 df ff ff       	callq  4027f0 <waitpid@plt>
  40483c:	85 c0                	test   %eax,%eax
  40483e:	74 42                	je     404882 <handle_chld+0x72>
  404840:	78 1e                	js     404860 <handle_chld+0x50>
  404842:	48 8b 15 e7 16 21 00 	mov    0x2116e7(%rip),%rdx        # 615f30 <hs>
  404849:	48 85 d2             	test   %rdx,%rdx
  40484c:	74 da                	je     404828 <handle_chld+0x18>
  40484e:	8b 42 24             	mov    0x24(%rdx),%eax
  404851:	83 e8 01             	sub    $0x1,%eax
  404854:	0f 48 c5             	cmovs  %ebp,%eax
  404857:	89 42 24             	mov    %eax,0x24(%rdx)
  40485a:	eb cc                	jmp    404828 <handle_chld+0x18>
  40485c:	0f 1f 40 00          	nopl   0x0(%rax)
  404860:	8b 03                	mov    (%rbx),%eax
  404862:	83 f8 04             	cmp    $0x4,%eax
  404865:	74 c1                	je     404828 <handle_chld+0x18>
  404867:	83 f8 0b             	cmp    $0xb,%eax
  40486a:	74 bc                	je     404828 <handle_chld+0x18>
  40486c:	83 f8 0a             	cmp    $0xa,%eax
  40486f:	74 11                	je     404882 <handle_chld+0x72>
  404871:	be 7b eb 40 00       	mov    $0x40eb7b,%esi
  404876:	bf 03 00 00 00       	mov    $0x3,%edi
  40487b:	31 c0                	xor    %eax,%eax
  40487d:	e8 6e de ff ff       	callq  4026f0 <syslog@plt>
  404882:	44 89 23             	mov    %r12d,(%rbx)
  404885:	48 83 c4 10          	add    $0x10,%rsp
  404889:	5b                   	pop    %rbx
  40488a:	5d                   	pop    %rbp
  40488b:	41 5c                	pop    %r12
  40488d:	c3                   	retq   
  40488e:	66 90                	xchg   %ax,%ax

0000000000404890 <e_strdup>:
  404890:	48 83 ec 08          	sub    $0x8,%rsp
  404894:	e8 87 e0 ff ff       	callq  402920 <strdup@plt>
  404899:	48 85 c0             	test   %rax,%rax
  40489c:	74 05                	je     4048a3 <e_strdup+0x13>
  40489e:	48 83 c4 08          	add    $0x8,%rsp
  4048a2:	c3                   	retq   
  4048a3:	be b8 e6 40 00       	mov    $0x40e6b8,%esi
  4048a8:	bf 02 00 00 00       	mov    $0x2,%edi
  4048ad:	e8 3e de ff ff       	callq  4026f0 <syslog@plt>
  4048b2:	48 8b 3d 57 16 21 00 	mov    0x211657(%rip),%rdi        # 615f10 <stderr@@GLIBC_2.2.5>
  4048b9:	48 8b 15 38 17 21 00 	mov    0x211738(%rip),%rdx        # 615ff8 <argv0>
  4048c0:	be d8 e6 40 00       	mov    $0x40e6d8,%esi
  4048c5:	31 c0                	xor    %eax,%eax
  4048c7:	e8 24 dd ff ff       	callq  4025f0 <fprintf@plt>
  4048cc:	bf 01 00 00 00       	mov    $0x1,%edi
  4048d1:	e8 fa df ff ff       	callq  4028d0 <exit@plt>
  4048d6:	66 2e 0f 1f 84 00 00 	nopw   %cs:0x0(%rax,%rax,1)
  4048dd:	00 00 00 

00000000004048e0 <read_config>:
  4048e0:	41 56                	push   %r14
  4048e2:	41 55                	push   %r13
  4048e4:	be 6d ec 40 00       	mov    $0x40ec6d,%esi
  4048e9:	41 54                	push   %r12
  4048eb:	55                   	push   %rbp
  4048ec:	53                   	push   %rbx
  4048ed:	48 89 fb             	mov    %rdi,%rbx
  4048f0:	48 83 ec 70          	sub    $0x70,%rsp
  4048f4:	e8 37 df ff ff       	callq  402830 <fopen@plt>
  4048f9:	48 85 c0             	test   %rax,%rax
  4048fc:	0f 84 ef 04 00 00    	je     404df1 <read_config+0x511>
  404902:	49 89 c5             	mov    %rax,%r13
  404905:	48 bd 00 26 00 00 01 	movabs $0x100002600,%rbp
  40490c:	00 00 00 
  40490f:	4c 89 ea             	mov    %r13,%rdx
  404912:	be e8 03 00 00       	mov    $0x3e8,%esi
  404917:	48 89 e7             	mov    %rsp,%rdi
  40491a:	e8 81 dc ff ff       	callq  4025a0 <fgets@plt>
  40491f:	48 85 c0             	test   %rax,%rax
  404922:	0f 84 1f 04 00 00    	je     404d47 <read_config+0x467>
  404928:	be 23 00 00 00       	mov    $0x23,%esi
  40492d:	48 89 e7             	mov    %rsp,%rdi
  404930:	e8 4b db ff ff       	callq  402480 <strchr@plt>
  404935:	48 85 c0             	test   %rax,%rax
  404938:	74 03                	je     40493d <read_config+0x5d>
  40493a:	c6 00 00             	movb   $0x0,(%rax)
  40493d:	be 8b eb 40 00       	mov    $0x40eb8b,%esi
  404942:	48 89 e7             	mov    %rsp,%rdi
  404945:	e8 06 dc ff ff       	callq  402550 <strspn@plt>
  40494a:	4c 8d 24 04          	lea    (%rsp,%rax,1),%r12
  40494e:	41 80 3c 24 00       	cmpb   $0x0,(%r12)
  404953:	74 ba                	je     40490f <read_config+0x2f>
  404955:	0f 1f 00             	nopl   (%rax)
  404958:	be 8b eb 40 00       	mov    $0x40eb8b,%esi
  40495d:	4c 89 e7             	mov    %r12,%rdi
  404960:	e8 0b dc ff ff       	callq  402570 <strcspn@plt>
  404965:	49 8d 1c 04          	lea    (%r12,%rax,1),%rbx
  404969:	0f b6 03             	movzbl (%rbx),%eax
  40496c:	3c 20                	cmp    $0x20,%al
  40496e:	77 24                	ja     404994 <read_config+0xb4>
  404970:	48 0f a3 c5          	bt     %rax,%rbp
  404974:	73 1e                	jae    404994 <read_config+0xb4>
  404976:	66 2e 0f 1f 84 00 00 	nopw   %cs:0x0(%rax,%rax,1)
  40497d:	00 00 00 
  404980:	48 83 c3 01          	add    $0x1,%rbx
  404984:	0f b6 13             	movzbl (%rbx),%edx
  404987:	c6 43 ff 00          	movb   $0x0,-0x1(%rbx)
  40498b:	80 fa 20             	cmp    $0x20,%dl
  40498e:	0f 86 74 02 00 00    	jbe    404c08 <read_config+0x328>
  404994:	be 3d 00 00 00       	mov    $0x3d,%esi
  404999:	4c 89 e7             	mov    %r12,%rdi
  40499c:	e8 df da ff ff       	callq  402480 <strchr@plt>
  4049a1:	48 85 c0             	test   %rax,%rax
  4049a4:	0f 84 bf 02 00 00    	je     404c69 <read_config+0x389>
  4049aa:	4c 8d 70 01          	lea    0x1(%rax),%r14
  4049ae:	c6 00 00             	movb   $0x0,(%rax)
  4049b1:	be 90 eb 40 00       	mov    $0x40eb90,%esi
  4049b6:	4c 89 e7             	mov    %r12,%rdi
  4049b9:	e8 f2 d8 ff ff       	callq  4022b0 <strcasecmp@plt>
  4049be:	85 c0                	test   %eax,%eax
  4049c0:	0f 84 51 02 00 00    	je     404c17 <read_config+0x337>
  4049c6:	be 96 eb 40 00       	mov    $0x40eb96,%esi
  4049cb:	4c 89 e7             	mov    %r12,%rdi
  4049ce:	e8 dd d8 ff ff       	callq  4022b0 <strcasecmp@plt>
  4049d3:	85 c0                	test   %eax,%eax
  4049d5:	0f 84 72 02 00 00    	je     404c4d <read_config+0x36d>
  4049db:	be a9 eb 40 00       	mov    $0x40eba9,%esi
  4049e0:	4c 89 e7             	mov    %r12,%rdi
  4049e3:	e8 c8 d8 ff ff       	callq  4022b0 <strcasecmp@plt>
  4049e8:	85 c0                	test   %eax,%eax
  4049ea:	0f 84 81 02 00 00    	je     404c71 <read_config+0x391>
  4049f0:	be 9d eb 40 00       	mov    $0x40eb9d,%esi
  4049f5:	4c 89 e7             	mov    %r12,%rdi
  4049f8:	e8 b3 d8 ff ff       	callq  4022b0 <strcasecmp@plt>
  4049fd:	85 c0                	test   %eax,%eax
  4049ff:	0f 84 88 02 00 00    	je     404c8d <read_config+0x3ad>
  404a05:	be 9b eb 40 00       	mov    $0x40eb9b,%esi
  404a0a:	4c 89 e7             	mov    %r12,%rdi
  404a0d:	e8 9e d8 ff ff       	callq  4022b0 <strcasecmp@plt>
  404a12:	85 c0                	test   %eax,%eax
  404a14:	0f 84 97 02 00 00    	je     404cb1 <read_config+0x3d1>
  404a1a:	be a4 eb 40 00       	mov    $0x40eba4,%esi
  404a1f:	4c 89 e7             	mov    %r12,%rdi
  404a22:	e8 89 d8 ff ff       	callq  4022b0 <strcasecmp@plt>
  404a27:	85 c0                	test   %eax,%eax
  404a29:	0f 84 c0 02 00 00    	je     404cef <read_config+0x40f>
  404a2f:	be af eb 40 00       	mov    $0x40ebaf,%esi
  404a34:	4c 89 e7             	mov    %r12,%rdi
  404a37:	e8 74 d8 ff ff       	callq  4022b0 <strcasecmp@plt>
  404a3c:	85 c0                	test   %eax,%eax
  404a3e:	0f 84 91 02 00 00    	je     404cd5 <read_config+0x3f5>
  404a44:	be ad eb 40 00       	mov    $0x40ebad,%esi
  404a49:	4c 89 e7             	mov    %r12,%rdi
  404a4c:	e8 5f d8 ff ff       	callq  4022b0 <strcasecmp@plt>
  404a51:	85 c0                	test   %eax,%eax
  404a53:	0f 84 b5 02 00 00    	je     404d0e <read_config+0x42e>
  404a59:	be b9 eb 40 00       	mov    $0x40ebb9,%esi
  404a5e:	4c 89 e7             	mov    %r12,%rdi
  404a61:	e8 4a d8 ff ff       	callq  4022b0 <strcasecmp@plt>
  404a66:	85 c0                	test   %eax,%eax
  404a68:	0f 84 67 02 00 00    	je     404cd5 <read_config+0x3f5>
  404a6e:	be b7 eb 40 00       	mov    $0x40ebb7,%esi
  404a73:	4c 89 e7             	mov    %r12,%rdi
  404a76:	e8 35 d8 ff ff       	callq  4022b0 <strcasecmp@plt>
  404a7b:	85 c0                	test   %eax,%eax
  404a7d:	0f 84 8b 02 00 00    	je     404d0e <read_config+0x42e>
  404a83:	be c2 eb 40 00       	mov    $0x40ebc2,%esi
  404a88:	4c 89 e7             	mov    %r12,%rdi
  404a8b:	e8 20 d8 ff ff       	callq  4022b0 <strcasecmp@plt>
  404a90:	85 c0                	test   %eax,%eax
  404a92:	0f 84 90 02 00 00    	je     404d28 <read_config+0x448>
  404a98:	be c7 eb 40 00       	mov    $0x40ebc7,%esi
  404a9d:	4c 89 e7             	mov    %r12,%rdi
  404aa0:	e8 0b d8 ff ff       	callq  4022b0 <strcasecmp@plt>
  404aa5:	85 c0                	test   %eax,%eax
  404aa7:	0f 84 cd 02 00 00    	je     404d7a <read_config+0x49a>
  404aad:	be ce eb 40 00       	mov    $0x40ebce,%esi
  404ab2:	4c 89 e7             	mov    %r12,%rdi
  404ab5:	e8 f6 d7 ff ff       	callq  4022b0 <strcasecmp@plt>
  404aba:	85 c0                	test   %eax,%eax
  404abc:	0f 84 9a 02 00 00    	je     404d5c <read_config+0x47c>
  404ac2:	be d7 eb 40 00       	mov    $0x40ebd7,%esi
  404ac7:	4c 89 e7             	mov    %r12,%rdi
  404aca:	e8 e1 d7 ff ff       	callq  4022b0 <strcasecmp@plt>
  404acf:	85 c0                	test   %eax,%eax
  404ad1:	0f 84 fb 02 00 00    	je     404dd2 <read_config+0x4f2>
  404ad7:	be de eb 40 00       	mov    $0x40ebde,%esi
  404adc:	4c 89 e7             	mov    %r12,%rdi
  404adf:	e8 cc d7 ff ff       	callq  4022b0 <strcasecmp@plt>
  404ae4:	85 c0                	test   %eax,%eax
  404ae6:	0f 84 cc 02 00 00    	je     404db8 <read_config+0x4d8>
  404aec:	be ee eb 40 00       	mov    $0x40ebee,%esi
  404af1:	4c 89 e7             	mov    %r12,%rdi
  404af4:	e8 b7 d7 ff ff       	callq  4022b0 <strcasecmp@plt>
  404af9:	85 c0                	test   %eax,%eax
  404afb:	0f 84 98 02 00 00    	je     404d99 <read_config+0x4b9>
  404b01:	be f7 eb 40 00       	mov    $0x40ebf7,%esi
  404b06:	4c 89 e7             	mov    %r12,%rdi
  404b09:	e8 a2 d7 ff ff       	callq  4022b0 <strcasecmp@plt>
  404b0e:	85 c0                	test   %eax,%eax
  404b10:	0f 84 26 03 00 00    	je     404e3c <read_config+0x55c>
  404b16:	be d7 f0 40 00       	mov    $0x40f0d7,%esi
  404b1b:	4c 89 e7             	mov    %r12,%rdi
  404b1e:	e8 8d d7 ff ff       	callq  4022b0 <strcasecmp@plt>
  404b23:	85 c0                	test   %eax,%eax
  404b25:	0f 84 f2 02 00 00    	je     404e1d <read_config+0x53d>
  404b2b:	be e0 ec 40 00       	mov    $0x40ece0,%esi
  404b30:	4c 89 e7             	mov    %r12,%rdi
  404b33:	e8 78 d7 ff ff       	callq  4022b0 <strcasecmp@plt>
  404b38:	85 c0                	test   %eax,%eax
  404b3a:	0f 84 1b 03 00 00    	je     404e5b <read_config+0x57b>
  404b40:	be 03 ec 40 00       	mov    $0x40ec03,%esi
  404b45:	4c 89 e7             	mov    %r12,%rdi
  404b48:	e8 63 d7 ff ff       	callq  4022b0 <strcasecmp@plt>
  404b4d:	85 c0                	test   %eax,%eax
  404b4f:	0f 84 ae 02 00 00    	je     404e03 <read_config+0x523>
  404b55:	be 01 ec 40 00       	mov    $0x40ec01,%esi
  404b5a:	4c 89 e7             	mov    %r12,%rdi
  404b5d:	e8 4e d7 ff ff       	callq  4022b0 <strcasecmp@plt>
  404b62:	85 c0                	test   %eax,%eax
  404b64:	0f 84 c3 03 00 00    	je     404f2d <read_config+0x64d>
  404b6a:	be 0b ec 40 00       	mov    $0x40ec0b,%esi
  404b6f:	4c 89 e7             	mov    %r12,%rdi
  404b72:	e8 39 d7 ff ff       	callq  4022b0 <strcasecmp@plt>
  404b77:	85 c0                	test   %eax,%eax
  404b79:	0f 84 94 03 00 00    	je     404f13 <read_config+0x633>
  404b7f:	be 09 ec 40 00       	mov    $0x40ec09,%esi
  404b84:	4c 89 e7             	mov    %r12,%rdi
  404b87:	e8 24 d7 ff ff       	callq  4022b0 <strcasecmp@plt>
  404b8c:	85 c0                	test   %eax,%eax
  404b8e:	0f 84 65 03 00 00    	je     404ef9 <read_config+0x619>
  404b94:	be 18 ec 40 00       	mov    $0x40ec18,%esi
  404b99:	4c 89 e7             	mov    %r12,%rdi
  404b9c:	e8 0f d7 ff ff       	callq  4022b0 <strcasecmp@plt>
  404ba1:	85 c0                	test   %eax,%eax
  404ba3:	0f 84 31 03 00 00    	je     404eda <read_config+0x5fa>
  404ba9:	be 20 ec 40 00       	mov    $0x40ec20,%esi
  404bae:	4c 89 e7             	mov    %r12,%rdi
  404bb1:	e8 fa d6 ff ff       	callq  4022b0 <strcasecmp@plt>
  404bb6:	85 c0                	test   %eax,%eax
  404bb8:	0f 84 fd 02 00 00    	je     404ebb <read_config+0x5db>
  404bbe:	be 28 ec 40 00       	mov    $0x40ec28,%esi
  404bc3:	4c 89 e7             	mov    %r12,%rdi
  404bc6:	e8 e5 d6 ff ff       	callq  4022b0 <strcasecmp@plt>
  404bcb:	85 c0                	test   %eax,%eax
  404bcd:	0f 84 c9 02 00 00    	je     404e9c <read_config+0x5bc>
  404bd3:	be 2c ec 40 00       	mov    $0x40ec2c,%esi
  404bd8:	4c 89 e7             	mov    %r12,%rdi
  404bdb:	e8 d0 d6 ff ff       	callq  4022b0 <strcasecmp@plt>
  404be0:	85 c0                	test   %eax,%eax
  404be2:	0f 85 92 02 00 00    	jne    404e7a <read_config+0x59a>
  404be8:	4c 89 f6             	mov    %r14,%rsi
  404beb:	4c 89 e7             	mov    %r12,%rdi
  404bee:	e8 7d fa ff ff       	callq  404670 <value_required>
  404bf3:	4c 89 f7             	mov    %r14,%rdi
  404bf6:	e8 85 dc ff ff       	callq  402880 <atoi@plt>
  404bfb:	89 05 5f 13 21 00    	mov    %eax,0x21135f(%rip)        # 615f60 <max_age>
  404c01:	eb 29                	jmp    404c2c <read_config+0x34c>
  404c03:	0f 1f 44 00 00       	nopl   0x0(%rax,%rax,1)
  404c08:	48 0f a3 d5          	bt     %rdx,%rbp
  404c0c:	0f 82 6e fd ff ff    	jb     404980 <read_config+0xa0>
  404c12:	e9 7d fd ff ff       	jmpq   404994 <read_config+0xb4>
  404c17:	4c 89 f6             	mov    %r14,%rsi
  404c1a:	4c 89 e7             	mov    %r12,%rdi
  404c1d:	e8 0e fa ff ff       	callq  404630 <no_value_required>
  404c22:	c7 05 c8 13 21 00 01 	movl   $0x1,0x2113c8(%rip)        # 615ff4 <debug>
  404c29:	00 00 00 
  404c2c:	be 8b eb 40 00       	mov    $0x40eb8b,%esi
  404c31:	48 89 df             	mov    %rbx,%rdi
  404c34:	e8 17 d9 ff ff       	callq  402550 <strspn@plt>
  404c39:	4c 8d 24 03          	lea    (%rbx,%rax,1),%r12
  404c3d:	41 80 3c 24 00       	cmpb   $0x0,(%r12)
  404c42:	0f 85 10 fd ff ff    	jne    404958 <read_config+0x78>
  404c48:	e9 c2 fc ff ff       	jmpq   40490f <read_config+0x2f>
  404c4d:	4c 89 f6             	mov    %r14,%rsi
  404c50:	4c 89 e7             	mov    %r12,%rdi
  404c53:	e8 18 fa ff ff       	callq  404670 <value_required>
  404c58:	4c 89 f7             	mov    %r14,%rdi
  404c5b:	e8 20 dc ff ff       	callq  402880 <atoi@plt>
  404c60:	66 89 05 89 13 21 00 	mov    %ax,0x211389(%rip)        # 615ff0 <port>
  404c67:	eb c3                	jmp    404c2c <read_config+0x34c>
  404c69:	45 31 f6             	xor    %r14d,%r14d
  404c6c:	e9 40 fd ff ff       	jmpq   4049b1 <read_config+0xd1>
  404c71:	4c 89 f6             	mov    %r14,%rsi
  404c74:	4c 89 e7             	mov    %r12,%rdi
  404c77:	e8 f4 f9 ff ff       	callq  404670 <value_required>
  404c7c:	4c 89 f7             	mov    %r14,%rdi
  404c7f:	e8 0c fc ff ff       	callq  404890 <e_strdup>
  404c84:	48 89 05 5d 13 21 00 	mov    %rax,0x21135d(%rip)        # 615fe8 <dir>
  404c8b:	eb 9f                	jmp    404c2c <read_config+0x34c>
  404c8d:	4c 89 f6             	mov    %r14,%rsi
  404c90:	4c 89 e7             	mov    %r12,%rdi
  404c93:	e8 98 f9 ff ff       	callq  404630 <no_value_required>
  404c98:	c7 05 36 13 21 00 01 	movl   $0x1,0x211336(%rip)        # 615fd8 <do_chroot>
  404c9f:	00 00 00 
  404ca2:	c7 05 24 13 21 00 01 	movl   $0x1,0x211324(%rip)        # 615fd0 <no_symlink_check>
  404ca9:	00 00 00 
  404cac:	e9 7b ff ff ff       	jmpq   404c2c <read_config+0x34c>
  404cb1:	4c 89 f6             	mov    %r14,%rsi
  404cb4:	4c 89 e7             	mov    %r12,%rdi
  404cb7:	e8 74 f9 ff ff       	callq  404630 <no_value_required>
  404cbc:	c7 05 12 13 21 00 00 	movl   $0x0,0x211312(%rip)        # 615fd8 <do_chroot>
  404cc3:	00 00 00 
  404cc6:	c7 05 00 13 21 00 00 	movl   $0x0,0x211300(%rip)        # 615fd0 <no_symlink_check>
  404ccd:	00 00 00 
  404cd0:	e9 57 ff ff ff       	jmpq   404c2c <read_config+0x34c>
  404cd5:	4c 89 f6             	mov    %r14,%rsi
  404cd8:	4c 89 e7             	mov    %r12,%rdi
  404cdb:	e8 50 f9 ff ff       	callq  404630 <no_value_required>
  404ce0:	c7 05 e6 12 21 00 00 	movl   $0x0,0x2112e6(%rip)        # 615fd0 <no_symlink_check>
  404ce7:	00 00 00 
  404cea:	e9 3d ff ff ff       	jmpq   404c2c <read_config+0x34c>
  404cef:	4c 89 f6             	mov    %r14,%rsi
  404cf2:	4c 89 e7             	mov    %r12,%rdi
  404cf5:	e8 76 f9 ff ff       	callq  404670 <value_required>
  404cfa:	4c 89 f7             	mov    %r14,%rdi
  404cfd:	e8 8e fb ff ff       	callq  404890 <e_strdup>
  404d02:	48 89 05 d7 12 21 00 	mov    %rax,0x2112d7(%rip)        # 615fe0 <data_dir>
  404d09:	e9 1e ff ff ff       	jmpq   404c2c <read_config+0x34c>
  404d0e:	4c 89 f6             	mov    %r14,%rsi
  404d11:	4c 89 e7             	mov    %r12,%rdi
  404d14:	e8 17 f9 ff ff       	callq  404630 <no_value_required>
  404d19:	c7 05 ad 12 21 00 01 	movl   $0x1,0x2112ad(%rip)        # 615fd0 <no_symlink_check>
  404d20:	00 00 00 
  404d23:	e9 04 ff ff ff       	jmpq   404c2c <read_config+0x34c>
  404d28:	4c 89 f6             	mov    %r14,%rsi
  404d2b:	4c 89 e7             	mov    %r12,%rdi
  404d2e:	e8 3d f9 ff ff       	callq  404670 <value_required>
  404d33:	4c 89 f7             	mov    %r14,%rdi
  404d36:	e8 55 fb ff ff       	callq  404890 <e_strdup>
  404d3b:	48 89 05 36 12 21 00 	mov    %rax,0x211236(%rip)        # 615f78 <user>
  404d42:	e9 e5 fe ff ff       	jmpq   404c2c <read_config+0x34c>
  404d47:	4c 89 ef             	mov    %r13,%rdi
  404d4a:	e8 91 d6 ff ff       	callq  4023e0 <fclose@plt>
  404d4f:	48 83 c4 70          	add    $0x70,%rsp
  404d53:	5b                   	pop    %rbx
  404d54:	5d                   	pop    %rbp
  404d55:	41 5c                	pop    %r12
  404d57:	41 5d                	pop    %r13
  404d59:	41 5e                	pop    %r14
  404d5b:	c3                   	retq   
  404d5c:	4c 89 f6             	mov    %r14,%rsi
  404d5f:	4c 89 e7             	mov    %r12,%rdi
  404d62:	e8 09 f9 ff ff       	callq  404670 <value_required>
  404d67:	4c 89 f7             	mov    %r14,%rdi
  404d6a:	e8 11 db ff ff       	callq  402880 <atoi@plt>
  404d6f:	89 05 43 12 21 00    	mov    %eax,0x211243(%rip)        # 615fb8 <cgi_limit>
  404d75:	e9 b2 fe ff ff       	jmpq   404c2c <read_config+0x34c>
  404d7a:	4c 89 f6             	mov    %r14,%rsi
  404d7d:	4c 89 e7             	mov    %r12,%rdi
  404d80:	e8 eb f8 ff ff       	callq  404670 <value_required>
  404d85:	4c 89 f7             	mov    %r14,%rdi
  404d88:	e8 03 fb ff ff       	callq  404890 <e_strdup>
  404d8d:	48 89 05 2c 12 21 00 	mov    %rax,0x21122c(%rip)        # 615fc0 <cgi_pattern>
  404d94:	e9 93 fe ff ff       	jmpq   404c2c <read_config+0x34c>
  404d99:	4c 89 f6             	mov    %r14,%rsi
  404d9c:	4c 89 e7             	mov    %r12,%rdi
  404d9f:	e8 cc f8 ff ff       	callq  404670 <value_required>
  404da4:	4c 89 f7             	mov    %r14,%rdi
  404da7:	e8 e4 fa ff ff       	callq  404890 <e_strdup>
  404dac:	48 89 05 ed 11 21 00 	mov    %rax,0x2111ed(%rip)        # 615fa0 <local_pattern>
  404db3:	e9 74 fe ff ff       	jmpq   404c2c <read_config+0x34c>
  404db8:	4c 89 f6             	mov    %r14,%rsi
  404dbb:	4c 89 e7             	mov    %r12,%rdi
  404dbe:	e8 6d f8 ff ff       	callq  404630 <no_value_required>
  404dc3:	c7 05 db 11 21 00 01 	movl   $0x1,0x2111db(%rip)        # 615fa8 <no_empty_referers>
  404dca:	00 00 00 
  404dcd:	e9 5a fe ff ff       	jmpq   404c2c <read_config+0x34c>
  404dd2:	4c 89 f6             	mov    %r14,%rsi
  404dd5:	4c 89 e7             	mov    %r12,%rdi
  404dd8:	e8 93 f8 ff ff       	callq  404670 <value_required>
  404ddd:	4c 89 f7             	mov    %r14,%rdi
  404de0:	e8 ab fa ff ff       	callq  404890 <e_strdup>
  404de5:	48 89 05 c4 11 21 00 	mov    %rax,0x2111c4(%rip)        # 615fb0 <url_pattern>
  404dec:	e9 3b fe ff ff       	jmpq   404c2c <read_config+0x34c>
  404df1:	48 89 df             	mov    %rbx,%rdi
  404df4:	e8 47 da ff ff       	callq  402840 <perror@plt>
  404df9:	bf 01 00 00 00       	mov    $0x1,%edi
  404dfe:	e8 cd da ff ff       	callq  4028d0 <exit@plt>
  404e03:	4c 89 f6             	mov    %r14,%rsi
  404e06:	4c 89 e7             	mov    %r12,%rdi
  404e09:	e8 22 f8 ff ff       	callq  404630 <no_value_required>
  404e0e:	c7 05 b4 11 21 00 01 	movl   $0x1,0x2111b4(%rip)        # 615fcc <do_vhost>
  404e15:	00 00 00 
  404e18:	e9 0f fe ff ff       	jmpq   404c2c <read_config+0x34c>
  404e1d:	4c 89 f6             	mov    %r14,%rsi
  404e20:	4c 89 e7             	mov    %r12,%rdi
  404e23:	e8 48 f8 ff ff       	callq  404670 <value_required>
  404e28:	4c 89 f7             	mov    %r14,%rdi
  404e2b:	e8 60 fa ff ff       	callq  404890 <e_strdup>
  404e30:	48 89 05 51 11 21 00 	mov    %rax,0x211151(%rip)        # 615f88 <hostname>
  404e37:	e9 f0 fd ff ff       	jmpq   404c2c <read_config+0x34c>
  404e3c:	4c 89 f6             	mov    %r14,%rsi
  404e3f:	4c 89 e7             	mov    %r12,%rdi
  404e42:	e8 29 f8 ff ff       	callq  404670 <value_required>
  404e47:	4c 89 f7             	mov    %r14,%rdi
  404e4a:	e8 41 fa ff ff       	callq  404890 <e_strdup>
  404e4f:	48 89 05 3a 11 21 00 	mov    %rax,0x21113a(%rip)        # 615f90 <throttlefile>
  404e56:	e9 d1 fd ff ff       	jmpq   404c2c <read_config+0x34c>
  404e5b:	4c 89 f6             	mov    %r14,%rsi
  404e5e:	4c 89 e7             	mov    %r12,%rdi
  404e61:	e8 0a f8 ff ff       	callq  404670 <value_required>
  404e66:	4c 89 f7             	mov    %r14,%rdi
  404e69:	e8 22 fa ff ff       	callq  404890 <e_strdup>
  404e6e:	48 89 05 23 11 21 00 	mov    %rax,0x211123(%rip)        # 615f98 <logfile>
  404e75:	e9 b2 fd ff ff       	jmpq   404c2c <read_config+0x34c>
  404e7a:	48 8b 15 77 11 21 00 	mov    0x211177(%rip),%rdx        # 615ff8 <argv0>
  404e81:	48 8b 3d 88 10 21 00 	mov    0x211088(%rip),%rdi        # 615f10 <stderr@@GLIBC_2.2.5>
  404e88:	4c 89 e1             	mov    %r12,%rcx
  404e8b:	be 00 e7 40 00       	mov    $0x40e700,%esi
  404e90:	31 c0                	xor    %eax,%eax
  404e92:	e8 59 d7 ff ff       	callq  4025f0 <fprintf@plt>
  404e97:	e9 90 fd ff ff       	jmpq   404c2c <read_config+0x34c>
  404e9c:	4c 89 f6             	mov    %r14,%rsi
  404e9f:	4c 89 e7             	mov    %r12,%rdi
  404ea2:	e8 c9 f7 ff ff       	callq  404670 <value_required>
  404ea7:	4c 89 f7             	mov    %r14,%rdi
  404eaa:	e8 e1 f9 ff ff       	callq  404890 <e_strdup>
  404eaf:	48 89 05 b2 10 21 00 	mov    %rax,0x2110b2(%rip)        # 615f68 <p3p>
  404eb6:	e9 71 fd ff ff       	jmpq   404c2c <read_config+0x34c>
  404ebb:	4c 89 f6             	mov    %r14,%rsi
  404ebe:	4c 89 e7             	mov    %r12,%rdi
  404ec1:	e8 aa f7 ff ff       	callq  404670 <value_required>
  404ec6:	4c 89 f7             	mov    %r14,%rdi
  404ec9:	e8 c2 f9 ff ff       	callq  404890 <e_strdup>
  404ece:	48 89 05 9b 10 21 00 	mov    %rax,0x21109b(%rip)        # 615f70 <charset>
  404ed5:	e9 52 fd ff ff       	jmpq   404c2c <read_config+0x34c>
  404eda:	4c 89 f6             	mov    %r14,%rsi
  404edd:	4c 89 e7             	mov    %r12,%rdi
  404ee0:	e8 8b f7 ff ff       	callq  404670 <value_required>
  404ee5:	4c 89 f7             	mov    %r14,%rdi
  404ee8:	e8 a3 f9 ff ff       	callq  404890 <e_strdup>
  404eed:	48 89 05 8c 10 21 00 	mov    %rax,0x21108c(%rip)        # 615f80 <pidfile>
  404ef4:	e9 33 fd ff ff       	jmpq   404c2c <read_config+0x34c>
  404ef9:	4c 89 f6             	mov    %r14,%rsi
  404efc:	4c 89 e7             	mov    %r12,%rdi
  404eff:	e8 2c f7 ff ff       	callq  404630 <no_value_required>
  404f04:	c7 05 ba 10 21 00 00 	movl   $0x0,0x2110ba(%rip)        # 615fc8 <do_global_passwd>
  404f0b:	00 00 00 
  404f0e:	e9 19 fd ff ff       	jmpq   404c2c <read_config+0x34c>
  404f13:	4c 89 f6             	mov    %r14,%rsi
  404f16:	4c 89 e7             	mov    %r12,%rdi
  404f19:	e8 12 f7 ff ff       	callq  404630 <no_value_required>
  404f1e:	c7 05 a0 10 21 00 01 	movl   $0x1,0x2110a0(%rip)        # 615fc8 <do_global_passwd>
  404f25:	00 00 00 
  404f28:	e9 ff fc ff ff       	jmpq   404c2c <read_config+0x34c>
  404f2d:	4c 89 f6             	mov    %r14,%rsi
  404f30:	4c 89 e7             	mov    %r12,%rdi
  404f33:	e8 f8 f6 ff ff       	callq  404630 <no_value_required>
  404f38:	c7 05 8a 10 21 00 00 	movl   $0x0,0x21108a(%rip)        # 615fcc <do_vhost>
  404f3f:	00 00 00 
  404f42:	e9 e5 fc ff ff       	jmpq   404c2c <read_config+0x34c>
  404f47:	66 0f 1f 84 00 00 00 	nopw   0x0(%rax,%rax,1)
  404f4e:	00 00 

0000000000404f50 <parse_args>:
  404f50:	41 57                	push   %r15
  404f52:	41 56                	push   %r14
  404f54:	b8 50 00 00 00       	mov    $0x50,%eax
  404f59:	41 55                	push   %r13
  404f5b:	41 54                	push   %r12
  404f5d:	41 89 fd             	mov    %edi,%r13d
  404f60:	55                   	push   %rbp
  404f61:	53                   	push   %rbx
  404f62:	48 83 ec 08          	sub    $0x8,%rsp
  404f66:	83 ff 01             	cmp    $0x1,%edi
  404f69:	c7 05 81 10 21 00 00 	movl   $0x0,0x211081(%rip)        # 615ff4 <debug>
  404f70:	00 00 00 
  404f73:	66 89 05 76 10 21 00 	mov    %ax,0x211076(%rip)        # 615ff0 <port>
  404f7a:	48 c7 05 63 10 21 00 	movq   $0x0,0x211063(%rip)        # 615fe8 <dir>
  404f81:	00 00 00 00 
  404f85:	48 c7 05 50 10 21 00 	movq   $0x0,0x211050(%rip)        # 615fe0 <data_dir>
  404f8c:	00 00 00 00 
  404f90:	c7 05 3e 10 21 00 00 	movl   $0x0,0x21103e(%rip)        # 615fd8 <do_chroot>
  404f97:	00 00 00 
  404f9a:	c7 05 30 10 21 00 00 	movl   $0x0,0x211030(%rip)        # 615fd4 <no_log>
  404fa1:	00 00 00 
  404fa4:	c7 05 22 10 21 00 00 	movl   $0x0,0x211022(%rip)        # 615fd0 <no_symlink_check>
  404fab:	00 00 00 
  404fae:	c7 05 14 10 21 00 00 	movl   $0x0,0x211014(%rip)        # 615fcc <do_vhost>
  404fb5:	00 00 00 
  404fb8:	c7 05 06 10 21 00 00 	movl   $0x0,0x211006(%rip)        # 615fc8 <do_global_passwd>
  404fbf:	00 00 00 
  404fc2:	48 c7 05 f3 0f 21 00 	movq   $0x0,0x210ff3(%rip)        # 615fc0 <cgi_pattern>
  404fc9:	00 00 00 00 
  404fcd:	c7 05 e1 0f 21 00 00 	movl   $0x0,0x210fe1(%rip)        # 615fb8 <cgi_limit>
  404fd4:	00 00 00 
  404fd7:	48 c7 05 ce 0f 21 00 	movq   $0x0,0x210fce(%rip)        # 615fb0 <url_pattern>
  404fde:	00 00 00 00 
  404fe2:	c7 05 bc 0f 21 00 00 	movl   $0x0,0x210fbc(%rip)        # 615fa8 <no_empty_referers>
  404fe9:	00 00 00 
  404fec:	48 c7 05 a9 0f 21 00 	movq   $0x0,0x210fa9(%rip)        # 615fa0 <local_pattern>
  404ff3:	00 00 00 00 
  404ff7:	48 c7 05 8e 0f 21 00 	movq   $0x0,0x210f8e(%rip)        # 615f90 <throttlefile>
  404ffe:	00 00 00 00 
  405002:	48 c7 05 7b 0f 21 00 	movq   $0x0,0x210f7b(%rip)        # 615f88 <hostname>
  405009:	00 00 00 00 
  40500d:	48 c7 05 80 0f 21 00 	movq   $0x0,0x210f80(%rip)        # 615f98 <logfile>
  405014:	00 00 00 00 
  405018:	48 c7 05 5d 0f 21 00 	movq   $0x0,0x210f5d(%rip)        # 615f80 <pidfile>
  40501f:	00 00 00 00 
  405023:	48 c7 05 4a 0f 21 00 	movq   $0x40ec34,0x210f4a(%rip)        # 615f78 <user>
  40502a:	34 ec 40 00 
  40502e:	48 c7 05 37 0f 21 00 	movq   $0x40ec3b,0x210f37(%rip)        # 615f70 <charset>
  405035:	3b ec 40 00 
  405039:	48 c7 05 24 0f 21 00 	movq   $0x40f2c9,0x210f24(%rip)        # 615f68 <p3p>
  405040:	c9 f2 40 00 
  405044:	c7 05 12 0f 21 00 ff 	movl   $0xffffffff,0x210f12(%rip)        # 615f60 <max_age>
  40504b:	ff ff ff 
  40504e:	0f 8e 53 03 00 00    	jle    4053a7 <parse_args+0x457>
  405054:	48 8b 5e 08          	mov    0x8(%rsi),%rbx
  405058:	49 89 f6             	mov    %rsi,%r14
  40505b:	bd 01 00 00 00       	mov    $0x1,%ebp
  405060:	41 bc 46 ec 40 00    	mov    $0x40ec46,%r12d
  405066:	80 3b 2d             	cmpb   $0x2d,(%rbx)
  405069:	74 70                	je     4050db <parse_args+0x18b>
  40506b:	e9 61 04 00 00       	jmpq   4054d1 <parse_args+0x581>
  405070:	44 8d 7d 01          	lea    0x1(%rbp),%r15d
  405074:	45 39 fd             	cmp    %r15d,%r13d
  405077:	0f 8f 43 01 00 00    	jg     4051c0 <parse_args+0x270>
  40507d:	bf 66 ec 40 00       	mov    $0x40ec66,%edi
  405082:	b9 03 00 00 00       	mov    $0x3,%ecx
  405087:	48 89 de             	mov    %rbx,%rsi
  40508a:	f3 a6                	repz cmpsb %es:(%rdi),%ds:(%rsi)
  40508c:	0f 84 ce 00 00 00    	je     405160 <parse_args+0x210>
  405092:	bf 69 ec 40 00       	mov    $0x40ec69,%edi
  405097:	b9 03 00 00 00       	mov    $0x3,%ecx
  40509c:	48 89 de             	mov    %rbx,%rsi
  40509f:	f3 a6                	repz cmpsb %es:(%rdi),%ds:(%rsi)
  4050a1:	0f 85 b9 00 00 00    	jne    405160 <parse_args+0x210>
  4050a7:	8d 45 01             	lea    0x1(%rbp),%eax
  4050aa:	41 39 c5             	cmp    %eax,%r13d
  4050ad:	0f 8e ad 00 00 00    	jle    405160 <parse_args+0x210>
  4050b3:	48 63 d0             	movslq %eax,%rdx
  4050b6:	89 c5                	mov    %eax,%ebp
  4050b8:	49 8b 14 d6          	mov    (%r14,%rdx,8),%rdx
  4050bc:	48 89 15 25 0f 21 00 	mov    %rdx,0x210f25(%rip)        # 615fe8 <dir>
  4050c3:	83 c5 01             	add    $0x1,%ebp
  4050c6:	41 39 ed             	cmp    %ebp,%r13d
  4050c9:	7e 74                	jle    40513f <parse_args+0x1ef>
  4050cb:	48 63 c5             	movslq %ebp,%rax
  4050ce:	49 8b 1c c6          	mov    (%r14,%rax,8),%rbx
  4050d2:	80 3b 2d             	cmpb   $0x2d,(%rbx)
  4050d5:	0f 85 f6 03 00 00    	jne    4054d1 <parse_args+0x581>
  4050db:	b9 03 00 00 00       	mov    $0x3,%ecx
  4050e0:	48 89 de             	mov    %rbx,%rsi
  4050e3:	4c 89 e7             	mov    %r12,%rdi
  4050e6:	f3 a6                	repz cmpsb %es:(%rdi),%ds:(%rsi)
  4050e8:	0f 84 e3 02 00 00    	je     4053d1 <parse_args+0x481>
  4050ee:	bf 63 ec 40 00       	mov    $0x40ec63,%edi
  4050f3:	b9 03 00 00 00       	mov    $0x3,%ecx
  4050f8:	48 89 de             	mov    %rbx,%rsi
  4050fb:	f3 a6                	repz cmpsb %es:(%rdi),%ds:(%rsi)
  4050fd:	0f 84 6d ff ff ff    	je     405070 <parse_args+0x120>
  405103:	bf 66 ec 40 00       	mov    $0x40ec66,%edi
  405108:	b9 03 00 00 00       	mov    $0x3,%ecx
  40510d:	48 89 de             	mov    %rbx,%rsi
  405110:	f3 a6                	repz cmpsb %es:(%rdi),%ds:(%rsi)
  405112:	0f 85 7a ff ff ff    	jne    405092 <parse_args+0x142>
  405118:	44 8d 7d 01          	lea    0x1(%rbp),%r15d
  40511c:	45 39 fd             	cmp    %r15d,%r13d
  40511f:	7e 3f                	jle    405160 <parse_args+0x210>
  405121:	49 63 c7             	movslq %r15d,%rax
  405124:	44 89 fd             	mov    %r15d,%ebp
  405127:	49 8b 3c c6          	mov    (%r14,%rax,8),%rdi
  40512b:	83 c5 01             	add    $0x1,%ebp
  40512e:	e8 4d d7 ff ff       	callq  402880 <atoi@plt>
  405133:	41 39 ed             	cmp    %ebp,%r13d
  405136:	66 89 05 b3 0e 21 00 	mov    %ax,0x210eb3(%rip)        # 615ff0 <port>
  40513d:	7f 8c                	jg     4050cb <parse_args+0x17b>
  40513f:	41 39 ed             	cmp    %ebp,%r13d
  405142:	0f 85 89 03 00 00    	jne    4054d1 <parse_args+0x581>
  405148:	48 83 c4 08          	add    $0x8,%rsp
  40514c:	5b                   	pop    %rbx
  40514d:	5d                   	pop    %rbp
  40514e:	41 5c                	pop    %r12
  405150:	41 5d                	pop    %r13
  405152:	41 5e                	pop    %r14
  405154:	41 5f                	pop    %r15
  405156:	c3                   	retq   
  405157:	66 0f 1f 84 00 00 00 	nopw   0x0(%rax,%rax,1)
  40515e:	00 00 
  405160:	bf 6c ec 40 00       	mov    $0x40ec6c,%edi
  405165:	b9 03 00 00 00       	mov    $0x3,%ecx
  40516a:	48 89 de             	mov    %rbx,%rsi
  40516d:	f3 a6                	repz cmpsb %es:(%rdi),%ds:(%rsi)
  40516f:	75 1f                	jne    405190 <parse_args+0x240>
  405171:	c7 05 5d 0e 21 00 01 	movl   $0x1,0x210e5d(%rip)        # 615fd8 <do_chroot>
  405178:	00 00 00 
  40517b:	c7 05 4b 0e 21 00 01 	movl   $0x1,0x210e4b(%rip)        # 615fd0 <no_symlink_check>
  405182:	00 00 00 
  405185:	e9 39 ff ff ff       	jmpq   4050c3 <parse_args+0x173>
  40518a:	66 0f 1f 44 00 00    	nopw   0x0(%rax,%rax,1)
  405190:	bf 6f ec 40 00       	mov    $0x40ec6f,%edi
  405195:	b9 05 00 00 00       	mov    $0x5,%ecx
  40519a:	48 89 de             	mov    %rbx,%rsi
  40519d:	f3 a6                	repz cmpsb %es:(%rdi),%ds:(%rsi)
  40519f:	75 37                	jne    4051d8 <parse_args+0x288>
  4051a1:	c7 05 2d 0e 21 00 00 	movl   $0x0,0x210e2d(%rip)        # 615fd8 <do_chroot>
  4051a8:	00 00 00 
  4051ab:	c7 05 1b 0e 21 00 00 	movl   $0x0,0x210e1b(%rip)        # 615fd0 <no_symlink_check>
  4051b2:	00 00 00 
  4051b5:	e9 09 ff ff ff       	jmpq   4050c3 <parse_args+0x173>
  4051ba:	66 0f 1f 44 00 00    	nopw   0x0(%rax,%rax,1)
  4051c0:	49 63 c7             	movslq %r15d,%rax
  4051c3:	44 89 fd             	mov    %r15d,%ebp
  4051c6:	49 8b 3c c6          	mov    (%r14,%rax,8),%rdi
  4051ca:	e8 11 f7 ff ff       	callq  4048e0 <read_config>
  4051cf:	e9 ef fe ff ff       	jmpq   4050c3 <parse_args+0x173>
  4051d4:	0f 1f 40 00          	nopl   0x0(%rax)
  4051d8:	bf 74 ec 40 00       	mov    $0x40ec74,%edi
  4051dd:	b9 04 00 00 00       	mov    $0x4,%ecx
  4051e2:	48 89 de             	mov    %rbx,%rsi
  4051e5:	f3 a6                	repz cmpsb %es:(%rdi),%ds:(%rsi)
  4051e7:	75 27                	jne    405210 <parse_args+0x2c0>
  4051e9:	8d 45 01             	lea    0x1(%rbp),%eax
  4051ec:	41 39 c5             	cmp    %eax,%r13d
  4051ef:	7e 1f                	jle    405210 <parse_args+0x2c0>
  4051f1:	48 63 d0             	movslq %eax,%rdx
  4051f4:	89 c5                	mov    %eax,%ebp
  4051f6:	49 8b 14 d6          	mov    (%r14,%rdx,8),%rdx
  4051fa:	48 89 15 df 0d 21 00 	mov    %rdx,0x210ddf(%rip)        # 615fe0 <data_dir>
  405201:	e9 bd fe ff ff       	jmpq   4050c3 <parse_args+0x173>
  405206:	66 2e 0f 1f 84 00 00 	nopw   %cs:0x0(%rax,%rax,1)
  40520d:	00 00 00 
  405210:	bf 78 ec 40 00       	mov    $0x40ec78,%edi
  405215:	b9 03 00 00 00       	mov    $0x3,%ecx
  40521a:	48 89 de             	mov    %rbx,%rsi
  40521d:	f3 a6                	repz cmpsb %es:(%rdi),%ds:(%rsi)
  40521f:	75 0f                	jne    405230 <parse_args+0x2e0>
  405221:	c7 05 a5 0d 21 00 00 	movl   $0x0,0x210da5(%rip)        # 615fd0 <no_symlink_check>
  405228:	00 00 00 
  40522b:	e9 93 fe ff ff       	jmpq   4050c3 <parse_args+0x173>
  405230:	bf 7b ec 40 00       	mov    $0x40ec7b,%edi
  405235:	b9 05 00 00 00       	mov    $0x5,%ecx
  40523a:	48 89 de             	mov    %rbx,%rsi
  40523d:	f3 a6                	repz cmpsb %es:(%rdi),%ds:(%rsi)
  40523f:	74 2e                	je     40526f <parse_args+0x31f>
  405241:	be 80 ec 40 00       	mov    $0x40ec80,%esi
  405246:	48 89 df             	mov    %rbx,%rdi
  405249:	e8 82 d3 ff ff       	callq  4025d0 <strcmp@plt>
  40524e:	85 c0                	test   %eax,%eax
  405250:	75 2c                	jne    40527e <parse_args+0x32e>
  405252:	8d 45 01             	lea    0x1(%rbp),%eax
  405255:	41 39 c5             	cmp    %eax,%r13d
  405258:	7e 24                	jle    40527e <parse_args+0x32e>
  40525a:	48 63 d0             	movslq %eax,%rdx
  40525d:	89 c5                	mov    %eax,%ebp
  40525f:	49 8b 14 d6          	mov    (%r14,%rdx,8),%rdx
  405263:	48 89 15 0e 0d 21 00 	mov    %rdx,0x210d0e(%rip)        # 615f78 <user>
  40526a:	e9 54 fe ff ff       	jmpq   4050c3 <parse_args+0x173>
  40526f:	c7 05 57 0d 21 00 01 	movl   $0x1,0x210d57(%rip)        # 615fd0 <no_symlink_check>
  405276:	00 00 00 
  405279:	e9 45 fe ff ff       	jmpq   4050c3 <parse_args+0x173>
  40527e:	be 83 ec 40 00       	mov    $0x40ec83,%esi
  405283:	48 89 df             	mov    %rbx,%rdi
  405286:	e8 45 d3 ff ff       	callq  4025d0 <strcmp@plt>
  40528b:	85 c0                	test   %eax,%eax
  40528d:	75 1d                	jne    4052ac <parse_args+0x35c>
  40528f:	8d 45 01             	lea    0x1(%rbp),%eax
  405292:	41 39 c5             	cmp    %eax,%r13d
  405295:	7e 15                	jle    4052ac <parse_args+0x35c>
  405297:	48 63 d0             	movslq %eax,%rdx
  40529a:	89 c5                	mov    %eax,%ebp
  40529c:	49 8b 14 d6          	mov    (%r14,%rdx,8),%rdx
  4052a0:	48 89 15 19 0d 21 00 	mov    %rdx,0x210d19(%rip)        # 615fc0 <cgi_pattern>
  4052a7:	e9 17 fe ff ff       	jmpq   4050c3 <parse_args+0x173>
  4052ac:	be 86 ec 40 00       	mov    $0x40ec86,%esi
  4052b1:	48 89 df             	mov    %rbx,%rdi
  4052b4:	e8 17 d3 ff ff       	callq  4025d0 <strcmp@plt>
  4052b9:	85 c0                	test   %eax,%eax
  4052bb:	74 2e                	je     4052eb <parse_args+0x39b>
  4052bd:	be 89 ec 40 00       	mov    $0x40ec89,%esi
  4052c2:	48 89 df             	mov    %rbx,%rdi
  4052c5:	e8 06 d3 ff ff       	callq  4025d0 <strcmp@plt>
  4052ca:	85 c0                	test   %eax,%eax
  4052cc:	75 6b                	jne    405339 <parse_args+0x3e9>
  4052ce:	8d 45 01             	lea    0x1(%rbp),%eax
  4052d1:	41 39 c5             	cmp    %eax,%r13d
  4052d4:	7e 43                	jle    405319 <parse_args+0x3c9>
  4052d6:	48 63 d0             	movslq %eax,%rdx
  4052d9:	89 c5                	mov    %eax,%ebp
  4052db:	49 8b 14 d6          	mov    (%r14,%rdx,8),%rdx
  4052df:	48 89 15 a2 0c 21 00 	mov    %rdx,0x210ca2(%rip)        # 615f88 <hostname>
  4052e6:	e9 d8 fd ff ff       	jmpq   4050c3 <parse_args+0x173>
  4052eb:	8d 45 01             	lea    0x1(%rbp),%eax
  4052ee:	41 39 c5             	cmp    %eax,%r13d
  4052f1:	7e 15                	jle    405308 <parse_args+0x3b8>
  4052f3:	48 63 d0             	movslq %eax,%rdx
  4052f6:	89 c5                	mov    %eax,%ebp
  4052f8:	49 8b 14 d6          	mov    (%r14,%rdx,8),%rdx
  4052fc:	48 89 15 8d 0c 21 00 	mov    %rdx,0x210c8d(%rip)        # 615f90 <throttlefile>
  405303:	e9 bb fd ff ff       	jmpq   4050c3 <parse_args+0x173>
  405308:	be 89 ec 40 00       	mov    $0x40ec89,%esi
  40530d:	48 89 df             	mov    %rbx,%rdi
  405310:	e8 bb d2 ff ff       	callq  4025d0 <strcmp@plt>
  405315:	85 c0                	test   %eax,%eax
  405317:	75 20                	jne    405339 <parse_args+0x3e9>
  405319:	be 8f ec 40 00       	mov    $0x40ec8f,%esi
  40531e:	48 89 df             	mov    %rbx,%rdi
  405321:	e8 aa d2 ff ff       	callq  4025d0 <strcmp@plt>
  405326:	85 c0                	test   %eax,%eax
  405328:	75 3d                	jne    405367 <parse_args+0x417>
  40532a:	c7 05 98 0c 21 00 01 	movl   $0x1,0x210c98(%rip)        # 615fcc <do_vhost>
  405331:	00 00 00 
  405334:	e9 8a fd ff ff       	jmpq   4050c3 <parse_args+0x173>
  405339:	be 8c ec 40 00       	mov    $0x40ec8c,%esi
  40533e:	48 89 df             	mov    %rbx,%rdi
  405341:	e8 8a d2 ff ff       	callq  4025d0 <strcmp@plt>
  405346:	85 c0                	test   %eax,%eax
  405348:	75 cf                	jne    405319 <parse_args+0x3c9>
  40534a:	8d 45 01             	lea    0x1(%rbp),%eax
  40534d:	41 39 c5             	cmp    %eax,%r13d
  405350:	7e c7                	jle    405319 <parse_args+0x3c9>
  405352:	48 63 d0             	movslq %eax,%rdx
  405355:	89 c5                	mov    %eax,%ebp
  405357:	49 8b 14 d6          	mov    (%r14,%rdx,8),%rdx
  40535b:	48 89 15 36 0c 21 00 	mov    %rdx,0x210c36(%rip)        # 615f98 <logfile>
  405362:	e9 5c fd ff ff       	jmpq   4050c3 <parse_args+0x173>
  405367:	be 92 ec 40 00       	mov    $0x40ec92,%esi
  40536c:	48 89 df             	mov    %rbx,%rdi
  40536f:	e8 5c d2 ff ff       	callq  4025d0 <strcmp@plt>
  405374:	85 c0                	test   %eax,%eax
  405376:	74 20                	je     405398 <parse_args+0x448>
  405378:	be 97 ec 40 00       	mov    $0x40ec97,%esi
  40537d:	48 89 df             	mov    %rbx,%rdi
  405380:	e8 4b d2 ff ff       	callq  4025d0 <strcmp@plt>
  405385:	85 c0                	test   %eax,%eax
  405387:	75 28                	jne    4053b1 <parse_args+0x461>
  405389:	c7 05 35 0c 21 00 01 	movl   $0x1,0x210c35(%rip)        # 615fc8 <do_global_passwd>
  405390:	00 00 00 
  405393:	e9 2b fd ff ff       	jmpq   4050c3 <parse_args+0x173>
  405398:	c7 05 2a 0c 21 00 00 	movl   $0x0,0x210c2a(%rip)        # 615fcc <do_vhost>
  40539f:	00 00 00 
  4053a2:	e9 1c fd ff ff       	jmpq   4050c3 <parse_args+0x173>
  4053a7:	bd 01 00 00 00       	mov    $0x1,%ebp
  4053ac:	e9 8e fd ff ff       	jmpq   40513f <parse_args+0x1ef>
  4053b1:	be 9a ec 40 00       	mov    $0x40ec9a,%esi
  4053b6:	48 89 df             	mov    %rbx,%rdi
  4053b9:	e8 12 d2 ff ff       	callq  4025d0 <strcmp@plt>
  4053be:	85 c0                	test   %eax,%eax
  4053c0:	75 20                	jne    4053e2 <parse_args+0x492>
  4053c2:	c7 05 fc 0b 21 00 00 	movl   $0x0,0x210bfc(%rip)        # 615fc8 <do_global_passwd>
  4053c9:	00 00 00 
  4053cc:	e9 f2 fc ff ff       	jmpq   4050c3 <parse_args+0x173>
  4053d1:	bf 49 ec 40 00       	mov    $0x40ec49,%edi
  4053d6:	e8 75 cf ff ff       	callq  402350 <puts@plt>
  4053db:	31 ff                	xor    %edi,%edi
  4053dd:	e8 ee d4 ff ff       	callq  4028d0 <exit@plt>
  4053e2:	be 9f ec 40 00       	mov    $0x40ec9f,%esi
  4053e7:	48 89 df             	mov    %rbx,%rdi
  4053ea:	e8 e1 d1 ff ff       	callq  4025d0 <strcmp@plt>
  4053ef:	85 c0                	test   %eax,%eax
  4053f1:	74 2e                	je     405421 <parse_args+0x4d1>
  4053f3:	be a2 ec 40 00       	mov    $0x40eca2,%esi
  4053f8:	48 89 df             	mov    %rbx,%rdi
  4053fb:	e8 d0 d1 ff ff       	callq  4025d0 <strcmp@plt>
  405400:	85 c0                	test   %eax,%eax
  405402:	75 7f                	jne    405483 <parse_args+0x533>
  405404:	8d 45 01             	lea    0x1(%rbp),%eax
  405407:	41 39 c5             	cmp    %eax,%r13d
  40540a:	7e 32                	jle    40543e <parse_args+0x4ee>
  40540c:	48 63 d0             	movslq %eax,%rdx
  40540f:	89 c5                	mov    %eax,%ebp
  405411:	49 8b 14 d6          	mov    (%r14,%rdx,8),%rdx
  405415:	48 89 15 54 0b 21 00 	mov    %rdx,0x210b54(%rip)        # 615f70 <charset>
  40541c:	e9 a2 fc ff ff       	jmpq   4050c3 <parse_args+0x173>
  405421:	8d 45 01             	lea    0x1(%rbp),%eax
  405424:	41 39 c5             	cmp    %eax,%r13d
  405427:	7e 15                	jle    40543e <parse_args+0x4ee>
  405429:	48 63 d0             	movslq %eax,%rdx
  40542c:	89 c5                	mov    %eax,%ebp
  40542e:	49 8b 14 d6          	mov    (%r14,%rdx,8),%rdx
  405432:	48 89 15 47 0b 21 00 	mov    %rdx,0x210b47(%rip)        # 615f80 <pidfile>
  405439:	e9 85 fc ff ff       	jmpq   4050c3 <parse_args+0x173>
  40543e:	be a5 ec 40 00       	mov    $0x40eca5,%esi
  405443:	48 89 df             	mov    %rbx,%rdi
  405446:	e8 85 d1 ff ff       	callq  4025d0 <strcmp@plt>
  40544b:	85 c0                	test   %eax,%eax
  40544d:	74 62                	je     4054b1 <parse_args+0x561>
  40544f:	be a8 ec 40 00       	mov    $0x40eca8,%esi
  405454:	48 89 df             	mov    %rbx,%rdi
  405457:	e8 74 d1 ff ff       	callq  4025d0 <strcmp@plt>
  40545c:	85 c0                	test   %eax,%eax
  40545e:	75 51                	jne    4054b1 <parse_args+0x561>
  405460:	44 8d 7d 01          	lea    0x1(%rbp),%r15d
  405464:	45 39 fd             	cmp    %r15d,%r13d
  405467:	7e 48                	jle    4054b1 <parse_args+0x561>
  405469:	49 63 c7             	movslq %r15d,%rax
  40546c:	44 89 fd             	mov    %r15d,%ebp
  40546f:	49 8b 3c c6          	mov    (%r14,%rax,8),%rdi
  405473:	e8 08 d4 ff ff       	callq  402880 <atoi@plt>
  405478:	89 05 e2 0a 21 00    	mov    %eax,0x210ae2(%rip)        # 615f60 <max_age>
  40547e:	e9 40 fc ff ff       	jmpq   4050c3 <parse_args+0x173>
  405483:	be a5 ec 40 00       	mov    $0x40eca5,%esi
  405488:	48 89 df             	mov    %rbx,%rdi
  40548b:	e8 40 d1 ff ff       	callq  4025d0 <strcmp@plt>
  405490:	85 c0                	test   %eax,%eax
  405492:	75 bb                	jne    40544f <parse_args+0x4ff>
  405494:	8d 45 01             	lea    0x1(%rbp),%eax
  405497:	41 39 c5             	cmp    %eax,%r13d
  40549a:	7e 15                	jle    4054b1 <parse_args+0x561>
  40549c:	48 63 d0             	movslq %eax,%rdx
  40549f:	89 c5                	mov    %eax,%ebp
  4054a1:	49 8b 14 d6          	mov    (%r14,%rdx,8),%rdx
  4054a5:	48 89 15 bc 0a 21 00 	mov    %rdx,0x210abc(%rip)        # 615f68 <p3p>
  4054ac:	e9 12 fc ff ff       	jmpq   4050c3 <parse_args+0x173>
  4054b1:	be ab ec 40 00       	mov    $0x40ecab,%esi
  4054b6:	48 89 df             	mov    %rbx,%rdi
  4054b9:	e8 12 d1 ff ff       	callq  4025d0 <strcmp@plt>
  4054be:	85 c0                	test   %eax,%eax
  4054c0:	75 0f                	jne    4054d1 <parse_args+0x581>
  4054c2:	c7 05 28 0b 21 00 01 	movl   $0x1,0x210b28(%rip)        # 615ff4 <debug>
  4054c9:	00 00 00 
  4054cc:	e9 f2 fb ff ff       	jmpq   4050c3 <parse_args+0x173>
  4054d1:	e8 ea d4 ff ff       	callq  4029c0 <usage>
  4054d6:	66 2e 0f 1f 84 00 00 	nopw   %cs:0x0(%rax,%rax,1)
  4054dd:	00 00 00 

00000000004054e0 <read_throttlefile>:
  4054e0:	41 56                	push   %r14
  4054e2:	41 55                	push   %r13
  4054e4:	be 6d ec 40 00       	mov    $0x40ec6d,%esi
  4054e9:	41 54                	push   %r12
  4054eb:	55                   	push   %rbp
  4054ec:	48 89 fd             	mov    %rdi,%rbp
  4054ef:	53                   	push   %rbx
  4054f0:	48 81 ec 40 27 00 00 	sub    $0x2740,%rsp
  4054f7:	e8 34 d3 ff ff       	callq  402830 <fopen@plt>
  4054fc:	48 85 c0             	test   %rax,%rax
  4054ff:	0f 84 f0 02 00 00    	je     4057f5 <read_throttlefile+0x315>
  405505:	48 8d 7c 24 10       	lea    0x10(%rsp),%rdi
  40550a:	4c 8d 6c 24 20       	lea    0x20(%rsp),%r13
  40550f:	4c 8d a4 24 b1 13 00 	lea    0x13b1(%rsp),%r12
  405516:	00 
  405517:	31 f6                	xor    %esi,%esi
  405519:	48 89 c3             	mov    %rax,%rbx
  40551c:	e8 9f cf ff ff       	callq  4024c0 <gettimeofday@plt>
  405521:	0f 1f 80 00 00 00 00 	nopl   0x0(%rax)
  405528:	48 89 da             	mov    %rbx,%rdx
  40552b:	be 88 13 00 00       	mov    $0x1388,%esi
  405530:	4c 89 ef             	mov    %r13,%rdi
  405533:	e8 68 d0 ff ff       	callq  4025a0 <fgets@plt>
  405538:	48 85 c0             	test   %rax,%rax
  40553b:	0f 84 87 02 00 00    	je     4057c8 <read_throttlefile+0x2e8>
  405541:	be 23 00 00 00       	mov    $0x23,%esi
  405546:	4c 89 ef             	mov    %r13,%rdi
  405549:	e8 32 cf ff ff       	callq  402480 <strchr@plt>
  40554e:	48 85 c0             	test   %rax,%rax
  405551:	74 03                	je     405556 <read_throttlefile+0x76>
  405553:	c6 00 00             	movb   $0x0,(%rax)
  405556:	4c 89 e8             	mov    %r13,%rax
  405559:	8b 08                	mov    (%rax),%ecx
  40555b:	48 83 c0 04          	add    $0x4,%rax
  40555f:	8d 91 ff fe fe fe    	lea    -0x1010101(%rcx),%edx
  405565:	f7 d1                	not    %ecx
  405567:	21 ca                	and    %ecx,%edx
  405569:	81 e2 80 80 80 80    	and    $0x80808080,%edx
  40556f:	74 e8                	je     405559 <read_throttlefile+0x79>
  405571:	89 d1                	mov    %edx,%ecx
  405573:	c1 e9 10             	shr    $0x10,%ecx
  405576:	f7 c2 80 80 00 00    	test   $0x8080,%edx
  40557c:	0f 44 d1             	cmove  %ecx,%edx
  40557f:	48 8d 48 02          	lea    0x2(%rax),%rcx
  405583:	89 d7                	mov    %edx,%edi
  405585:	48 0f 44 c1          	cmove  %rcx,%rax
  405589:	40 00 d7             	add    %dl,%dil
  40558c:	48 83 d8 03          	sbb    $0x3,%rax
  405590:	4c 29 e8             	sub    %r13,%rax
  405593:	85 c0                	test   %eax,%eax
  405595:	89 c2                	mov    %eax,%edx
  405597:	0f 8e ac 01 00 00    	jle    405749 <read_throttlefile+0x269>
  40559d:	8d 50 ff             	lea    -0x1(%rax),%edx
  4055a0:	48 63 c2             	movslq %edx,%rax
  4055a3:	0f b6 7c 04 20       	movzbl 0x20(%rsp,%rax,1),%edi
  4055a8:	40 80 ff 20          	cmp    $0x20,%dil
  4055ac:	0f 86 4e 01 00 00    	jbe    405700 <read_throttlefile+0x220>
  4055b2:	66 0f 1f 44 00 00    	nopw   0x0(%rax,%rax,1)
  4055b8:	48 8d 4c 24 08       	lea    0x8(%rsp),%rcx
  4055bd:	48 8d 94 24 b0 13 00 	lea    0x13b0(%rsp),%rdx
  4055c4:	00 
  4055c5:	31 c0                	xor    %eax,%eax
  4055c7:	49 89 e0             	mov    %rsp,%r8
  4055ca:	be ae ec 40 00       	mov    $0x40ecae,%esi
  4055cf:	4c 89 ef             	mov    %r13,%rdi
  4055d2:	e8 09 d1 ff ff       	callq  4026e0 <__isoc99_sscanf@plt>
  4055d7:	83 f8 03             	cmp    $0x3,%eax
  4055da:	74 34                	je     405610 <read_throttlefile+0x130>
  4055dc:	48 8d 94 24 b0 13 00 	lea    0x13b0(%rsp),%rdx
  4055e3:	00 
  4055e4:	31 c0                	xor    %eax,%eax
  4055e6:	48 89 e1             	mov    %rsp,%rcx
  4055e9:	be c2 ec 40 00       	mov    $0x40ecc2,%esi
  4055ee:	4c 89 ef             	mov    %r13,%rdi
  4055f1:	e8 ea d0 ff ff       	callq  4026e0 <__isoc99_sscanf@plt>
  4055f6:	83 f8 02             	cmp    $0x2,%eax
  4055f9:	0f 85 57 01 00 00    	jne    405756 <read_throttlefile+0x276>
  4055ff:	48 c7 44 24 08 00 00 	movq   $0x0,0x8(%rsp)
  405606:	00 00 
  405608:	0f 1f 84 00 00 00 00 	nopl   0x0(%rax,%rax,1)
  40560f:	00 
  405610:	80 bc 24 b0 13 00 00 	cmpb   $0x2f,0x13b0(%rsp)
  405617:	2f 
  405618:	75 13                	jne    40562d <read_throttlefile+0x14d>
  40561a:	e9 c1 01 00 00       	jmpq   4057e0 <read_throttlefile+0x300>
  40561f:	90                   	nop
  405620:	48 8d 70 02          	lea    0x2(%rax),%rsi
  405624:	48 8d 78 01          	lea    0x1(%rax),%rdi
  405628:	e8 f3 cc ff ff       	callq  402320 <strcpy@plt>
  40562d:	48 8d bc 24 b0 13 00 	lea    0x13b0(%rsp),%rdi
  405634:	00 
  405635:	be d2 ec 40 00       	mov    $0x40ecd2,%esi
  40563a:	e8 21 d3 ff ff       	callq  402960 <strstr@plt>
  40563f:	48 85 c0             	test   %rax,%rax
  405642:	75 dc                	jne    405620 <read_throttlefile+0x140>
  405644:	48 63 15 09 09 21 00 	movslq 0x210909(%rip),%rdx        # 615f54 <numthrottles>
  40564b:	8b 05 ff 08 21 00    	mov    0x2108ff(%rip),%eax        # 615f50 <maxthrottles>
  405651:	39 c2                	cmp    %eax,%edx
  405653:	0f 8c 63 01 00 00    	jl     4057bc <read_throttlefile+0x2dc>
  405659:	85 c0                	test   %eax,%eax
  40565b:	0f 85 31 01 00 00    	jne    405792 <read_throttlefile+0x2b2>
  405661:	bf c0 12 00 00       	mov    $0x12c0,%edi
  405666:	c7 05 e0 08 21 00 64 	movl   $0x64,0x2108e0(%rip)        # 615f50 <maxthrottles>
  40566d:	00 00 00 
  405670:	e8 2b d0 ff ff       	callq  4026a0 <malloc@plt>
  405675:	48 89 05 dc 08 21 00 	mov    %rax,0x2108dc(%rip)        # 615f58 <throttles>
  40567c:	48 85 c0             	test   %rax,%rax
  40567f:	0f 84 96 01 00 00    	je     40581b <read_throttlefile+0x33b>
  405685:	48 63 15 c8 08 21 00 	movslq 0x2108c8(%rip),%rdx        # 615f54 <numthrottles>
  40568c:	4c 8d 34 52          	lea    (%rdx,%rdx,2),%r14
  405690:	48 8d bc 24 b0 13 00 	lea    0x13b0(%rsp),%rdi
  405697:	00 
  405698:	49 c1 e6 04          	shl    $0x4,%r14
  40569c:	49 01 c6             	add    %rax,%r14
  40569f:	e8 ec f1 ff ff       	callq  404890 <e_strdup>
  4056a4:	49 89 06             	mov    %rax,(%r14)
  4056a7:	48 63 05 a6 08 21 00 	movslq 0x2108a6(%rip),%rax        # 615f54 <numthrottles>
  4056ae:	48 8b 0c 24          	mov    (%rsp),%rcx
  4056b2:	48 89 c2             	mov    %rax,%rdx
  4056b5:	48 8d 04 40          	lea    (%rax,%rax,2),%rax
  4056b9:	83 c2 01             	add    $0x1,%edx
  4056bc:	48 c1 e0 04          	shl    $0x4,%rax
  4056c0:	48 03 05 91 08 21 00 	add    0x210891(%rip),%rax        # 615f58 <throttles>
  4056c7:	89 15 87 08 21 00    	mov    %edx,0x210887(%rip)        # 615f54 <numthrottles>
  4056cd:	48 89 48 08          	mov    %rcx,0x8(%rax)
  4056d1:	48 8b 4c 24 08       	mov    0x8(%rsp),%rcx
  4056d6:	48 c7 40 18 00 00 00 	movq   $0x0,0x18(%rax)
  4056dd:	00 
  4056de:	48 c7 40 20 00 00 00 	movq   $0x0,0x20(%rax)
  4056e5:	00 
  4056e6:	c7 40 28 00 00 00 00 	movl   $0x0,0x28(%rax)
  4056ed:	48 89 48 10          	mov    %rcx,0x10(%rax)
  4056f1:	e9 32 fe ff ff       	jmpq   405528 <read_throttlefile+0x48>
  4056f6:	66 2e 0f 1f 84 00 00 	nopw   %cs:0x0(%rax,%rax,1)
  4056fd:	00 00 00 
  405700:	49 b8 00 26 00 00 01 	movabs $0x100002600,%r8
  405707:	00 00 00 
  40570a:	89 d2                	mov    %edx,%edx
  40570c:	48 89 c1             	mov    %rax,%rcx
  40570f:	48 29 d1             	sub    %rdx,%rcx
  405712:	49 0f a3 f8          	bt     %rdi,%r8
  405716:	4c 89 c6             	mov    %r8,%rsi
  405719:	72 21                	jb     40573c <read_throttlefile+0x25c>
  40571b:	e9 98 fe ff ff       	jmpq   4055b8 <read_throttlefile+0xd8>
  405720:	0f b6 54 04 1f       	movzbl 0x1f(%rsp,%rax,1),%edx
  405725:	80 fa 20             	cmp    $0x20,%dl
  405728:	0f 87 8a fe ff ff    	ja     4055b8 <read_throttlefile+0xd8>
  40572e:	48 83 e8 01          	sub    $0x1,%rax
  405732:	48 0f a3 d6          	bt     %rdx,%rsi
  405736:	0f 83 7c fe ff ff    	jae    4055b8 <read_throttlefile+0xd8>
  40573c:	48 39 c8             	cmp    %rcx,%rax
  40573f:	89 c2                	mov    %eax,%edx
  405741:	41 c6 44 05 00 00    	movb   $0x0,0x0(%r13,%rax,1)
  405747:	75 d7                	jne    405720 <read_throttlefile+0x240>
  405749:	85 d2                	test   %edx,%edx
  40574b:	0f 84 d7 fd ff ff    	je     405528 <read_throttlefile+0x48>
  405751:	e9 62 fe ff ff       	jmpq   4055b8 <read_throttlefile+0xd8>
  405756:	4c 89 e9             	mov    %r13,%rcx
  405759:	48 89 ea             	mov    %rbp,%rdx
  40575c:	31 c0                	xor    %eax,%eax
  40575e:	be 20 e7 40 00       	mov    $0x40e720,%esi
  405763:	bf 02 00 00 00       	mov    $0x2,%edi
  405768:	e8 83 cf ff ff       	callq  4026f0 <syslog@plt>
  40576d:	48 8b 15 84 08 21 00 	mov    0x210884(%rip),%rdx        # 615ff8 <argv0>
  405774:	48 8b 3d 95 07 21 00 	mov    0x210795(%rip),%rdi        # 615f10 <stderr@@GLIBC_2.2.5>
  40577b:	4d 89 e8             	mov    %r13,%r8
  40577e:	48 89 e9             	mov    %rbp,%rcx
  405781:	be 48 e7 40 00       	mov    $0x40e748,%esi
  405786:	31 c0                	xor    %eax,%eax
  405788:	e8 63 ce ff ff       	callq  4025f0 <fprintf@plt>
  40578d:	e9 96 fd ff ff       	jmpq   405528 <read_throttlefile+0x48>
  405792:	01 c0                	add    %eax,%eax
  405794:	48 8b 3d bd 07 21 00 	mov    0x2107bd(%rip),%rdi        # 615f58 <throttles>
  40579b:	89 05 af 07 21 00    	mov    %eax,0x2107af(%rip)        # 615f50 <maxthrottles>
  4057a1:	48 98                	cltq   
  4057a3:	48 8d 34 40          	lea    (%rax,%rax,2),%rsi
  4057a7:	48 c1 e6 04          	shl    $0x4,%rsi
  4057ab:	e8 a0 cf ff ff       	callq  402750 <realloc@plt>
  4057b0:	48 89 05 a1 07 21 00 	mov    %rax,0x2107a1(%rip)        # 615f58 <throttles>
  4057b7:	e9 c0 fe ff ff       	jmpq   40567c <read_throttlefile+0x19c>
  4057bc:	48 8b 05 95 07 21 00 	mov    0x210795(%rip),%rax        # 615f58 <throttles>
  4057c3:	e9 c4 fe ff ff       	jmpq   40568c <read_throttlefile+0x1ac>
  4057c8:	48 89 df             	mov    %rbx,%rdi
  4057cb:	e8 10 cc ff ff       	callq  4023e0 <fclose@plt>
  4057d0:	48 81 c4 40 27 00 00 	add    $0x2740,%rsp
  4057d7:	5b                   	pop    %rbx
  4057d8:	5d                   	pop    %rbp
  4057d9:	41 5c                	pop    %r12
  4057db:	41 5d                	pop    %r13
  4057dd:	41 5e                	pop    %r14
  4057df:	c3                   	retq   
  4057e0:	48 8d bc 24 b0 13 00 	lea    0x13b0(%rsp),%rdi
  4057e7:	00 
  4057e8:	4c 89 e6             	mov    %r12,%rsi
  4057eb:	e8 30 cb ff ff       	callq  402320 <strcpy@plt>
  4057f0:	e9 38 fe ff ff       	jmpq   40562d <read_throttlefile+0x14d>
  4057f5:	48 89 ea             	mov    %rbp,%rdx
  4057f8:	be 11 f2 40 00       	mov    $0x40f211,%esi
  4057fd:	bf 02 00 00 00       	mov    $0x2,%edi
  405802:	31 c0                	xor    %eax,%eax
  405804:	e8 e7 ce ff ff       	callq  4026f0 <syslog@plt>
  405809:	48 89 ef             	mov    %rbp,%rdi
  40580c:	e8 2f d0 ff ff       	callq  402840 <perror@plt>
  405811:	bf 01 00 00 00       	mov    $0x1,%edi
  405816:	e8 b5 d0 ff ff       	callq  4028d0 <exit@plt>
  40581b:	be 70 e7 40 00       	mov    $0x40e770,%esi
  405820:	bf 02 00 00 00       	mov    $0x2,%edi
  405825:	31 c0                	xor    %eax,%eax
  405827:	e8 c4 ce ff ff       	callq  4026f0 <syslog@plt>
  40582c:	48 8b 3d dd 06 21 00 	mov    0x2106dd(%rip),%rdi        # 615f10 <stderr@@GLIBC_2.2.5>
  405833:	48 8b 15 be 07 21 00 	mov    0x2107be(%rip),%rdx        # 615ff8 <argv0>
  40583a:	be 98 e7 40 00       	mov    $0x40e798,%esi
  40583f:	31 c0                	xor    %eax,%eax
  405841:	e8 aa cd ff ff       	callq  4025f0 <fprintf@plt>
  405846:	bf 01 00 00 00       	mov    $0x1,%edi
  40584b:	e8 80 d0 ff ff       	callq  4028d0 <exit@plt>

0000000000405850 <re_open_logfile>:
  405850:	8b 05 7e 07 21 00    	mov    0x21077e(%rip),%eax        # 615fd4 <no_log>
  405856:	85 c0                	test   %eax,%eax
  405858:	75 24                	jne    40587e <re_open_logfile+0x2e>
  40585a:	48 83 3d ce 06 21 00 	cmpq   $0x0,0x2106ce(%rip)        # 615f30 <hs>
  405861:	00 
  405862:	74 1a                	je     40587e <re_open_logfile+0x2e>
  405864:	48 8b 35 2d 07 21 00 	mov    0x21072d(%rip),%rsi        # 615f98 <logfile>
  40586b:	48 85 f6             	test   %rsi,%rsi
  40586e:	74 0e                	je     40587e <re_open_logfile+0x2e>
  405870:	bf 59 f6 40 00       	mov    $0x40f659,%edi
  405875:	b9 02 00 00 00       	mov    $0x2,%ecx
  40587a:	f3 a6                	repz cmpsb %es:(%rdi),%ds:(%rsi)
  40587c:	75 02                	jne    405880 <re_open_logfile+0x30>
  40587e:	f3 c3                	repz retq 
  405880:	55                   	push   %rbp
  405881:	53                   	push   %rbx
  405882:	31 c0                	xor    %eax,%eax
  405884:	be d5 ec 40 00       	mov    $0x40ecd5,%esi
  405889:	bf 05 00 00 00       	mov    $0x5,%edi
  40588e:	48 83 ec 08          	sub    $0x8,%rsp
  405892:	e8 59 ce ff ff       	callq  4026f0 <syslog@plt>
  405897:	48 8b 3d fa 06 21 00 	mov    0x2106fa(%rip),%rdi        # 615f98 <logfile>
  40589e:	be 87 fb 40 00       	mov    $0x40fb87,%esi
  4058a3:	e8 88 cf ff ff       	callq  402830 <fopen@plt>
  4058a8:	48 8b 2d e9 06 21 00 	mov    0x2106e9(%rip),%rbp        # 615f98 <logfile>
  4058af:	48 89 c3             	mov    %rax,%rbx
  4058b2:	be 80 01 00 00       	mov    $0x180,%esi
  4058b7:	48 89 ef             	mov    %rbp,%rdi
  4058ba:	e8 d1 ce ff ff       	callq  402790 <chmod@plt>
  4058bf:	48 85 db             	test   %rbx,%rbx
  4058c2:	74 3c                	je     405900 <re_open_logfile+0xb0>
  4058c4:	85 c0                	test   %eax,%eax
  4058c6:	75 38                	jne    405900 <re_open_logfile+0xb0>
  4058c8:	48 89 df             	mov    %rbx,%rdi
  4058cb:	e8 80 cd ff ff       	callq  402650 <fileno@plt>
  4058d0:	be 02 00 00 00       	mov    $0x2,%esi
  4058d5:	89 c7                	mov    %eax,%edi
  4058d7:	ba 01 00 00 00       	mov    $0x1,%edx
  4058dc:	31 c0                	xor    %eax,%eax
  4058de:	e8 cd ca ff ff       	callq  4023b0 <fcntl@plt>
  4058e3:	48 8b 3d 46 06 21 00 	mov    0x210646(%rip),%rdi        # 615f30 <hs>
  4058ea:	48 83 c4 08          	add    $0x8,%rsp
  4058ee:	48 89 de             	mov    %rbx,%rsi
  4058f1:	5b                   	pop    %rbx
  4058f2:	5d                   	pop    %rbp
  4058f3:	e9 28 21 00 00       	jmpq   407a20 <httpd_set_logfp>
  4058f8:	0f 1f 84 00 00 00 00 	nopl   0x0(%rax,%rax,1)
  4058ff:	00 
  405900:	48 83 c4 08          	add    $0x8,%rsp
  405904:	48 89 ea             	mov    %rbp,%rdx
  405907:	be e8 ec 40 00       	mov    $0x40ece8,%esi
  40590c:	5b                   	pop    %rbx
  40590d:	5d                   	pop    %rbp
  40590e:	bf 02 00 00 00       	mov    $0x2,%edi
  405913:	31 c0                	xor    %eax,%eax
  405915:	e9 d6 cd ff ff       	jmpq   4026f0 <syslog@plt>
  40591a:	66 0f 1f 44 00 00    	nopw   0x0(%rax,%rax,1)

0000000000405920 <handle_newconnect>:
  405920:	41 54                	push   %r12
  405922:	55                   	push   %rbp
  405923:	49 89 fc             	mov    %rdi,%r12
  405926:	53                   	push   %rbx
  405927:	89 f5                	mov    %esi,%ebp
  405929:	48 83 ec 10          	sub    $0x10,%rsp
  40592d:	8b 05 11 06 21 00    	mov    0x210611(%rip),%eax        # 615f44 <num_connects>
  405933:	39 05 07 06 21 00    	cmp    %eax,0x210607(%rip)        # 615f40 <max_connects>
  405939:	0f 8e 41 01 00 00    	jle    405a80 <handle_newconnect+0x160>
  40593f:	48 63 05 f6 05 21 00 	movslq 0x2105f6(%rip),%rax        # 615f3c <first_free_connect>
  405946:	83 f8 ff             	cmp    $0xffffffff,%eax
  405949:	0f 84 51 01 00 00    	je     405aa0 <handle_newconnect+0x180>
  40594f:	48 8d 1c c0          	lea    (%rax,%rax,8),%rbx
  405953:	48 c1 e3 04          	shl    $0x4,%rbx
  405957:	48 03 1d ea 05 21 00 	add    0x2105ea(%rip),%rbx        # 615f48 <connects>
  40595e:	8b 03                	mov    (%rbx),%eax
  405960:	85 c0                	test   %eax,%eax
  405962:	0f 85 38 01 00 00    	jne    405aa0 <handle_newconnect+0x180>
  405968:	48 8b 53 08          	mov    0x8(%rbx),%rdx
  40596c:	48 85 d2             	test   %rdx,%rdx
  40596f:	0f 84 db 00 00 00    	je     405a50 <handle_newconnect+0x130>
  405975:	48 8b 3d b4 05 21 00 	mov    0x2105b4(%rip),%rdi        # 615f30 <hs>
  40597c:	89 ee                	mov    %ebp,%esi
  40597e:	e8 dd 36 00 00       	callq  409060 <httpd_get_conn>
  405983:	85 c0                	test   %eax,%eax
  405985:	0f 84 a5 00 00 00    	je     405a30 <handle_newconnect+0x110>
  40598b:	83 f8 02             	cmp    $0x2,%eax
  40598e:	75 10                	jne    4059a0 <handle_newconnect+0x80>
  405990:	b8 01 00 00 00       	mov    $0x1,%eax
  405995:	48 83 c4 10          	add    $0x10,%rsp
  405999:	5b                   	pop    %rbx
  40599a:	5d                   	pop    %rbp
  40599b:	41 5c                	pop    %r12
  40599d:	c3                   	retq   
  40599e:	66 90                	xchg   %ax,%ax
  4059a0:	8b 43 04             	mov    0x4(%rbx),%eax
  4059a3:	c7 03 01 00 00 00    	movl   $0x1,(%rbx)
  4059a9:	c7 43 04 ff ff ff ff 	movl   $0xffffffff,0x4(%rbx)
  4059b0:	83 05 8d 05 21 00 01 	addl   $0x1,0x21058d(%rip)        # 615f44 <num_connects>
  4059b7:	89 05 7f 05 21 00    	mov    %eax,0x21057f(%rip)        # 615f3c <first_free_connect>
  4059bd:	49 8b 04 24          	mov    (%r12),%rax
  4059c1:	48 c7 43 60 00 00 00 	movq   $0x0,0x60(%rbx)
  4059c8:	00 
  4059c9:	48 c7 43 68 00 00 00 	movq   $0x0,0x68(%rbx)
  4059d0:	00 
  4059d1:	48 89 43 58          	mov    %rax,0x58(%rbx)
  4059d5:	48 8b 43 08          	mov    0x8(%rbx),%rax
  4059d9:	48 c7 83 88 00 00 00 	movq   $0x0,0x88(%rbx)
  4059e0:	00 00 00 00 
  4059e4:	c7 43 38 00 00 00 00 	movl   $0x0,0x38(%rbx)
  4059eb:	8b b8 c0 02 00 00    	mov    0x2c0(%rax),%edi
  4059f1:	e8 aa 20 00 00       	callq  407aa0 <httpd_set_ndelay>
  4059f6:	48 8b 43 08          	mov    0x8(%rbx),%rax
  4059fa:	31 d2                	xor    %edx,%edx
  4059fc:	48 89 de             	mov    %rbx,%rsi
  4059ff:	8b b8 c0 02 00 00    	mov    0x2c0(%rax),%edi
  405a05:	e8 e6 12 00 00       	callq  406cf0 <fdwatch_add_fd>
  405a0a:	48 83 05 ce 0d 21 00 	addq   $0x1,0x210dce(%rip)        # 6167e0 <stats_connections>
  405a11:	01 
  405a12:	8b 05 2c 05 21 00    	mov    0x21052c(%rip),%eax        # 615f44 <num_connects>
  405a18:	3b 05 aa 0d 21 00    	cmp    0x210daa(%rip),%eax        # 6167c8 <stats_simultaneous>
  405a1e:	0f 8e 0f ff ff ff    	jle    405933 <handle_newconnect+0x13>
  405a24:	89 05 9e 0d 21 00    	mov    %eax,0x210d9e(%rip)        # 6167c8 <stats_simultaneous>
  405a2a:	e9 04 ff ff ff       	jmpq   405933 <handle_newconnect+0x13>
  405a2f:	90                   	nop
  405a30:	4c 89 e7             	mov    %r12,%rdi
  405a33:	89 44 24 0c          	mov    %eax,0xc(%rsp)
  405a37:	e8 f4 7c 00 00       	callq  40d730 <tmr_run>
  405a3c:	8b 44 24 0c          	mov    0xc(%rsp),%eax
  405a40:	48 83 c4 10          	add    $0x10,%rsp
  405a44:	5b                   	pop    %rbx
  405a45:	5d                   	pop    %rbp
  405a46:	41 5c                	pop    %r12
  405a48:	c3                   	retq   
  405a49:	0f 1f 80 00 00 00 00 	nopl   0x0(%rax)
  405a50:	bf d0 02 00 00       	mov    $0x2d0,%edi
  405a55:	e8 46 cc ff ff       	callq  4026a0 <malloc@plt>
  405a5a:	48 85 c0             	test   %rax,%rax
  405a5d:	48 89 43 08          	mov    %rax,0x8(%rbx)
  405a61:	74 58                	je     405abb <handle_newconnect+0x19b>
  405a63:	c7 00 00 00 00 00    	movl   $0x0,(%rax)
  405a69:	83 05 c8 04 21 00 01 	addl   $0x1,0x2104c8(%rip)        # 615f38 <httpd_conn_count>
  405a70:	48 89 c2             	mov    %rax,%rdx
  405a73:	e9 fd fe ff ff       	jmpq   405975 <handle_newconnect+0x55>
  405a78:	0f 1f 84 00 00 00 00 	nopl   0x0(%rax,%rax,1)
  405a7f:	00 
  405a80:	31 c0                	xor    %eax,%eax
  405a82:	be fe ec 40 00       	mov    $0x40ecfe,%esi
  405a87:	bf 04 00 00 00       	mov    $0x4,%edi
  405a8c:	e8 5f cc ff ff       	callq  4026f0 <syslog@plt>
  405a91:	4c 89 e7             	mov    %r12,%rdi
  405a94:	e8 97 7c 00 00       	callq  40d730 <tmr_run>
  405a99:	31 c0                	xor    %eax,%eax
  405a9b:	e9 f5 fe ff ff       	jmpq   405995 <handle_newconnect+0x75>
  405aa0:	bf 02 00 00 00       	mov    $0x2,%edi
  405aa5:	be c8 e7 40 00       	mov    $0x40e7c8,%esi
  405aaa:	31 c0                	xor    %eax,%eax
  405aac:	e8 3f cc ff ff       	callq  4026f0 <syslog@plt>
  405ab1:	bf 01 00 00 00       	mov    $0x1,%edi
  405ab6:	e8 15 ce ff ff       	callq  4028d0 <exit@plt>
  405abb:	bf 02 00 00 00       	mov    $0x2,%edi
  405ac0:	be f0 e7 40 00       	mov    $0x40e7f0,%esi
  405ac5:	e8 26 cc ff ff       	callq  4026f0 <syslog@plt>
  405aca:	bf 01 00 00 00       	mov    $0x1,%edi
  405acf:	e8 fc cd ff ff       	callq  4028d0 <exit@plt>
  405ad4:	66 90                	xchg   %ax,%ax
  405ad6:	66 2e 0f 1f 84 00 00 	nopw   %cs:0x0(%rax,%rax,1)
  405add:	00 00 00 

0000000000405ae0 <check_throttles>:
  405ae0:	48 c7 c0 ff ff ff ff 	mov    $0xffffffffffffffff,%rax
  405ae7:	c7 47 38 00 00 00 00 	movl   $0x0,0x38(%rdi)
  405aee:	48 89 47 48          	mov    %rax,0x48(%rdi)
  405af2:	48 89 47 40          	mov    %rax,0x40(%rdi)
  405af6:	8b 05 58 04 21 00    	mov    0x210458(%rip),%eax        # 615f54 <numthrottles>
  405afc:	85 c0                	test   %eax,%eax
  405afe:	0f 8e 3b 01 00 00    	jle    405c3f <check_throttles+0x15f>
  405b04:	41 54                	push   %r12
  405b06:	45 31 e4             	xor    %r12d,%r12d
  405b09:	55                   	push   %rbp
  405b0a:	31 ed                	xor    %ebp,%ebp
  405b0c:	53                   	push   %rbx
  405b0d:	48 89 fb             	mov    %rdi,%rbx
  405b10:	eb 30                	jmp    405b42 <check_throttles+0x62>
  405b12:	66 0f 1f 44 00 00    	nopw   0x0(%rax,%rax,1)
  405b18:	48 39 f8             	cmp    %rdi,%rax
  405b1b:	48 0f 4c c7          	cmovl  %rdi,%rax
  405b1f:	48 89 43 48          	mov    %rax,0x48(%rbx)
  405b23:	41 83 c4 01          	add    $0x1,%r12d
  405b27:	44 39 25 26 04 21 00 	cmp    %r12d,0x210426(%rip)        # 615f54 <numthrottles>
  405b2e:	0f 8e b7 00 00 00    	jle    405beb <check_throttles+0x10b>
  405b34:	48 83 c5 30          	add    $0x30,%rbp
  405b38:	83 7b 38 09          	cmpl   $0x9,0x38(%rbx)
  405b3c:	0f 8f a9 00 00 00    	jg     405beb <check_throttles+0x10b>
  405b42:	48 8b 43 08          	mov    0x8(%rbx),%rax
  405b46:	48 8b b0 f0 00 00 00 	mov    0xf0(%rax),%rsi
  405b4d:	48 8b 05 04 04 21 00 	mov    0x210404(%rip),%rax        # 615f58 <throttles>
  405b54:	48 8b 3c 28          	mov    (%rax,%rbp,1),%rdi
  405b58:	e8 a3 87 00 00       	callq  40e300 <match>
  405b5d:	85 c0                	test   %eax,%eax
  405b5f:	74 c2                	je     405b23 <check_throttles+0x43>
  405b61:	48 89 ea             	mov    %rbp,%rdx
  405b64:	48 03 15 ed 03 21 00 	add    0x2103ed(%rip),%rdx        # 615f58 <throttles>
  405b6b:	48 8b 42 08          	mov    0x8(%rdx),%rax
  405b6f:	48 8b 4a 18          	mov    0x18(%rdx),%rcx
  405b73:	48 8d 34 00          	lea    (%rax,%rax,1),%rsi
  405b77:	48 39 f1             	cmp    %rsi,%rcx
  405b7a:	0f 8f b8 00 00 00    	jg     405c38 <check_throttles+0x158>
  405b80:	48 8b 7a 10          	mov    0x10(%rdx),%rdi
  405b84:	48 39 f9             	cmp    %rdi,%rcx
  405b87:	0f 8c ab 00 00 00    	jl     405c38 <check_throttles+0x158>
  405b8d:	8b 4a 28             	mov    0x28(%rdx),%ecx
  405b90:	85 c9                	test   %ecx,%ecx
  405b92:	78 64                	js     405bf8 <check_throttles+0x118>
  405b94:	83 c1 01             	add    $0x1,%ecx
  405b97:	4c 63 c1             	movslq %ecx,%r8
  405b9a:	48 63 73 38          	movslq 0x38(%rbx),%rsi
  405b9e:	44 8d 4e 01          	lea    0x1(%rsi),%r9d
  405ba2:	44 89 4b 38          	mov    %r9d,0x38(%rbx)
  405ba6:	44 89 64 b3 10       	mov    %r12d,0x10(%rbx,%rsi,4)
  405bab:	89 4a 28             	mov    %ecx,0x28(%rdx)
  405bae:	48 99                	cqto   
  405bb0:	49 f7 f8             	idiv   %r8
  405bb3:	48 8b 53 40          	mov    0x40(%rbx),%rdx
  405bb7:	48 83 fa ff          	cmp    $0xffffffffffffffff,%rdx
  405bbb:	74 07                	je     405bc4 <check_throttles+0xe4>
  405bbd:	48 39 d0             	cmp    %rdx,%rax
  405bc0:	48 0f 4f c2          	cmovg  %rdx,%rax
  405bc4:	48 89 43 40          	mov    %rax,0x40(%rbx)
  405bc8:	48 8b 43 48          	mov    0x48(%rbx),%rax
  405bcc:	48 83 f8 ff          	cmp    $0xffffffffffffffff,%rax
  405bd0:	0f 85 42 ff ff ff    	jne    405b18 <check_throttles+0x38>
  405bd6:	41 83 c4 01          	add    $0x1,%r12d
  405bda:	44 39 25 73 03 21 00 	cmp    %r12d,0x210373(%rip)        # 615f54 <numthrottles>
  405be1:	48 89 7b 48          	mov    %rdi,0x48(%rbx)
  405be5:	0f 8f 49 ff ff ff    	jg     405b34 <check_throttles+0x54>
  405beb:	5b                   	pop    %rbx
  405bec:	b8 01 00 00 00       	mov    $0x1,%eax
  405bf1:	5d                   	pop    %rbp
  405bf2:	41 5c                	pop    %r12
  405bf4:	c3                   	retq   
  405bf5:	0f 1f 00             	nopl   (%rax)
  405bf8:	bf 03 00 00 00       	mov    $0x3,%edi
  405bfd:	31 c0                	xor    %eax,%eax
  405bff:	be 18 e8 40 00       	mov    $0x40e818,%esi
  405c04:	e8 e7 ca ff ff       	callq  4026f0 <syslog@plt>
  405c09:	48 89 ea             	mov    %rbp,%rdx
  405c0c:	48 03 15 45 03 21 00 	add    0x210345(%rip),%rdx        # 615f58 <throttles>
  405c13:	41 b8 01 00 00 00    	mov    $0x1,%r8d
  405c19:	b9 01 00 00 00       	mov    $0x1,%ecx
  405c1e:	c7 42 28 00 00 00 00 	movl   $0x0,0x28(%rdx)
  405c25:	48 8b 42 08          	mov    0x8(%rdx),%rax
  405c29:	48 8b 7a 10          	mov    0x10(%rdx),%rdi
  405c2d:	e9 68 ff ff ff       	jmpq   405b9a <check_throttles+0xba>
  405c32:	66 0f 1f 44 00 00    	nopw   0x0(%rax,%rax,1)
  405c38:	5b                   	pop    %rbx
  405c39:	31 c0                	xor    %eax,%eax
  405c3b:	5d                   	pop    %rbp
  405c3c:	41 5c                	pop    %r12
  405c3e:	c3                   	retq   
  405c3f:	b8 01 00 00 00       	mov    $0x1,%eax
  405c44:	c3                   	retq   
  405c45:	90                   	nop
  405c46:	66 2e 0f 1f 84 00 00 	nopw   %cs:0x0(%rax,%rax,1)
  405c4d:	00 00 00 

0000000000405c50 <shut_down>:
  405c50:	41 54                	push   %r12
  405c52:	55                   	push   %rbp
  405c53:	31 f6                	xor    %esi,%esi
  405c55:	53                   	push   %rbx
  405c56:	31 ed                	xor    %ebp,%ebp
  405c58:	31 db                	xor    %ebx,%ebx
  405c5a:	48 83 ec 10          	sub    $0x10,%rsp
  405c5e:	48 89 e7             	mov    %rsp,%rdi
  405c61:	e8 5a c8 ff ff       	callq  4024c0 <gettimeofday@plt>
  405c66:	48 89 e7             	mov    %rsp,%rdi
  405c69:	e8 72 ea ff ff       	callq  4046e0 <logstats>
  405c6e:	8b 0d cc 02 21 00    	mov    0x2102cc(%rip),%ecx        # 615f40 <max_connects>
  405c74:	85 c9                	test   %ecx,%ecx
  405c76:	7f 4c                	jg     405cc4 <shut_down+0x74>
  405c78:	eb 76                	jmp    405cf0 <shut_down+0xa0>
  405c7a:	66 0f 1f 44 00 00    	nopw   0x0(%rax,%rax,1)
  405c80:	48 8b 78 08          	mov    0x8(%rax),%rdi
  405c84:	48 85 ff             	test   %rdi,%rdi
  405c87:	74 29                	je     405cb2 <shut_down+0x62>
  405c89:	e8 82 3b 00 00       	callq  409810 <httpd_destroy_conn>
  405c8e:	49 89 dc             	mov    %rbx,%r12
  405c91:	4c 03 25 b0 02 21 00 	add    0x2102b0(%rip),%r12        # 615f48 <connects>
  405c98:	49 8b 7c 24 08       	mov    0x8(%r12),%rdi
  405c9d:	e8 fe c5 ff ff       	callq  4022a0 <free@plt>
  405ca2:	83 2d 8f 02 21 00 01 	subl   $0x1,0x21028f(%rip)        # 615f38 <httpd_conn_count>
  405ca9:	49 c7 44 24 08 00 00 	movq   $0x0,0x8(%r12)
  405cb0:	00 00 
  405cb2:	83 c5 01             	add    $0x1,%ebp
  405cb5:	48 81 c3 90 00 00 00 	add    $0x90,%rbx
  405cbc:	39 2d 7e 02 21 00    	cmp    %ebp,0x21027e(%rip)        # 615f40 <max_connects>
  405cc2:	7e 2c                	jle    405cf0 <shut_down+0xa0>
  405cc4:	48 89 d8             	mov    %rbx,%rax
  405cc7:	48 03 05 7a 02 21 00 	add    0x21027a(%rip),%rax        # 615f48 <connects>
  405cce:	8b 10                	mov    (%rax),%edx
  405cd0:	85 d2                	test   %edx,%edx
  405cd2:	74 ac                	je     405c80 <shut_down+0x30>
  405cd4:	48 8b 78 08          	mov    0x8(%rax),%rdi
  405cd8:	48 89 e6             	mov    %rsp,%rsi
  405cdb:	e8 10 53 00 00       	callq  40aff0 <httpd_close_conn>
  405ce0:	48 89 d8             	mov    %rbx,%rax
  405ce3:	48 03 05 5e 02 21 00 	add    0x21025e(%rip),%rax        # 615f48 <connects>
  405cea:	eb 94                	jmp    405c80 <shut_down+0x30>
  405cec:	0f 1f 40 00          	nopl   0x0(%rax)
  405cf0:	48 8b 1d 39 02 21 00 	mov    0x210239(%rip),%rbx        # 615f30 <hs>
  405cf7:	48 85 db             	test   %rbx,%rbx
  405cfa:	74 2d                	je     405d29 <shut_down+0xd9>
  405cfc:	8b 7b 48             	mov    0x48(%rbx),%edi
  405cff:	48 c7 05 26 02 21 00 	movq   $0x0,0x210226(%rip)        # 615f30 <hs>
  405d06:	00 00 00 00 
  405d0a:	83 ff ff             	cmp    $0xffffffff,%edi
  405d0d:	74 05                	je     405d14 <shut_down+0xc4>
  405d0f:	e8 4c 10 00 00       	callq  406d60 <fdwatch_del_fd>
  405d14:	8b 7b 4c             	mov    0x4c(%rbx),%edi
  405d17:	83 ff ff             	cmp    $0xffffffff,%edi
  405d1a:	74 05                	je     405d21 <shut_down+0xd1>
  405d1c:	e8 3f 10 00 00       	callq  406d60 <fdwatch_del_fd>
  405d21:	48 89 df             	mov    %rbx,%rdi
  405d24:	e8 57 1d 00 00       	callq  407a80 <httpd_terminate>
  405d29:	e8 a2 74 00 00       	callq  40d1d0 <mmc_destroy>
  405d2e:	e8 ad 7b 00 00       	callq  40d8e0 <tmr_destroy>
  405d33:	48 8b 3d 0e 02 21 00 	mov    0x21020e(%rip),%rdi        # 615f48 <connects>
  405d3a:	e8 61 c5 ff ff       	callq  4022a0 <free@plt>
  405d3f:	48 8b 3d 12 02 21 00 	mov    0x210212(%rip),%rdi        # 615f58 <throttles>
  405d46:	48 85 ff             	test   %rdi,%rdi
  405d49:	74 05                	je     405d50 <shut_down+0x100>
  405d4b:	e8 50 c5 ff ff       	callq  4022a0 <free@plt>
  405d50:	48 83 c4 10          	add    $0x10,%rsp
  405d54:	5b                   	pop    %rbx
  405d55:	5d                   	pop    %rbp
  405d56:	41 5c                	pop    %r12
  405d58:	c3                   	retq   
  405d59:	0f 1f 80 00 00 00 00 	nopl   0x0(%rax)

0000000000405d60 <handle_usr1>:
  405d60:	8b 05 de 01 21 00    	mov    0x2101de(%rip),%eax        # 615f44 <num_connects>
  405d66:	85 c0                	test   %eax,%eax
  405d68:	74 0b                	je     405d75 <handle_usr1+0x15>
  405d6a:	c7 05 b4 01 21 00 01 	movl   $0x1,0x2101b4(%rip)        # 615f28 <got_usr1>
  405d71:	00 00 00 
  405d74:	c3                   	retq   
  405d75:	48 83 ec 08          	sub    $0x8,%rsp
  405d79:	e8 d2 fe ff ff       	callq  405c50 <shut_down>
  405d7e:	bf 05 00 00 00       	mov    $0x5,%edi
  405d83:	be 14 ed 40 00       	mov    $0x40ed14,%esi
  405d88:	31 c0                	xor    %eax,%eax
  405d8a:	e8 61 c9 ff ff       	callq  4026f0 <syslog@plt>
  405d8f:	e8 2c c5 ff ff       	callq  4022c0 <closelog@plt>
  405d94:	31 ff                	xor    %edi,%edi
  405d96:	e8 35 cb ff ff       	callq  4028d0 <exit@plt>
  405d9b:	0f 1f 44 00 00       	nopl   0x0(%rax,%rax,1)

0000000000405da0 <handle_term>:
  405da0:	53                   	push   %rbx
  405da1:	89 fb                	mov    %edi,%ebx
  405da3:	e8 a8 fe ff ff       	callq  405c50 <shut_down>
  405da8:	bf 05 00 00 00       	mov    $0x5,%edi
  405dad:	89 da                	mov    %ebx,%edx
  405daf:	be 1c ed 40 00       	mov    $0x40ed1c,%esi
  405db4:	31 c0                	xor    %eax,%eax
  405db6:	e8 35 c9 ff ff       	callq  4026f0 <syslog@plt>
  405dbb:	e8 00 c5 ff ff       	callq  4022c0 <closelog@plt>
  405dc0:	bf 01 00 00 00       	mov    $0x1,%edi
  405dc5:	e8 06 cb ff ff       	callq  4028d0 <exit@plt>
  405dca:	66 0f 1f 44 00 00    	nopw   0x0(%rax,%rax,1)

0000000000405dd0 <clear_throttles.isra.0>:
  405dd0:	8b 47 38             	mov    0x38(%rdi),%eax
  405dd3:	85 c0                	test   %eax,%eax
  405dd5:	7e 32                	jle    405e09 <clear_throttles.isra.0+0x39>
  405dd7:	83 e8 01             	sub    $0x1,%eax
  405dda:	48 8b 0d 77 01 21 00 	mov    0x210177(%rip),%rcx        # 615f58 <throttles>
  405de1:	48 8d 57 10          	lea    0x10(%rdi),%rdx
  405de5:	48 8d 74 87 14       	lea    0x14(%rdi,%rax,4),%rsi
  405dea:	66 0f 1f 44 00 00    	nopw   0x0(%rax,%rax,1)
  405df0:	48 63 02             	movslq (%rdx),%rax
  405df3:	48 83 c2 04          	add    $0x4,%rdx
  405df7:	48 8d 04 40          	lea    (%rax,%rax,2),%rax
  405dfb:	48 c1 e0 04          	shl    $0x4,%rax
  405dff:	83 6c 01 28 01       	subl   $0x1,0x28(%rcx,%rax,1)
  405e04:	48 39 f2             	cmp    %rsi,%rdx
  405e07:	75 e7                	jne    405df0 <clear_throttles.isra.0+0x20>
  405e09:	f3 c3                	repz retq 
  405e0b:	0f 1f 44 00 00       	nopl   0x0(%rax,%rax,1)

0000000000405e10 <really_clear_connection>:
  405e10:	53                   	push   %rbx
  405e11:	48 89 fb             	mov    %rdi,%rbx
  405e14:	48 83 ec 10          	sub    $0x10,%rsp
  405e18:	48 8b 7f 08          	mov    0x8(%rdi),%rdi
  405e1c:	48 8b 87 c8 00 00 00 	mov    0xc8(%rdi),%rax
  405e23:	48 01 05 96 09 21 00 	add    %rax,0x210996(%rip)        # 6167c0 <stats_bytes>
  405e2a:	83 3b 03             	cmpl   $0x3,(%rbx)
  405e2d:	74 19                	je     405e48 <really_clear_connection+0x38>
  405e2f:	8b bf c0 02 00 00    	mov    0x2c0(%rdi),%edi
  405e35:	48 89 74 24 08       	mov    %rsi,0x8(%rsp)
  405e3a:	e8 21 0f 00 00       	callq  406d60 <fdwatch_del_fd>
  405e3f:	48 8b 7b 08          	mov    0x8(%rbx),%rdi
  405e43:	48 8b 74 24 08       	mov    0x8(%rsp),%rsi
  405e48:	e8 a3 51 00 00       	callq  40aff0 <httpd_close_conn>
  405e4d:	48 89 df             	mov    %rbx,%rdi
  405e50:	e8 7b ff ff ff       	callq  405dd0 <clear_throttles.isra.0>
  405e55:	48 8b 7b 68          	mov    0x68(%rbx),%rdi
  405e59:	48 85 ff             	test   %rdi,%rdi
  405e5c:	74 0d                	je     405e6b <really_clear_connection+0x5b>
  405e5e:	e8 9d 78 00 00       	callq  40d700 <tmr_cancel>
  405e63:	48 c7 43 68 00 00 00 	movq   $0x0,0x68(%rbx)
  405e6a:	00 
  405e6b:	8b 05 cb 00 21 00    	mov    0x2100cb(%rip),%eax        # 615f3c <first_free_connect>
  405e71:	c7 03 00 00 00 00    	movl   $0x0,(%rbx)
  405e77:	83 2d c6 00 21 00 01 	subl   $0x1,0x2100c6(%rip)        # 615f44 <num_connects>
  405e7e:	89 43 04             	mov    %eax,0x4(%rbx)
  405e81:	48 2b 1d c0 00 21 00 	sub    0x2100c0(%rip),%rbx        # 615f48 <connects>
  405e88:	48 b8 39 8e e3 38 8e 	movabs $0x8e38e38e38e38e39,%rax
  405e8f:	e3 38 8e 
  405e92:	48 c1 fb 04          	sar    $0x4,%rbx
  405e96:	48 0f af d8          	imul   %rax,%rbx
  405e9a:	89 1d 9c 00 21 00    	mov    %ebx,0x21009c(%rip)        # 615f3c <first_free_connect>
  405ea0:	48 83 c4 10          	add    $0x10,%rsp
  405ea4:	5b                   	pop    %rbx
  405ea5:	c3                   	retq   
  405ea6:	66 2e 0f 1f 84 00 00 	nopw   %cs:0x0(%rax,%rax,1)
  405ead:	00 00 00 

0000000000405eb0 <clear_connection>:
  405eb0:	55                   	push   %rbp
  405eb1:	53                   	push   %rbx
  405eb2:	48 89 fb             	mov    %rdi,%rbx
  405eb5:	48 89 f5             	mov    %rsi,%rbp
  405eb8:	48 83 ec 08          	sub    $0x8,%rsp
  405ebc:	48 8b 7f 60          	mov    0x60(%rdi),%rdi
  405ec0:	48 85 ff             	test   %rdi,%rdi
  405ec3:	74 0d                	je     405ed2 <clear_connection+0x22>
  405ec5:	e8 36 78 00 00       	callq  40d700 <tmr_cancel>
  405eca:	48 c7 43 60 00 00 00 	movq   $0x0,0x60(%rbx)
  405ed1:	00 
  405ed2:	8b 13                	mov    (%rbx),%edx
  405ed4:	83 fa 04             	cmp    $0x4,%edx
  405ed7:	0f 84 93 00 00 00    	je     405f70 <clear_connection+0xc0>
  405edd:	48 8b 43 08          	mov    0x8(%rbx),%rax
  405ee1:	8b 88 2c 02 00 00    	mov    0x22c(%rax),%ecx
  405ee7:	85 c9                	test   %ecx,%ecx
  405ee9:	0f 84 a0 00 00 00    	je     405f8f <clear_connection+0xdf>
  405eef:	83 fa 03             	cmp    $0x3,%edx
  405ef2:	74 0f                	je     405f03 <clear_connection+0x53>
  405ef4:	8b b8 c0 02 00 00    	mov    0x2c0(%rax),%edi
  405efa:	e8 61 0e 00 00       	callq  406d60 <fdwatch_del_fd>
  405eff:	48 8b 43 08          	mov    0x8(%rbx),%rax
  405f03:	8b b8 c0 02 00 00    	mov    0x2c0(%rax),%edi
  405f09:	be 01 00 00 00       	mov    $0x1,%esi
  405f0e:	c7 03 04 00 00 00    	movl   $0x4,(%rbx)
  405f14:	e8 f7 c4 ff ff       	callq  402410 <shutdown@plt>
  405f19:	48 8b 43 08          	mov    0x8(%rbx),%rax
  405f1d:	31 d2                	xor    %edx,%edx
  405f1f:	48 89 de             	mov    %rbx,%rsi
  405f22:	8b b8 c0 02 00 00    	mov    0x2c0(%rax),%edi
  405f28:	e8 c3 0d 00 00       	callq  406cf0 <fdwatch_add_fd>
  405f2d:	48 83 7b 68 00       	cmpq   $0x0,0x68(%rbx)
  405f32:	74 11                	je     405f45 <clear_connection+0x95>
  405f34:	be 50 e8 40 00       	mov    $0x40e850,%esi
  405f39:	bf 03 00 00 00       	mov    $0x3,%edi
  405f3e:	31 c0                	xor    %eax,%eax
  405f40:	e8 ab c7 ff ff       	callq  4026f0 <syslog@plt>
  405f45:	45 31 c0             	xor    %r8d,%r8d
  405f48:	b9 f4 01 00 00       	mov    $0x1f4,%ecx
  405f4d:	48 89 da             	mov    %rbx,%rdx
  405f50:	be a0 66 40 00       	mov    $0x4066a0,%esi
  405f55:	48 89 ef             	mov    %rbp,%rdi
  405f58:	e8 d3 7a 00 00       	callq  40da30 <tmr_create>
  405f5d:	48 85 c0             	test   %rax,%rax
  405f60:	48 89 43 68          	mov    %rax,0x68(%rbx)
  405f64:	74 3a                	je     405fa0 <clear_connection+0xf0>
  405f66:	48 83 c4 08          	add    $0x8,%rsp
  405f6a:	5b                   	pop    %rbx
  405f6b:	5d                   	pop    %rbp
  405f6c:	c3                   	retq   
  405f6d:	0f 1f 00             	nopl   (%rax)
  405f70:	48 8b 7b 68          	mov    0x68(%rbx),%rdi
  405f74:	e8 87 77 00 00       	callq  40d700 <tmr_cancel>
  405f79:	48 8b 43 08          	mov    0x8(%rbx),%rax
  405f7d:	48 c7 43 68 00 00 00 	movq   $0x0,0x68(%rbx)
  405f84:	00 
  405f85:	c7 80 2c 02 00 00 00 	movl   $0x0,0x22c(%rax)
  405f8c:	00 00 00 
  405f8f:	48 83 c4 08          	add    $0x8,%rsp
  405f93:	48 89 ee             	mov    %rbp,%rsi
  405f96:	48 89 df             	mov    %rbx,%rdi
  405f99:	5b                   	pop    %rbx
  405f9a:	5d                   	pop    %rbp
  405f9b:	e9 70 fe ff ff       	jmpq   405e10 <really_clear_connection>
  405fa0:	bf 02 00 00 00       	mov    $0x2,%edi
  405fa5:	be 78 e8 40 00       	mov    $0x40e878,%esi
  405faa:	e8 41 c7 ff ff       	callq  4026f0 <syslog@plt>
  405faf:	bf 01 00 00 00       	mov    $0x1,%edi
  405fb4:	e8 17 c9 ff ff       	callq  4028d0 <exit@plt>
  405fb9:	0f 1f 80 00 00 00 00 	nopl   0x0(%rax)

0000000000405fc0 <finish_connection>:
  405fc0:	55                   	push   %rbp
  405fc1:	53                   	push   %rbx
  405fc2:	48 89 fb             	mov    %rdi,%rbx
  405fc5:	48 89 f5             	mov    %rsi,%rbp
  405fc8:	48 83 ec 08          	sub    $0x8,%rsp
  405fcc:	48 8b 7f 08          	mov    0x8(%rdi),%rdi
  405fd0:	e8 4b 57 00 00       	callq  40b720 <httpd_write_response>
  405fd5:	48 83 c4 08          	add    $0x8,%rsp
  405fd9:	48 89 ee             	mov    %rbp,%rsi
  405fdc:	48 89 df             	mov    %rbx,%rdi
  405fdf:	5b                   	pop    %rbx
  405fe0:	5d                   	pop    %rbp
  405fe1:	e9 ca fe ff ff       	jmpq   405eb0 <clear_connection>
  405fe6:	66 2e 0f 1f 84 00 00 	nopw   %cs:0x0(%rax,%rax,1)
  405fed:	00 00 00 

0000000000405ff0 <handle_read>:
  405ff0:	41 54                	push   %r12
  405ff2:	55                   	push   %rbp
  405ff3:	49 89 f4             	mov    %rsi,%r12
  405ff6:	53                   	push   %rbx
  405ff7:	48 8b 5f 08          	mov    0x8(%rdi),%rbx
  405ffb:	48 89 fd             	mov    %rdi,%rbp
  405ffe:	48 8b b3 a0 00 00 00 	mov    0xa0(%rbx),%rsi
  406005:	48 8b 93 98 00 00 00 	mov    0x98(%rbx),%rdx
  40600c:	48 39 d6             	cmp    %rdx,%rsi
  40600f:	72 67                	jb     406078 <handle_read+0x88>
  406011:	48 81 fa 88 13 00 00 	cmp    $0x1388,%rdx
  406018:	76 36                	jbe    406050 <handle_read+0x60>
  40601a:	4c 8b 05 5f fc 20 00 	mov    0x20fc5f(%rip),%r8        # 615c80 <httpd_err400form>
  406021:	48 8b 15 60 fc 20 00 	mov    0x20fc60(%rip),%rdx        # 615c88 <httpd_err400title>
  406028:	41 b9 c9 f2 40 00    	mov    $0x40f2c9,%r9d
  40602e:	4c 89 c9             	mov    %r9,%rcx
  406031:	be 90 01 00 00       	mov    $0x190,%esi
  406036:	48 89 df             	mov    %rbx,%rdi
  406039:	e8 82 2e 00 00       	callq  408ec0 <httpd_send_err>
  40603e:	5b                   	pop    %rbx
  40603f:	4c 89 e6             	mov    %r12,%rsi
  406042:	48 89 ef             	mov    %rbp,%rdi
  406045:	5d                   	pop    %rbp
  406046:	41 5c                	pop    %r12
  406048:	e9 73 ff ff ff       	jmpq   405fc0 <finish_connection>
  40604d:	0f 1f 00             	nopl   (%rax)
  406050:	48 8d b3 98 00 00 00 	lea    0x98(%rbx),%rsi
  406057:	48 8d bb 90 00 00 00 	lea    0x90(%rbx),%rdi
  40605e:	48 81 c2 e8 03 00 00 	add    $0x3e8,%rdx
  406065:	e8 b6 1a 00 00       	callq  407b20 <httpd_realloc_str>
  40606a:	48 8b 93 98 00 00 00 	mov    0x98(%rbx),%rdx
  406071:	48 8b b3 a0 00 00 00 	mov    0xa0(%rbx),%rsi
  406078:	48 29 f2             	sub    %rsi,%rdx
  40607b:	48 03 b3 90 00 00 00 	add    0x90(%rbx),%rsi
  406082:	8b bb c0 02 00 00    	mov    0x2c0(%rbx),%edi
  406088:	e8 f3 c4 ff ff       	callq  402580 <read@plt>
  40608d:	85 c0                	test   %eax,%eax
  40608f:	74 89                	je     40601a <handle_read+0x2a>
  406091:	0f 88 e9 00 00 00    	js     406180 <handle_read+0x190>
  406097:	48 98                	cltq   
  406099:	48 01 83 a0 00 00 00 	add    %rax,0xa0(%rbx)
  4060a0:	49 8b 04 24          	mov    (%r12),%rax
  4060a4:	48 89 df             	mov    %rbx,%rdi
  4060a7:	48 89 45 58          	mov    %rax,0x58(%rbp)
  4060ab:	e8 60 34 00 00       	callq  409510 <httpd_got_request>
  4060b0:	85 c0                	test   %eax,%eax
  4060b2:	0f 84 dd 00 00 00    	je     406195 <handle_read+0x1a5>
  4060b8:	83 f8 02             	cmp    $0x2,%eax
  4060bb:	0f 84 59 ff ff ff    	je     40601a <handle_read+0x2a>
  4060c1:	48 89 df             	mov    %rbx,%rdi
  4060c4:	e8 b7 3f 00 00       	callq  40a080 <httpd_parse_request>
  4060c9:	85 c0                	test   %eax,%eax
  4060cb:	0f 88 6d ff ff ff    	js     40603e <handle_read+0x4e>
  4060d1:	48 89 ef             	mov    %rbp,%rdi
  4060d4:	e8 07 fa ff ff       	callq  405ae0 <check_throttles>
  4060d9:	85 c0                	test   %eax,%eax
  4060db:	0f 84 bf 00 00 00    	je     4061a0 <handle_read+0x1b0>
  4060e1:	4c 89 e6             	mov    %r12,%rsi
  4060e4:	48 89 df             	mov    %rbx,%rdi
  4060e7:	e8 c4 68 00 00       	callq  40c9b0 <httpd_start_request>
  4060ec:	85 c0                	test   %eax,%eax
  4060ee:	0f 88 4a ff ff ff    	js     40603e <handle_read+0x4e>
  4060f4:	8b 83 10 02 00 00    	mov    0x210(%rbx),%eax
  4060fa:	85 c0                	test   %eax,%eax
  4060fc:	0f 84 ce 00 00 00    	je     4061d0 <handle_read+0x1e0>
  406102:	48 8b 83 18 02 00 00 	mov    0x218(%rbx),%rax
  406109:	48 89 85 88 00 00 00 	mov    %rax,0x88(%rbp)
  406110:	48 8b 83 20 02 00 00 	mov    0x220(%rbx),%rax
  406117:	48 83 c0 01          	add    $0x1,%rax
  40611b:	48 89 85 80 00 00 00 	mov    %rax,0x80(%rbp)
  406122:	48 83 bb c8 02 00 00 	cmpq   $0x0,0x2c8(%rbx)
  406129:	00 
  40612a:	0f 84 bf 00 00 00    	je     4061ef <handle_read+0x1ff>
  406130:	48 8b 85 80 00 00 00 	mov    0x80(%rbp),%rax
  406137:	48 39 85 88 00 00 00 	cmp    %rax,0x88(%rbp)
  40613e:	0f 8d fa fe ff ff    	jge    40603e <handle_read+0x4e>
  406144:	49 8b 04 24          	mov    (%r12),%rax
  406148:	8b bb c0 02 00 00    	mov    0x2c0(%rbx),%edi
  40614e:	c7 45 00 02 00 00 00 	movl   $0x2,0x0(%rbp)
  406155:	48 c7 45 70 00 00 00 	movq   $0x0,0x70(%rbp)
  40615c:	00 
  40615d:	48 89 45 50          	mov    %rax,0x50(%rbp)
  406161:	e8 fa 0b 00 00       	callq  406d60 <fdwatch_del_fd>
  406166:	8b bb c0 02 00 00    	mov    0x2c0(%rbx),%edi
  40616c:	48 89 ee             	mov    %rbp,%rsi
  40616f:	ba 01 00 00 00       	mov    $0x1,%edx
  406174:	5b                   	pop    %rbx
  406175:	5d                   	pop    %rbp
  406176:	41 5c                	pop    %r12
  406178:	e9 73 0b 00 00       	jmpq   406cf0 <fdwatch_add_fd>
  40617d:	0f 1f 00             	nopl   (%rax)
  406180:	e8 6b c1 ff ff       	callq  4022f0 <__errno_location@plt>
  406185:	8b 00                	mov    (%rax),%eax
  406187:	83 f8 04             	cmp    $0x4,%eax
  40618a:	74 09                	je     406195 <handle_read+0x1a5>
  40618c:	83 f8 0b             	cmp    $0xb,%eax
  40618f:	0f 85 85 fe ff ff    	jne    40601a <handle_read+0x2a>
  406195:	5b                   	pop    %rbx
  406196:	5d                   	pop    %rbp
  406197:	41 5c                	pop    %r12
  406199:	c3                   	retq   
  40619a:	66 0f 1f 44 00 00    	nopw   0x0(%rax,%rax,1)
  4061a0:	4c 8b 8b d0 00 00 00 	mov    0xd0(%rbx),%r9
  4061a7:	4c 8b 05 b2 fa 20 00 	mov    0x20fab2(%rip),%r8        # 615c60 <httpd_err503form>
  4061ae:	b9 c9 f2 40 00       	mov    $0x40f2c9,%ecx
  4061b3:	48 8b 15 ae fa 20 00 	mov    0x20faae(%rip),%rdx        # 615c68 <httpd_err503title>
  4061ba:	be f7 01 00 00       	mov    $0x1f7,%esi
  4061bf:	48 89 df             	mov    %rbx,%rdi
  4061c2:	e8 f9 2c 00 00       	callq  408ec0 <httpd_send_err>
  4061c7:	e9 72 fe ff ff       	jmpq   40603e <handle_read+0x4e>
  4061cc:	0f 1f 40 00          	nopl   0x0(%rax)
  4061d0:	48 8b 83 c0 00 00 00 	mov    0xc0(%rbx),%rax
  4061d7:	ba 00 00 00 00       	mov    $0x0,%edx
  4061dc:	48 85 c0             	test   %rax,%rax
  4061df:	48 0f 48 c2          	cmovs  %rdx,%rax
  4061e3:	48 89 85 80 00 00 00 	mov    %rax,0x80(%rbp)
  4061ea:	e9 33 ff ff ff       	jmpq   406122 <handle_read+0x132>
  4061ef:	8b 45 38             	mov    0x38(%rbp),%eax
  4061f2:	85 c0                	test   %eax,%eax
  4061f4:	7e 3f                	jle    406235 <handle_read+0x245>
  4061f6:	83 e8 01             	sub    $0x1,%eax
  4061f9:	48 8b 0d 58 fd 20 00 	mov    0x20fd58(%rip),%rcx        # 615f58 <throttles>
  406200:	48 8b b3 c8 00 00 00 	mov    0xc8(%rbx),%rsi
  406207:	48 8d 55 10          	lea    0x10(%rbp),%rdx
  40620b:	48 8d 7c 85 14       	lea    0x14(%rbp,%rax,4),%rdi
  406210:	48 63 02             	movslq (%rdx),%rax
  406213:	48 83 c2 04          	add    $0x4,%rdx
  406217:	48 8d 04 40          	lea    (%rax,%rax,2),%rax
  40621b:	48 c1 e0 04          	shl    $0x4,%rax
  40621f:	48 01 74 01 20       	add    %rsi,0x20(%rcx,%rax,1)
  406224:	48 39 d7             	cmp    %rdx,%rdi
  406227:	75 e7                	jne    406210 <handle_read+0x220>
  406229:	48 89 b5 88 00 00 00 	mov    %rsi,0x88(%rbp)
  406230:	e9 09 fe ff ff       	jmpq   40603e <handle_read+0x4e>
  406235:	48 8b b3 c8 00 00 00 	mov    0xc8(%rbx),%rsi
  40623c:	eb eb                	jmp    406229 <handle_read+0x239>
  40623e:	66 90                	xchg   %ax,%ax

0000000000406240 <idle>:
  406240:	8b 05 fa fc 20 00    	mov    0x20fcfa(%rip),%eax        # 615f40 <max_connects>
  406246:	85 c0                	test   %eax,%eax
  406248:	0f 8e 04 01 00 00    	jle    406352 <idle+0x112>
  40624e:	41 55                	push   %r13
  406250:	41 54                	push   %r12
  406252:	49 89 f5             	mov    %rsi,%r13
  406255:	55                   	push   %rbp
  406256:	53                   	push   %rbx
  406257:	45 31 e4             	xor    %r12d,%r12d
  40625a:	31 ed                	xor    %ebp,%ebp
  40625c:	48 83 ec 08          	sub    $0x8,%rsp
  406260:	eb 37                	jmp    406299 <idle+0x59>
  406262:	66 0f 1f 44 00 00    	nopw   0x0(%rax,%rax,1)
  406268:	7c 19                	jl     406283 <idle+0x43>
  40626a:	83 f8 03             	cmp    $0x3,%eax
  40626d:	7f 14                	jg     406283 <idle+0x43>
  40626f:	49 8b 45 00          	mov    0x0(%r13),%rax
  406273:	48 2b 43 58          	sub    0x58(%rbx),%rax
  406277:	48 3d 2b 01 00 00    	cmp    $0x12b,%rax
  40627d:	0f 8f 8d 00 00 00    	jg     406310 <idle+0xd0>
  406283:	83 c5 01             	add    $0x1,%ebp
  406286:	49 81 c4 90 00 00 00 	add    $0x90,%r12
  40628d:	39 2d ad fc 20 00    	cmp    %ebp,0x20fcad(%rip)        # 615f40 <max_connects>
  406293:	0f 8e af 00 00 00    	jle    406348 <idle+0x108>
  406299:	4c 89 e3             	mov    %r12,%rbx
  40629c:	48 03 1d a5 fc 20 00 	add    0x20fca5(%rip),%rbx        # 615f48 <connects>
  4062a3:	8b 03                	mov    (%rbx),%eax
  4062a5:	83 f8 01             	cmp    $0x1,%eax
  4062a8:	75 be                	jne    406268 <idle+0x28>
  4062aa:	49 8b 45 00          	mov    0x0(%r13),%rax
  4062ae:	48 2b 43 58          	sub    0x58(%rbx),%rax
  4062b2:	48 83 f8 3b          	cmp    $0x3b,%rax
  4062b6:	7e cb                	jle    406283 <idle+0x43>
  4062b8:	48 8b 43 08          	mov    0x8(%rbx),%rax
  4062bc:	48 8d 78 10          	lea    0x10(%rax),%rdi
  4062c0:	e8 0b 36 00 00       	callq  4098d0 <httpd_ntoa>
  4062c5:	be a8 e8 40 00       	mov    $0x40e8a8,%esi
  4062ca:	48 89 c2             	mov    %rax,%rdx
  4062cd:	bf 06 00 00 00       	mov    $0x6,%edi
  4062d2:	31 c0                	xor    %eax,%eax
  4062d4:	e8 17 c4 ff ff       	callq  4026f0 <syslog@plt>
  4062d9:	48 8b 7b 08          	mov    0x8(%rbx),%rdi
  4062dd:	4c 8b 05 8c f9 20 00 	mov    0x20f98c(%rip),%r8        # 615c70 <httpd_err408form>
  4062e4:	41 b9 c9 f2 40 00    	mov    $0x40f2c9,%r9d
  4062ea:	48 8b 15 87 f9 20 00 	mov    0x20f987(%rip),%rdx        # 615c78 <httpd_err408title>
  4062f1:	4c 89 c9             	mov    %r9,%rcx
  4062f4:	be 98 01 00 00       	mov    $0x198,%esi
  4062f9:	e8 c2 2b 00 00       	callq  408ec0 <httpd_send_err>
  4062fe:	4c 89 ee             	mov    %r13,%rsi
  406301:	48 89 df             	mov    %rbx,%rdi
  406304:	e8 b7 fc ff ff       	callq  405fc0 <finish_connection>
  406309:	e9 75 ff ff ff       	jmpq   406283 <idle+0x43>
  40630e:	66 90                	xchg   %ax,%ax
  406310:	48 8b 43 08          	mov    0x8(%rbx),%rax
  406314:	48 8d 78 10          	lea    0x10(%rax),%rdi
  406318:	e8 b3 35 00 00       	callq  4098d0 <httpd_ntoa>
  40631d:	be d0 e8 40 00       	mov    $0x40e8d0,%esi
  406322:	48 89 c2             	mov    %rax,%rdx
  406325:	bf 06 00 00 00       	mov    $0x6,%edi
  40632a:	31 c0                	xor    %eax,%eax
  40632c:	e8 bf c3 ff ff       	callq  4026f0 <syslog@plt>
  406331:	4c 89 ee             	mov    %r13,%rsi
  406334:	48 89 df             	mov    %rbx,%rdi
  406337:	e8 74 fb ff ff       	callq  405eb0 <clear_connection>
  40633c:	e9 42 ff ff ff       	jmpq   406283 <idle+0x43>
  406341:	0f 1f 80 00 00 00 00 	nopl   0x0(%rax)
  406348:	48 83 c4 08          	add    $0x8,%rsp
  40634c:	5b                   	pop    %rbx
  40634d:	5d                   	pop    %rbp
  40634e:	41 5c                	pop    %r12
  406350:	41 5d                	pop    %r13
  406352:	f3 c3                	repz retq 
  406354:	66 90                	xchg   %ax,%ax
  406356:	66 2e 0f 1f 84 00 00 	nopw   %cs:0x0(%rax,%rax,1)
  40635d:	00 00 00 

0000000000406360 <handle_send>:
  406360:	41 55                	push   %r13
  406362:	41 54                	push   %r12
  406364:	ba 00 ca 9a 3b       	mov    $0x3b9aca00,%edx
  406369:	55                   	push   %rbp
  40636a:	53                   	push   %rbx
  40636b:	48 89 f5             	mov    %rsi,%rbp
  40636e:	48 89 fb             	mov    %rdi,%rbx
  406371:	48 83 ec 28          	sub    $0x28,%rsp
  406375:	48 8b 47 40          	mov    0x40(%rdi),%rax
  406379:	4c 8b 67 08          	mov    0x8(%rdi),%r12
  40637d:	48 83 f8 ff          	cmp    $0xffffffffffffffff,%rax
  406381:	74 0f                	je     406392 <handle_send+0x32>
  406383:	48 8d 50 03          	lea    0x3(%rax),%rdx
  406387:	48 85 c0             	test   %rax,%rax
  40638a:	48 0f 49 d0          	cmovns %rax,%rdx
  40638e:	48 c1 fa 02          	sar    $0x2,%rdx
  406392:	49 8b 84 24 d8 01 00 	mov    0x1d8(%r12),%rax
  406399:	00 
  40639a:	48 85 c0             	test   %rax,%rax
  40639d:	0f 85 6d 01 00 00    	jne    406510 <handle_send+0x1b0>
  4063a3:	48 8b b3 88 00 00 00 	mov    0x88(%rbx),%rsi
  4063aa:	48 8b 83 80 00 00 00 	mov    0x80(%rbx),%rax
  4063b1:	41 8b bc 24 c0 02 00 	mov    0x2c0(%r12),%edi
  4063b8:	00 
  4063b9:	48 29 f0             	sub    %rsi,%rax
  4063bc:	48 39 d0             	cmp    %rdx,%rax
  4063bf:	48 0f 46 d0          	cmovbe %rax,%rdx
  4063c3:	49 03 b4 24 c8 02 00 	add    0x2c8(%r12),%rsi
  4063ca:	00 
  4063cb:	e8 f0 bf ff ff       	callq  4023c0 <write@plt>
  4063d0:	85 c0                	test   %eax,%eax
  4063d2:	0f 88 93 01 00 00    	js     40656b <handle_send+0x20b>
  4063d8:	0f 84 ea 01 00 00    	je     4065c8 <handle_send+0x268>
  4063de:	48 8b 55 00          	mov    0x0(%rbp),%rdx
  4063e2:	48 89 53 58          	mov    %rdx,0x58(%rbx)
  4063e6:	49 8b 94 24 d8 01 00 	mov    0x1d8(%r12),%rdx
  4063ed:	00 
  4063ee:	48 85 d2             	test   %rdx,%rdx
  4063f1:	74 1a                	je     40640d <handle_send+0xad>
  4063f3:	48 63 c8             	movslq %eax,%rcx
  4063f6:	48 39 ca             	cmp    %rcx,%rdx
  4063f9:	0f 87 39 02 00 00    	ja     406638 <handle_send+0x2d8>
  4063ff:	29 d0                	sub    %edx,%eax
  406401:	49 c7 84 24 d8 01 00 	movq   $0x0,0x1d8(%r12)
  406408:	00 00 00 00 00 
  40640d:	48 63 f8             	movslq %eax,%rdi
  406410:	48 8b 53 08          	mov    0x8(%rbx),%rdx
  406414:	49 89 fa             	mov    %rdi,%r10
  406417:	48 89 f8             	mov    %rdi,%rax
  40641a:	4c 03 93 88 00 00 00 	add    0x88(%rbx),%r10
  406421:	48 03 82 c8 00 00 00 	add    0xc8(%rdx),%rax
  406428:	4c 89 93 88 00 00 00 	mov    %r10,0x88(%rbx)
  40642f:	48 89 82 c8 00 00 00 	mov    %rax,0xc8(%rdx)
  406436:	8b 53 38             	mov    0x38(%rbx),%edx
  406439:	85 d2                	test   %edx,%edx
  40643b:	7e 2c                	jle    406469 <handle_send+0x109>
  40643d:	83 ea 01             	sub    $0x1,%edx
  406440:	4c 8b 05 11 fb 20 00 	mov    0x20fb11(%rip),%r8        # 615f58 <throttles>
  406447:	48 8d 73 10          	lea    0x10(%rbx),%rsi
  40644b:	4c 8d 4c 93 14       	lea    0x14(%rbx,%rdx,4),%r9
  406450:	48 63 0e             	movslq (%rsi),%rcx
  406453:	48 83 c6 04          	add    $0x4,%rsi
  406457:	48 8d 0c 49          	lea    (%rcx,%rcx,2),%rcx
  40645b:	48 c1 e1 04          	shl    $0x4,%rcx
  40645f:	49 01 7c 08 20       	add    %rdi,0x20(%r8,%rcx,1)
  406464:	4c 39 ce             	cmp    %r9,%rsi
  406467:	75 e7                	jne    406450 <handle_send+0xf0>
  406469:	4c 3b 93 80 00 00 00 	cmp    0x80(%rbx),%r10
  406470:	0f 8d ea 01 00 00    	jge    406660 <handle_send+0x300>
  406476:	48 8b 53 70          	mov    0x70(%rbx),%rdx
  40647a:	48 83 fa 64          	cmp    $0x64,%rdx
  40647e:	0f 8f a4 01 00 00    	jg     406628 <handle_send+0x2c8>
  406484:	48 8b 4b 40          	mov    0x40(%rbx),%rcx
  406488:	48 83 f9 ff          	cmp    $0xffffffffffffffff,%rcx
  40648c:	0f 84 86 01 00 00    	je     406618 <handle_send+0x2b8>
  406492:	4c 8b 6d 00          	mov    0x0(%rbp),%r13
  406496:	4c 2b 6b 50          	sub    0x50(%rbx),%r13
  40649a:	ba 01 00 00 00       	mov    $0x1,%edx
  40649f:	4c 0f 44 ea          	cmove  %rdx,%r13
  4064a3:	48 99                	cqto   
  4064a5:	49 f7 fd             	idiv   %r13
  4064a8:	48 39 c1             	cmp    %rax,%rcx
  4064ab:	0f 8d 67 01 00 00    	jge    406618 <handle_send+0x2b8>
  4064b1:	41 8b bc 24 c0 02 00 	mov    0x2c0(%r12),%edi
  4064b8:	00 
  4064b9:	c7 03 03 00 00 00    	movl   $0x3,(%rbx)
  4064bf:	e8 9c 08 00 00       	callq  406d60 <fdwatch_del_fd>
  4064c4:	48 8b 43 08          	mov    0x8(%rbx),%rax
  4064c8:	48 8b 80 c8 00 00 00 	mov    0xc8(%rax),%rax
  4064cf:	48 99                	cqto   
  4064d1:	48 f7 7b 40          	idivq  0x40(%rbx)
  4064d5:	41 89 c4             	mov    %eax,%r12d
  4064d8:	45 29 ec             	sub    %r13d,%r12d
  4064db:	48 83 7b 60 00       	cmpq   $0x0,0x60(%rbx)
  4064e0:	74 11                	je     4064f3 <handle_send+0x193>
  4064e2:	be f8 e8 40 00       	mov    $0x40e8f8,%esi
  4064e7:	bf 03 00 00 00       	mov    $0x3,%edi
  4064ec:	31 c0                	xor    %eax,%eax
  4064ee:	e8 fd c1 ff ff       	callq  4026f0 <syslog@plt>
  4064f3:	45 85 e4             	test   %r12d,%r12d
  4064f6:	b9 f4 01 00 00       	mov    $0x1f4,%ecx
  4064fb:	0f 8e fb 00 00 00    	jle    4065fc <handle_send+0x29c>
  406501:	4d 63 e4             	movslq %r12d,%r12
  406504:	49 69 cc e8 03 00 00 	imul   $0x3e8,%r12,%rcx
  40650b:	e9 ec 00 00 00       	jmpq   4065fc <handle_send+0x29c>
  406510:	48 89 44 24 08       	mov    %rax,0x8(%rsp)
  406515:	48 8b bb 80 00 00 00 	mov    0x80(%rbx),%rdi
  40651c:	48 89 e6             	mov    %rsp,%rsi
  40651f:	48 8b 83 88 00 00 00 	mov    0x88(%rbx),%rax
  406526:	49 8b 8c 24 70 01 00 	mov    0x170(%r12),%rcx
  40652d:	00 
  40652e:	48 29 c7             	sub    %rax,%rdi
  406531:	48 89 0c 24          	mov    %rcx,(%rsp)
  406535:	48 89 c1             	mov    %rax,%rcx
  406538:	49 03 8c 24 c8 02 00 	add    0x2c8(%r12),%rcx
  40653f:	00 
  406540:	48 39 d7             	cmp    %rdx,%rdi
  406543:	48 0f 46 d7          	cmovbe %rdi,%rdx
  406547:	41 8b bc 24 c0 02 00 	mov    0x2c0(%r12),%edi
  40654e:	00 
  40654f:	48 89 54 24 18       	mov    %rdx,0x18(%rsp)
  406554:	ba 02 00 00 00       	mov    $0x2,%edx
  406559:	48 89 4c 24 10       	mov    %rcx,0x10(%rsp)
  40655e:	e8 dd bd ff ff       	callq  402340 <writev@plt>
  406563:	85 c0                	test   %eax,%eax
  406565:	0f 89 6d fe ff ff    	jns    4063d8 <handle_send+0x78>
  40656b:	e8 80 bd ff ff       	callq  4022f0 <__errno_location@plt>
  406570:	8b 00                	mov    (%rax),%eax
  406572:	83 f8 04             	cmp    $0x4,%eax
  406575:	0f 84 9d 00 00 00    	je     406618 <handle_send+0x2b8>
  40657b:	83 f8 0b             	cmp    $0xb,%eax
  40657e:	74 48                	je     4065c8 <handle_send+0x268>
  406580:	83 f8 20             	cmp    $0x20,%eax
  406583:	0f 95 c1             	setne  %cl
  406586:	83 f8 16             	cmp    $0x16,%eax
  406589:	0f 95 c2             	setne  %dl
  40658c:	84 d1                	test   %dl,%cl
  40658e:	74 1e                	je     4065ae <handle_send+0x24e>
  406590:	83 f8 68             	cmp    $0x68,%eax
  406593:	74 19                	je     4065ae <handle_send+0x24e>
  406595:	49 8b 94 24 d0 00 00 	mov    0xd0(%r12),%rdx
  40659c:	00 
  40659d:	be 35 ed 40 00       	mov    $0x40ed35,%esi
  4065a2:	bf 03 00 00 00       	mov    $0x3,%edi
  4065a7:	31 c0                	xor    %eax,%eax
  4065a9:	e8 42 c1 ff ff       	callq  4026f0 <syslog@plt>
  4065ae:	48 89 ee             	mov    %rbp,%rsi
  4065b1:	48 89 df             	mov    %rbx,%rdi
  4065b4:	e8 f7 f8 ff ff       	callq  405eb0 <clear_connection>
  4065b9:	48 83 c4 28          	add    $0x28,%rsp
  4065bd:	5b                   	pop    %rbx
  4065be:	5d                   	pop    %rbp
  4065bf:	41 5c                	pop    %r12
  4065c1:	41 5d                	pop    %r13
  4065c3:	c3                   	retq   
  4065c4:	0f 1f 40 00          	nopl   0x0(%rax)
  4065c8:	48 83 43 70 64       	addq   $0x64,0x70(%rbx)
  4065cd:	41 8b bc 24 c0 02 00 	mov    0x2c0(%r12),%edi
  4065d4:	00 
  4065d5:	c7 03 03 00 00 00    	movl   $0x3,(%rbx)
  4065db:	e8 80 07 00 00       	callq  406d60 <fdwatch_del_fd>
  4065e0:	48 83 7b 60 00       	cmpq   $0x0,0x60(%rbx)
  4065e5:	74 11                	je     4065f8 <handle_send+0x298>
  4065e7:	be f8 e8 40 00       	mov    $0x40e8f8,%esi
  4065ec:	bf 03 00 00 00       	mov    $0x3,%edi
  4065f1:	31 c0                	xor    %eax,%eax
  4065f3:	e8 f8 c0 ff ff       	callq  4026f0 <syslog@plt>
  4065f8:	48 8b 4b 70          	mov    0x70(%rbx),%rcx
  4065fc:	45 31 c0             	xor    %r8d,%r8d
  4065ff:	48 89 da             	mov    %rbx,%rdx
  406602:	be b0 46 40 00       	mov    $0x4046b0,%esi
  406607:	48 89 ef             	mov    %rbp,%rdi
  40660a:	e8 21 74 00 00       	callq  40da30 <tmr_create>
  40660f:	48 85 c0             	test   %rax,%rax
  406612:	48 89 43 60          	mov    %rax,0x60(%rbx)
  406616:	74 5e                	je     406676 <handle_send+0x316>
  406618:	48 83 c4 28          	add    $0x28,%rsp
  40661c:	5b                   	pop    %rbx
  40661d:	5d                   	pop    %rbp
  40661e:	41 5c                	pop    %r12
  406620:	41 5d                	pop    %r13
  406622:	c3                   	retq   
  406623:	0f 1f 44 00 00       	nopl   0x0(%rax,%rax,1)
  406628:	48 83 ea 64          	sub    $0x64,%rdx
  40662c:	48 89 53 70          	mov    %rdx,0x70(%rbx)
  406630:	e9 4f fe ff ff       	jmpq   406484 <handle_send+0x124>
  406635:	0f 1f 00             	nopl   (%rax)
  406638:	49 8b bc 24 70 01 00 	mov    0x170(%r12),%rdi
  40663f:	00 
  406640:	29 c2                	sub    %eax,%edx
  406642:	4c 63 ea             	movslq %edx,%r13
  406645:	4c 89 ea             	mov    %r13,%rdx
  406648:	48 8d 34 0f          	lea    (%rdi,%rcx,1),%rsi
  40664c:	e8 7f c1 ff ff       	callq  4027d0 <memmove@plt>
  406651:	4d 89 ac 24 d8 01 00 	mov    %r13,0x1d8(%r12)
  406658:	00 
  406659:	31 ff                	xor    %edi,%edi
  40665b:	e9 b0 fd ff ff       	jmpq   406410 <handle_send+0xb0>
  406660:	48 89 ee             	mov    %rbp,%rsi
  406663:	48 89 df             	mov    %rbx,%rdi
  406666:	e8 55 f9 ff ff       	callq  405fc0 <finish_connection>
  40666b:	48 83 c4 28          	add    $0x28,%rsp
  40666f:	5b                   	pop    %rbx
  406670:	5d                   	pop    %rbp
  406671:	41 5c                	pop    %r12
  406673:	41 5d                	pop    %r13
  406675:	c3                   	retq   
  406676:	bf 02 00 00 00       	mov    $0x2,%edi
  40667b:	be 20 e9 40 00       	mov    $0x40e920,%esi
  406680:	31 c0                	xor    %eax,%eax
  406682:	e8 69 c0 ff ff       	callq  4026f0 <syslog@plt>
  406687:	bf 01 00 00 00       	mov    $0x1,%edi
  40668c:	e8 3f c2 ff ff       	callq  4028d0 <exit@plt>
  406691:	0f 1f 44 00 00       	nopl   0x0(%rax,%rax,1)
  406696:	66 2e 0f 1f 84 00 00 	nopw   %cs:0x0(%rax,%rax,1)
  40669d:	00 00 00 

00000000004066a0 <linger_clear_connection>:
  4066a0:	48 c7 47 68 00 00 00 	movq   $0x0,0x68(%rdi)
  4066a7:	00 
  4066a8:	e9 63 f7 ff ff       	jmpq   405e10 <really_clear_connection>
  4066ad:	0f 1f 00             	nopl   (%rax)

00000000004066b0 <handle_linger>:
  4066b0:	55                   	push   %rbp
  4066b1:	53                   	push   %rbx
  4066b2:	48 89 fb             	mov    %rdi,%rbx
  4066b5:	48 89 f5             	mov    %rsi,%rbp
  4066b8:	ba 00 10 00 00       	mov    $0x1000,%edx
  4066bd:	48 81 ec 08 10 00 00 	sub    $0x1008,%rsp
  4066c4:	48 8b 47 08          	mov    0x8(%rdi),%rax
  4066c8:	48 89 e6             	mov    %rsp,%rsi
  4066cb:	8b b8 c0 02 00 00    	mov    0x2c0(%rax),%edi
  4066d1:	e8 aa be ff ff       	callq  402580 <read@plt>
  4066d6:	85 c0                	test   %eax,%eax
  4066d8:	78 16                	js     4066f0 <handle_linger+0x40>
  4066da:	74 25                	je     406701 <handle_linger+0x51>
  4066dc:	48 81 c4 08 10 00 00 	add    $0x1008,%rsp
  4066e3:	5b                   	pop    %rbx
  4066e4:	5d                   	pop    %rbp
  4066e5:	c3                   	retq   
  4066e6:	66 2e 0f 1f 84 00 00 	nopw   %cs:0x0(%rax,%rax,1)
  4066ed:	00 00 00 
  4066f0:	e8 fb bb ff ff       	callq  4022f0 <__errno_location@plt>
  4066f5:	8b 00                	mov    (%rax),%eax
  4066f7:	83 f8 04             	cmp    $0x4,%eax
  4066fa:	74 e0                	je     4066dc <handle_linger+0x2c>
  4066fc:	83 f8 0b             	cmp    $0xb,%eax
  4066ff:	74 db                	je     4066dc <handle_linger+0x2c>
  406701:	48 89 ee             	mov    %rbp,%rsi
  406704:	48 89 df             	mov    %rbx,%rdi
  406707:	e8 04 f7 ff ff       	callq  405e10 <really_clear_connection>
  40670c:	48 81 c4 08 10 00 00 	add    $0x1008,%rsp
  406713:	5b                   	pop    %rbx
  406714:	5d                   	pop    %rbp
  406715:	c3                   	retq   
  406716:	66 2e 0f 1f 84 00 00 	nopw   %cs:0x0(%rax,%rax,1)
  40671d:	00 00 00 

0000000000406720 <lookup_hostname.constprop.1>:
  406720:	41 56                	push   %r14
  406722:	41 55                	push   %r13
  406724:	31 c0                	xor    %eax,%eax
  406726:	41 54                	push   %r12
  406728:	55                   	push   %rbp
  406729:	49 89 cd             	mov    %rcx,%r13
  40672c:	53                   	push   %rbx
  40672d:	48 89 fd             	mov    %rdi,%rbp
  406730:	b9 06 00 00 00       	mov    $0x6,%ecx
  406735:	49 89 f4             	mov    %rsi,%r12
  406738:	49 89 d6             	mov    %rdx,%r14
  40673b:	be 0a 00 00 00       	mov    $0xa,%esi
  406740:	48 83 ec 50          	sub    $0x50,%rsp
  406744:	ba 32 ed 40 00       	mov    $0x40ed32,%edx
  406749:	48 8d 5c 24 20       	lea    0x20(%rsp),%rbx
  40674e:	48 89 df             	mov    %rbx,%rdi
  406751:	f3 48 ab             	rep stos %rax,%es:(%rdi)
  406754:	0f b7 0d 95 f8 20 00 	movzwl 0x20f895(%rip),%ecx        # 615ff0 <port>
  40675b:	48 8d 7c 24 10       	lea    0x10(%rsp),%rdi
  406760:	c7 44 24 20 01 00 00 	movl   $0x1,0x20(%rsp)
  406767:	00 
  406768:	c7 44 24 28 01 00 00 	movl   $0x1,0x28(%rsp)
  40676f:	00 
  406770:	e8 1b bd ff ff       	callq  402490 <snprintf@plt>
  406775:	48 8b 3d 0c f8 20 00 	mov    0x20f80c(%rip),%rdi        # 615f88 <hostname>
  40677c:	48 8d 4c 24 08       	lea    0x8(%rsp),%rcx
  406781:	48 8d 74 24 10       	lea    0x10(%rsp),%rsi
  406786:	48 89 da             	mov    %rbx,%rdx
  406789:	e8 82 c1 ff ff       	callq  402910 <getaddrinfo@plt>
  40678e:	85 c0                	test   %eax,%eax
  406790:	0f 85 11 01 00 00    	jne    4068a7 <lookup_hostname.constprop.1+0x187>
  406796:	48 8b 44 24 08       	mov    0x8(%rsp),%rax
  40679b:	48 85 c0             	test   %rax,%rax
  40679e:	0f 84 c5 00 00 00    	je     406869 <lookup_hostname.constprop.1+0x149>
  4067a4:	31 db                	xor    %ebx,%ebx
  4067a6:	31 f6                	xor    %esi,%esi
  4067a8:	eb 1b                	jmp    4067c5 <lookup_hostname.constprop.1+0xa5>
  4067aa:	66 0f 1f 44 00 00    	nopw   0x0(%rax,%rax,1)
  4067b0:	83 fa 0a             	cmp    $0xa,%edx
  4067b3:	75 07                	jne    4067bc <lookup_hostname.constprop.1+0x9c>
  4067b5:	48 85 f6             	test   %rsi,%rsi
  4067b8:	48 0f 44 f0          	cmove  %rax,%rsi
  4067bc:	48 8b 40 28          	mov    0x28(%rax),%rax
  4067c0:	48 85 c0             	test   %rax,%rax
  4067c3:	74 18                	je     4067dd <lookup_hostname.constprop.1+0xbd>
  4067c5:	8b 50 04             	mov    0x4(%rax),%edx
  4067c8:	83 fa 02             	cmp    $0x2,%edx
  4067cb:	75 e3                	jne    4067b0 <lookup_hostname.constprop.1+0x90>
  4067cd:	48 85 db             	test   %rbx,%rbx
  4067d0:	48 0f 44 d8          	cmove  %rax,%rbx
  4067d4:	48 8b 40 28          	mov    0x28(%rax),%rax
  4067d8:	48 85 c0             	test   %rax,%rax
  4067db:	75 e8                	jne    4067c5 <lookup_hostname.constprop.1+0xa5>
  4067dd:	48 85 f6             	test   %rsi,%rsi
  4067e0:	0f 84 80 00 00 00    	je     406866 <lookup_hostname.constprop.1+0x146>
  4067e6:	44 8b 46 10          	mov    0x10(%rsi),%r8d
  4067ea:	49 81 f8 80 00 00 00 	cmp    $0x80,%r8
  4067f1:	0f 87 89 00 00 00    	ja     406880 <lookup_hostname.constprop.1+0x160>
  4067f7:	b9 10 00 00 00       	mov    $0x10,%ecx
  4067fc:	4c 89 f7             	mov    %r14,%rdi
  4067ff:	f3 48 ab             	rep stos %rax,%es:(%rdi)
  406802:	4c 89 f7             	mov    %r14,%rdi
  406805:	8b 56 10             	mov    0x10(%rsi),%edx
  406808:	48 8b 76 18          	mov    0x18(%rsi),%rsi
  40680c:	e8 bf bf ff ff       	callq  4027d0 <memmove@plt>
  406811:	41 c7 45 00 01 00 00 	movl   $0x1,0x0(%r13)
  406818:	00 
  406819:	48 85 db             	test   %rbx,%rbx
  40681c:	74 58                	je     406876 <lookup_hostname.constprop.1+0x156>
  40681e:	44 8b 43 10          	mov    0x10(%rbx),%r8d
  406822:	49 81 f8 80 00 00 00 	cmp    $0x80,%r8
  406829:	77 55                	ja     406880 <lookup_hostname.constprop.1+0x160>
  40682b:	31 c0                	xor    %eax,%eax
  40682d:	b9 10 00 00 00       	mov    $0x10,%ecx
  406832:	48 89 ef             	mov    %rbp,%rdi
  406835:	f3 48 ab             	rep stos %rax,%es:(%rdi)
  406838:	48 89 ef             	mov    %rbp,%rdi
  40683b:	8b 53 10             	mov    0x10(%rbx),%edx
  40683e:	48 8b 73 18          	mov    0x18(%rbx),%rsi
  406842:	e8 89 bf ff ff       	callq  4027d0 <memmove@plt>
  406847:	41 c7 04 24 01 00 00 	movl   $0x1,(%r12)
  40684e:	00 
  40684f:	48 8b 7c 24 08       	mov    0x8(%rsp),%rdi
  406854:	e8 47 c1 ff ff       	callq  4029a0 <freeaddrinfo@plt>
  406859:	48 83 c4 50          	add    $0x50,%rsp
  40685d:	5b                   	pop    %rbx
  40685e:	5d                   	pop    %rbp
  40685f:	41 5c                	pop    %r12
  406861:	41 5d                	pop    %r13
  406863:	41 5e                	pop    %r14
  406865:	c3                   	retq   
  406866:	48 89 d8             	mov    %rbx,%rax
  406869:	41 c7 45 00 00 00 00 	movl   $0x0,0x0(%r13)
  406870:	00 
  406871:	48 89 c3             	mov    %rax,%rbx
  406874:	eb a3                	jmp    406819 <lookup_hostname.constprop.1+0xf9>
  406876:	41 c7 04 24 00 00 00 	movl   $0x0,(%r12)
  40687d:	00 
  40687e:	eb cf                	jmp    40684f <lookup_hostname.constprop.1+0x12f>
  406880:	48 8b 15 01 f7 20 00 	mov    0x20f701(%rip),%rdx        # 615f88 <hostname>
  406887:	bf 02 00 00 00       	mov    $0x2,%edi
  40688c:	b9 80 00 00 00       	mov    $0x80,%ecx
  406891:	be 48 e9 40 00       	mov    $0x40e948,%esi
  406896:	31 c0                	xor    %eax,%eax
  406898:	e8 53 be ff ff       	callq  4026f0 <syslog@plt>
  40689d:	bf 01 00 00 00       	mov    $0x1,%edi
  4068a2:	e8 29 c0 ff ff       	callq  4028d0 <exit@plt>
  4068a7:	89 c7                	mov    %eax,%edi
  4068a9:	89 c3                	mov    %eax,%ebx
  4068ab:	e8 f0 bb ff ff       	callq  4024a0 <gai_strerror@plt>
  4068b0:	48 8b 15 d1 f6 20 00 	mov    0x20f6d1(%rip),%rdx        # 615f88 <hostname>
  4068b7:	48 89 c1             	mov    %rax,%rcx
  4068ba:	be 4e ed 40 00       	mov    $0x40ed4e,%esi
  4068bf:	bf 02 00 00 00       	mov    $0x2,%edi
  4068c4:	31 c0                	xor    %eax,%eax
  4068c6:	e8 25 be ff ff       	callq  4026f0 <syslog@plt>
  4068cb:	89 df                	mov    %ebx,%edi
  4068cd:	e8 ce bb ff ff       	callq  4024a0 <gai_strerror@plt>
  4068d2:	48 8b 3d 37 f6 20 00 	mov    0x20f637(%rip),%rdi        # 615f10 <stderr@@GLIBC_2.2.5>
  4068d9:	48 8b 0d a8 f6 20 00 	mov    0x20f6a8(%rip),%rcx        # 615f88 <hostname>
  4068e0:	49 89 c0             	mov    %rax,%r8
  4068e3:	48 8b 15 0e f7 20 00 	mov    0x20f70e(%rip),%rdx        # 615ff8 <argv0>
  4068ea:	be 68 ed 40 00       	mov    $0x40ed68,%esi
  4068ef:	31 c0                	xor    %eax,%eax
  4068f1:	e8 fa bc ff ff       	callq  4025f0 <fprintf@plt>
  4068f6:	bf 01 00 00 00       	mov    $0x1,%edi
  4068fb:	e8 d0 bf ff ff       	callq  4028d0 <exit@plt>

0000000000406900 <poll_init>:
  406900:	41 55                	push   %r13
  406902:	4c 63 ef             	movslq %edi,%r13
  406905:	41 54                	push   %r12
  406907:	55                   	push   %rbp
  406908:	53                   	push   %rbx
  406909:	4a 8d 3c ed 00 00 00 	lea    0x0(,%r13,8),%rdi
  406910:	00 
  406911:	4d 89 ec             	mov    %r13,%r12
  406914:	49 c1 e5 02          	shl    $0x2,%r13
  406918:	48 83 ec 08          	sub    $0x8,%rsp
  40691c:	e8 7f bd ff ff       	callq  4026a0 <malloc@plt>
  406921:	4c 89 ef             	mov    %r13,%rdi
  406924:	48 89 c3             	mov    %rax,%rbx
  406927:	48 89 05 ea f6 20 00 	mov    %rax,0x20f6ea(%rip)        # 616018 <pollfds>
  40692e:	e8 6d bd ff ff       	callq  4026a0 <malloc@plt>
  406933:	4c 89 ef             	mov    %r13,%rdi
  406936:	48 89 c5             	mov    %rax,%rbp
  406939:	48 89 05 c8 f6 20 00 	mov    %rax,0x20f6c8(%rip)        # 616008 <poll_fdidx>
  406940:	e8 5b bd ff ff       	callq  4026a0 <malloc@plt>
  406945:	48 85 ed             	test   %rbp,%rbp
  406948:	48 89 05 b1 f6 20 00 	mov    %rax,0x20f6b1(%rip)        # 616000 <poll_rfdidx>
  40694f:	0f 94 c1             	sete   %cl
  406952:	48 85 db             	test   %rbx,%rbx
  406955:	0f 94 c2             	sete   %dl
  406958:	08 d1                	or     %dl,%cl
  40695a:	75 39                	jne    406995 <poll_init+0x95>
  40695c:	48 85 c0             	test   %rax,%rax
  40695f:	74 34                	je     406995 <poll_init+0x95>
  406961:	31 c0                	xor    %eax,%eax
  406963:	45 85 e4             	test   %r12d,%r12d
  406966:	7e 20                	jle    406988 <poll_init+0x88>
  406968:	0f 1f 84 00 00 00 00 	nopl   0x0(%rax,%rax,1)
  40696f:	00 
  406970:	c7 44 85 00 ff ff ff 	movl   $0xffffffff,0x0(%rbp,%rax,4)
  406977:	ff 
  406978:	c7 04 c3 ff ff ff ff 	movl   $0xffffffff,(%rbx,%rax,8)
  40697f:	48 83 c0 01          	add    $0x1,%rax
  406983:	41 39 c4             	cmp    %eax,%r12d
  406986:	7f e8                	jg     406970 <poll_init+0x70>
  406988:	31 c0                	xor    %eax,%eax
  40698a:	48 83 c4 08          	add    $0x8,%rsp
  40698e:	5b                   	pop    %rbx
  40698f:	5d                   	pop    %rbp
  406990:	41 5c                	pop    %r12
  406992:	41 5d                	pop    %r13
  406994:	c3                   	retq   
  406995:	b8 ff ff ff ff       	mov    $0xffffffff,%eax
  40699a:	eb ee                	jmp    40698a <poll_init+0x8a>
  40699c:	0f 1f 40 00          	nopl   0x0(%rax)

00000000004069a0 <poll_add_fd>:
  4069a0:	8b 05 6a f6 20 00    	mov    0x20f66a(%rip),%eax        # 616010 <npoll_fds>
  4069a6:	3b 05 94 f6 20 00    	cmp    0x20f694(%rip),%eax        # 616040 <nfiles>
  4069ac:	7d 52                	jge    406a00 <poll_add_fd+0x60>
  4069ae:	48 8b 0d 63 f6 20 00 	mov    0x20f663(%rip),%rcx        # 616018 <pollfds>
  4069b5:	48 63 d0             	movslq %eax,%rdx
  4069b8:	85 f6                	test   %esi,%esi
  4069ba:	48 8d 14 d1          	lea    (%rcx,%rdx,8),%rdx
  4069be:	89 3a                	mov    %edi,(%rdx)
  4069c0:	74 2e                	je     4069f0 <poll_add_fd+0x50>
  4069c2:	83 fe 01             	cmp    $0x1,%esi
  4069c5:	75 09                	jne    4069d0 <poll_add_fd+0x30>
  4069c7:	b9 04 00 00 00       	mov    $0x4,%ecx
  4069cc:	66 89 4a 04          	mov    %cx,0x4(%rdx)
  4069d0:	48 8b 15 31 f6 20 00 	mov    0x20f631(%rip),%rdx        # 616008 <poll_fdidx>
  4069d7:	48 63 ff             	movslq %edi,%rdi
  4069da:	89 04 ba             	mov    %eax,(%rdx,%rdi,4)
  4069dd:	83 c0 01             	add    $0x1,%eax
  4069e0:	89 05 2a f6 20 00    	mov    %eax,0x20f62a(%rip)        # 616010 <npoll_fds>
  4069e6:	c3                   	retq   
  4069e7:	66 0f 1f 84 00 00 00 	nopw   0x0(%rax,%rax,1)
  4069ee:	00 00 
  4069f0:	be 01 00 00 00       	mov    $0x1,%esi
  4069f5:	66 89 72 04          	mov    %si,0x4(%rdx)
  4069f9:	eb d5                	jmp    4069d0 <poll_add_fd+0x30>
  4069fb:	0f 1f 44 00 00       	nopl   0x0(%rax,%rax,1)
  406a00:	be f1 ee 40 00       	mov    $0x40eef1,%esi
  406a05:	bf 03 00 00 00       	mov    $0x3,%edi
  406a0a:	31 c0                	xor    %eax,%eax
  406a0c:	e9 df bc ff ff       	jmpq   4026f0 <syslog@plt>
  406a11:	0f 1f 44 00 00       	nopl   0x0(%rax,%rax,1)
  406a16:	66 2e 0f 1f 84 00 00 	nopw   %cs:0x0(%rax,%rax,1)
  406a1d:	00 00 00 

0000000000406a20 <poll_del_fd>:
  406a20:	48 8b 35 e1 f5 20 00 	mov    0x20f5e1(%rip),%rsi        # 616008 <poll_fdidx>
  406a27:	48 63 ff             	movslq %edi,%rdi
  406a2a:	48 8d 0c be          	lea    (%rsi,%rdi,4),%rcx
  406a2e:	8b 11                	mov    (%rcx),%edx
  406a30:	85 d2                	test   %edx,%edx
  406a32:	78 44                	js     406a78 <poll_del_fd+0x58>
  406a34:	3b 15 06 f6 20 00    	cmp    0x20f606(%rip),%edx        # 616040 <nfiles>
  406a3a:	7d 3c                	jge    406a78 <poll_del_fd+0x58>
  406a3c:	8b 05 ce f5 20 00    	mov    0x20f5ce(%rip),%eax        # 616010 <npoll_fds>
  406a42:	4c 8b 05 cf f5 20 00 	mov    0x20f5cf(%rip),%r8        # 616018 <pollfds>
  406a49:	4c 63 ca             	movslq %edx,%r9
  406a4c:	83 e8 01             	sub    $0x1,%eax
  406a4f:	89 05 bb f5 20 00    	mov    %eax,0x20f5bb(%rip)        # 616010 <npoll_fds>
  406a55:	48 98                	cltq   
  406a57:	49 8d 3c c0          	lea    (%r8,%rax,8),%rdi
  406a5b:	48 8b 07             	mov    (%rdi),%rax
  406a5e:	4b 89 04 c8          	mov    %rax,(%r8,%r9,8)
  406a62:	48 98                	cltq   
  406a64:	89 14 86             	mov    %edx,(%rsi,%rax,4)
  406a67:	c7 07 ff ff ff ff    	movl   $0xffffffff,(%rdi)
  406a6d:	c7 01 ff ff ff ff    	movl   $0xffffffff,(%rcx)
  406a73:	c3                   	retq   
  406a74:	0f 1f 40 00          	nopl   0x0(%rax)
  406a78:	be 0e ef 40 00       	mov    $0x40ef0e,%esi
  406a7d:	bf 03 00 00 00       	mov    $0x3,%edi
  406a82:	31 c0                	xor    %eax,%eax
  406a84:	e9 67 bc ff ff       	jmpq   4026f0 <syslog@plt>
  406a89:	0f 1f 80 00 00 00 00 	nopl   0x0(%rax)

0000000000406a90 <poll_check_fd>:
  406a90:	48 8b 05 71 f5 20 00 	mov    0x20f571(%rip),%rax        # 616008 <poll_fdidx>
  406a97:	48 63 ff             	movslq %edi,%rdi
  406a9a:	48 63 14 b8          	movslq (%rax,%rdi,4),%rdx
  406a9e:	85 d2                	test   %edx,%edx
  406aa0:	78 36                	js     406ad8 <poll_check_fd+0x48>
  406aa2:	3b 15 98 f5 20 00    	cmp    0x20f598(%rip),%edx        # 616040 <nfiles>
  406aa8:	7d 2e                	jge    406ad8 <poll_check_fd+0x48>
  406aaa:	48 8b 05 67 f5 20 00 	mov    0x20f567(%rip),%rax        # 616018 <pollfds>
  406ab1:	0f b7 54 d0 06       	movzwl 0x6(%rax,%rdx,8),%edx
  406ab6:	31 c0                	xor    %eax,%eax
  406ab8:	f6 c2 08             	test   $0x8,%dl
  406abb:	75 36                	jne    406af3 <poll_check_fd+0x63>
  406abd:	48 8b 0d 6c f5 20 00 	mov    0x20f56c(%rip),%rcx        # 616030 <fd_rw>
  406ac4:	8b 0c b9             	mov    (%rcx,%rdi,4),%ecx
  406ac7:	85 c9                	test   %ecx,%ecx
  406ac9:	74 2d                	je     406af8 <poll_check_fd+0x68>
  406acb:	83 e2 34             	and    $0x34,%edx
  406ace:	83 f9 01             	cmp    $0x1,%ecx
  406ad1:	0f 44 c2             	cmove  %edx,%eax
  406ad4:	c3                   	retq   
  406ad5:	0f 1f 00             	nopl   (%rax)
  406ad8:	48 83 ec 08          	sub    $0x8,%rsp
  406adc:	31 c0                	xor    %eax,%eax
  406ade:	be 70 ef 40 00       	mov    $0x40ef70,%esi
  406ae3:	bf 03 00 00 00       	mov    $0x3,%edi
  406ae8:	e8 03 bc ff ff       	callq  4026f0 <syslog@plt>
  406aed:	48 83 c4 08          	add    $0x8,%rsp
  406af1:	31 c0                	xor    %eax,%eax
  406af3:	f3 c3                	repz retq 
  406af5:	0f 1f 00             	nopl   (%rax)
  406af8:	89 d0                	mov    %edx,%eax
  406afa:	83 e0 31             	and    $0x31,%eax
  406afd:	c3                   	retq   
  406afe:	66 90                	xchg   %ax,%ax

0000000000406b00 <poll_get_fd>:
  406b00:	85 ff                	test   %edi,%edi
  406b02:	78 1c                	js     406b20 <poll_get_fd+0x20>
  406b04:	3b 3d 36 f5 20 00    	cmp    0x20f536(%rip),%edi        # 616040 <nfiles>
  406b0a:	7d 14                	jge    406b20 <poll_get_fd+0x20>
  406b0c:	48 8b 05 ed f4 20 00 	mov    0x20f4ed(%rip),%rax        # 616000 <poll_rfdidx>
  406b13:	48 63 ff             	movslq %edi,%rdi
  406b16:	8b 04 b8             	mov    (%rax,%rdi,4),%eax
  406b19:	c3                   	retq   
  406b1a:	66 0f 1f 44 00 00    	nopw   0x0(%rax,%rax,1)
  406b20:	48 83 ec 08          	sub    $0x8,%rsp
  406b24:	89 fa                	mov    %edi,%edx
  406b26:	31 c0                	xor    %eax,%eax
  406b28:	be 2b ef 40 00       	mov    $0x40ef2b,%esi
  406b2d:	bf 03 00 00 00       	mov    $0x3,%edi
  406b32:	e8 b9 bb ff ff       	callq  4026f0 <syslog@plt>
  406b37:	b8 ff ff ff ff       	mov    $0xffffffff,%eax
  406b3c:	48 83 c4 08          	add    $0x8,%rsp
  406b40:	c3                   	retq   
  406b41:	0f 1f 44 00 00       	nopl   0x0(%rax,%rax,1)
  406b46:	66 2e 0f 1f 84 00 00 	nopw   %cs:0x0(%rax,%rax,1)
  406b4d:	00 00 00 

0000000000406b50 <poll_watch>:
  406b50:	48 83 ec 08          	sub    $0x8,%rsp
  406b54:	48 63 35 b5 f4 20 00 	movslq 0x20f4b5(%rip),%rsi        # 616010 <npoll_fds>
  406b5b:	89 fa                	mov    %edi,%edx
  406b5d:	48 8b 3d b4 f4 20 00 	mov    0x20f4b4(%rip),%rdi        # 616018 <pollfds>
  406b64:	e8 17 bc ff ff       	callq  402780 <poll@plt>
  406b69:	85 c0                	test   %eax,%eax
  406b6b:	7e 53                	jle    406bc0 <poll_watch+0x70>
  406b6d:	8b 0d 9d f4 20 00    	mov    0x20f49d(%rip),%ecx        # 616010 <npoll_fds>
  406b73:	85 c9                	test   %ecx,%ecx
  406b75:	7e 52                	jle    406bc9 <poll_watch+0x79>
  406b77:	48 8b 15 9a f4 20 00 	mov    0x20f49a(%rip),%rdx        # 616018 <pollfds>
  406b7e:	4c 8b 0d 7b f4 20 00 	mov    0x20f47b(%rip),%r9        # 616000 <poll_rfdidx>
  406b85:	83 e9 01             	sub    $0x1,%ecx
  406b88:	48 8d 7c ca 08       	lea    0x8(%rdx,%rcx,8),%rdi
  406b8d:	31 c9                	xor    %ecx,%ecx
  406b8f:	90                   	nop
  406b90:	f6 42 06 3d          	testb  $0x3d,0x6(%rdx)
  406b94:	74 11                	je     406ba7 <poll_watch+0x57>
  406b96:	8d 71 01             	lea    0x1(%rcx),%esi
  406b99:	44 8b 02             	mov    (%rdx),%r8d
  406b9c:	39 f0                	cmp    %esi,%eax
  406b9e:	45 89 04 89          	mov    %r8d,(%r9,%rcx,4)
  406ba2:	74 1c                	je     406bc0 <poll_watch+0x70>
  406ba4:	48 63 ce             	movslq %esi,%rcx
  406ba7:	48 83 c2 08          	add    $0x8,%rdx
  406bab:	48 39 fa             	cmp    %rdi,%rdx
  406bae:	75 e0                	jne    406b90 <poll_watch+0x40>
  406bb0:	89 c8                	mov    %ecx,%eax
  406bb2:	48 83 c4 08          	add    $0x8,%rsp
  406bb6:	c3                   	retq   
  406bb7:	66 0f 1f 84 00 00 00 	nopw   0x0(%rax,%rax,1)
  406bbe:	00 00 
  406bc0:	89 c1                	mov    %eax,%ecx
  406bc2:	48 83 c4 08          	add    $0x8,%rsp
  406bc6:	89 c8                	mov    %ecx,%eax
  406bc8:	c3                   	retq   
  406bc9:	31 c9                	xor    %ecx,%ecx
  406bcb:	eb e3                	jmp    406bb0 <poll_watch+0x60>
  406bcd:	0f 1f 00             	nopl   (%rax)

0000000000406bd0 <fdwatch_get_nfiles>:
  406bd0:	41 54                	push   %r12
  406bd2:	55                   	push   %rbp
  406bd3:	53                   	push   %rbx
  406bd4:	48 83 ec 10          	sub    $0x10,%rsp
  406bd8:	e8 93 bd ff ff       	callq  402970 <getdtablesize@plt>
  406bdd:	48 89 e6             	mov    %rsp,%rsi
  406be0:	bf 07 00 00 00       	mov    $0x7,%edi
  406be5:	89 c5                	mov    %eax,%ebp
  406be7:	89 05 53 f4 20 00    	mov    %eax,0x20f453(%rip)        # 616040 <nfiles>
  406bed:	e8 fe bc ff ff       	callq  4028f0 <getrlimit@plt>
  406bf2:	85 c0                	test   %eax,%eax
  406bf4:	75 41                	jne    406c37 <fdwatch_get_nfiles+0x67>
  406bf6:	48 8b 54 24 08       	mov    0x8(%rsp),%rdx
  406bfb:	48 8b 04 24          	mov    (%rsp),%rax
  406bff:	48 83 fa ff          	cmp    $0xffffffffffffffff,%rdx
  406c03:	89 c5                	mov    %eax,%ebp
  406c05:	89 05 35 f4 20 00    	mov    %eax,0x20f435(%rip)        # 616040 <nfiles>
  406c0b:	0f 84 bf 00 00 00    	je     406cd0 <fdwatch_get_nfiles+0x100>
  406c11:	48 39 d0             	cmp    %rdx,%rax
  406c14:	0f 82 a6 00 00 00    	jb     406cc0 <fdwatch_get_nfiles+0xf0>
  406c1a:	48 89 e6             	mov    %rsp,%rsi
  406c1d:	bf 07 00 00 00       	mov    $0x7,%edi
  406c22:	e8 19 bb ff ff       	callq  402740 <setrlimit@plt>
  406c27:	85 c0                	test   %eax,%eax
  406c29:	75 0c                	jne    406c37 <fdwatch_get_nfiles+0x67>
  406c2b:	48 8b 04 24          	mov    (%rsp),%rax
  406c2f:	89 c5                	mov    %eax,%ebp
  406c31:	89 05 09 f4 20 00    	mov    %eax,0x20f409(%rip)        # 616040 <nfiles>
  406c37:	4c 63 e5             	movslq %ebp,%r12
  406c3a:	48 c7 05 f3 f3 20 00 	movq   $0x0,0x20f3f3(%rip)        # 616038 <nwatches>
  406c41:	00 00 00 00 
  406c45:	4a 8d 3c a5 00 00 00 	lea    0x0(,%r12,4),%rdi
  406c4c:	00 
  406c4d:	e8 4e ba ff ff       	callq  4026a0 <malloc@plt>
  406c52:	4a 8d 3c e5 00 00 00 	lea    0x0(,%r12,8),%rdi
  406c59:	00 
  406c5a:	48 89 c3             	mov    %rax,%rbx
  406c5d:	48 89 05 cc f3 20 00 	mov    %rax,0x20f3cc(%rip)        # 616030 <fd_rw>
  406c64:	e8 37 ba ff ff       	callq  4026a0 <malloc@plt>
  406c69:	48 85 c0             	test   %rax,%rax
  406c6c:	48 89 05 b5 f3 20 00 	mov    %rax,0x20f3b5(%rip)        # 616028 <fd_data>
  406c73:	74 68                	je     406cdd <fdwatch_get_nfiles+0x10d>
  406c75:	48 85 db             	test   %rbx,%rbx
  406c78:	74 63                	je     406cdd <fdwatch_get_nfiles+0x10d>
  406c7a:	85 ed                	test   %ebp,%ebp
  406c7c:	7e 21                	jle    406c9f <fdwatch_get_nfiles+0xcf>
  406c7e:	8d 55 ff             	lea    -0x1(%rbp),%edx
  406c81:	48 89 d8             	mov    %rbx,%rax
  406c84:	48 8d 54 93 04       	lea    0x4(%rbx,%rdx,4),%rdx
  406c89:	0f 1f 80 00 00 00 00 	nopl   0x0(%rax)
  406c90:	c7 00 ff ff ff ff    	movl   $0xffffffff,(%rax)
  406c96:	48 83 c0 04          	add    $0x4,%rax
  406c9a:	48 39 d0             	cmp    %rdx,%rax
  406c9d:	75 f1                	jne    406c90 <fdwatch_get_nfiles+0xc0>
  406c9f:	89 ef                	mov    %ebp,%edi
  406ca1:	e8 5a fc ff ff       	callq  406900 <poll_init>
  406ca6:	83 f8 ff             	cmp    $0xffffffff,%eax
  406ca9:	74 32                	je     406cdd <fdwatch_get_nfiles+0x10d>
  406cab:	48 83 c4 10          	add    $0x10,%rsp
  406caf:	89 e8                	mov    %ebp,%eax
  406cb1:	5b                   	pop    %rbx
  406cb2:	5d                   	pop    %rbp
  406cb3:	41 5c                	pop    %r12
  406cb5:	c3                   	retq   
  406cb6:	66 2e 0f 1f 84 00 00 	nopw   %cs:0x0(%rax,%rax,1)
  406cbd:	00 00 00 
  406cc0:	48 89 14 24          	mov    %rdx,(%rsp)
  406cc4:	e9 51 ff ff ff       	jmpq   406c1a <fdwatch_get_nfiles+0x4a>
  406cc9:	0f 1f 80 00 00 00 00 	nopl   0x0(%rax)
  406cd0:	48 c7 04 24 00 20 00 	movq   $0x2000,(%rsp)
  406cd7:	00 
  406cd8:	e9 3d ff ff ff       	jmpq   406c1a <fdwatch_get_nfiles+0x4a>
  406cdd:	bd ff ff ff ff       	mov    $0xffffffff,%ebp
  406ce2:	eb c7                	jmp    406cab <fdwatch_get_nfiles+0xdb>
  406ce4:	66 90                	xchg   %ax,%ax
  406ce6:	66 2e 0f 1f 84 00 00 	nopw   %cs:0x0(%rax,%rax,1)
  406ced:	00 00 00 

0000000000406cf0 <fdwatch_add_fd>:
  406cf0:	85 ff                	test   %edi,%edi
  406cf2:	41 54                	push   %r12
  406cf4:	55                   	push   %rbp
  406cf5:	53                   	push   %rbx
  406cf6:	78 18                	js     406d10 <fdwatch_add_fd+0x20>
  406cf8:	3b 3d 42 f3 20 00    	cmp    0x20f342(%rip),%edi        # 616040 <nfiles>
  406cfe:	7d 10                	jge    406d10 <fdwatch_add_fd+0x20>
  406d00:	48 8b 05 29 f3 20 00 	mov    0x20f329(%rip),%rax        # 616030 <fd_rw>
  406d07:	48 63 ef             	movslq %edi,%rbp
  406d0a:	83 3c a8 ff          	cmpl   $0xffffffff,(%rax,%rbp,4)
  406d0e:	74 20                	je     406d30 <fdwatch_add_fd+0x40>
  406d10:	5b                   	pop    %rbx
  406d11:	5d                   	pop    %rbp
  406d12:	41 5c                	pop    %r12
  406d14:	89 fa                	mov    %edi,%edx
  406d16:	be 98 ef 40 00       	mov    $0x40ef98,%esi
  406d1b:	bf 03 00 00 00       	mov    $0x3,%edi
  406d20:	31 c0                	xor    %eax,%eax
  406d22:	e9 c9 b9 ff ff       	jmpq   4026f0 <syslog@plt>
  406d27:	66 0f 1f 84 00 00 00 	nopw   0x0(%rax,%rax,1)
  406d2e:	00 00 
  406d30:	49 89 f4             	mov    %rsi,%r12
  406d33:	89 d6                	mov    %edx,%esi
  406d35:	89 d3                	mov    %edx,%ebx
  406d37:	e8 64 fc ff ff       	callq  4069a0 <poll_add_fd>
  406d3c:	48 8b 05 ed f2 20 00 	mov    0x20f2ed(%rip),%rax        # 616030 <fd_rw>
  406d43:	89 1c a8             	mov    %ebx,(%rax,%rbp,4)
  406d46:	48 8b 05 db f2 20 00 	mov    0x20f2db(%rip),%rax        # 616028 <fd_data>
  406d4d:	4c 89 24 e8          	mov    %r12,(%rax,%rbp,8)
  406d51:	5b                   	pop    %rbx
  406d52:	5d                   	pop    %rbp
  406d53:	41 5c                	pop    %r12
  406d55:	c3                   	retq   
  406d56:	66 2e 0f 1f 84 00 00 	nopw   %cs:0x0(%rax,%rax,1)
  406d5d:	00 00 00 

0000000000406d60 <fdwatch_del_fd>:
  406d60:	85 ff                	test   %edi,%edi
  406d62:	53                   	push   %rbx
  406d63:	78 43                	js     406da8 <fdwatch_del_fd+0x48>
  406d65:	3b 3d d5 f2 20 00    	cmp    0x20f2d5(%rip),%edi        # 616040 <nfiles>
  406d6b:	7d 3b                	jge    406da8 <fdwatch_del_fd+0x48>
  406d6d:	48 8b 05 bc f2 20 00 	mov    0x20f2bc(%rip),%rax        # 616030 <fd_rw>
  406d74:	48 63 df             	movslq %edi,%rbx
  406d77:	83 3c 98 ff          	cmpl   $0xffffffff,(%rax,%rbx,4)
  406d7b:	74 2b                	je     406da8 <fdwatch_del_fd+0x48>
  406d7d:	e8 9e fc ff ff       	callq  406a20 <poll_del_fd>
  406d82:	48 8b 05 a7 f2 20 00 	mov    0x20f2a7(%rip),%rax        # 616030 <fd_rw>
  406d89:	c7 04 98 ff ff ff ff 	movl   $0xffffffff,(%rax,%rbx,4)
  406d90:	48 8b 05 91 f2 20 00 	mov    0x20f291(%rip),%rax        # 616028 <fd_data>
  406d97:	48 c7 04 d8 00 00 00 	movq   $0x0,(%rax,%rbx,8)
  406d9e:	00 
  406d9f:	5b                   	pop    %rbx
  406da0:	c3                   	retq   
  406da1:	0f 1f 80 00 00 00 00 	nopl   0x0(%rax)
  406da8:	5b                   	pop    %rbx
  406da9:	89 fa                	mov    %edi,%edx
  406dab:	be c0 ef 40 00       	mov    $0x40efc0,%esi
  406db0:	bf 03 00 00 00       	mov    $0x3,%edi
  406db5:	31 c0                	xor    %eax,%eax
  406db7:	e9 34 b9 ff ff       	jmpq   4026f0 <syslog@plt>
  406dbc:	0f 1f 40 00          	nopl   0x0(%rax)

0000000000406dc0 <fdwatch>:
  406dc0:	48 83 ec 08          	sub    $0x8,%rsp
  406dc4:	48 83 05 6c f2 20 00 	addq   $0x1,0x20f26c(%rip)        # 616038 <nwatches>
  406dcb:	01 
  406dcc:	e8 7f fd ff ff       	callq  406b50 <poll_watch>
  406dd1:	89 05 4d f2 20 00    	mov    %eax,0x20f24d(%rip)        # 616024 <nreturned>
  406dd7:	c7 05 3f f2 20 00 00 	movl   $0x0,0x20f23f(%rip)        # 616020 <next_ridx>
  406dde:	00 00 00 
  406de1:	48 83 c4 08          	add    $0x8,%rsp
  406de5:	c3                   	retq   
  406de6:	66 2e 0f 1f 84 00 00 	nopw   %cs:0x0(%rax,%rax,1)
  406ded:	00 00 00 

0000000000406df0 <fdwatch_check_fd>:
  406df0:	85 ff                	test   %edi,%edi
  406df2:	78 24                	js     406e18 <fdwatch_check_fd+0x28>
  406df4:	3b 3d 46 f2 20 00    	cmp    0x20f246(%rip),%edi        # 616040 <nfiles>
  406dfa:	7d 1c                	jge    406e18 <fdwatch_check_fd+0x28>
  406dfc:	48 8b 15 2d f2 20 00 	mov    0x20f22d(%rip),%rdx        # 616030 <fd_rw>
  406e03:	48 63 c7             	movslq %edi,%rax
  406e06:	83 3c 82 ff          	cmpl   $0xffffffff,(%rdx,%rax,4)
  406e0a:	74 0c                	je     406e18 <fdwatch_check_fd+0x28>
  406e0c:	e9 7f fc ff ff       	jmpq   406a90 <poll_check_fd>
  406e11:	0f 1f 80 00 00 00 00 	nopl   0x0(%rax)
  406e18:	48 83 ec 08          	sub    $0x8,%rsp
  406e1c:	89 fa                	mov    %edi,%edx
  406e1e:	31 c0                	xor    %eax,%eax
  406e20:	be e8 ef 40 00       	mov    $0x40efe8,%esi
  406e25:	bf 03 00 00 00       	mov    $0x3,%edi
  406e2a:	e8 c1 b8 ff ff       	callq  4026f0 <syslog@plt>
  406e2f:	31 c0                	xor    %eax,%eax
  406e31:	48 83 c4 08          	add    $0x8,%rsp
  406e35:	c3                   	retq   
  406e36:	66 2e 0f 1f 84 00 00 	nopw   %cs:0x0(%rax,%rax,1)
  406e3d:	00 00 00 

0000000000406e40 <fdwatch_get_next_client_data>:
  406e40:	8b 3d da f1 20 00    	mov    0x20f1da(%rip),%edi        # 616020 <next_ridx>
  406e46:	3b 3d d8 f1 20 00    	cmp    0x20f1d8(%rip),%edi        # 616024 <nreturned>
  406e4c:	48 c7 c0 ff ff ff ff 	mov    $0xffffffffffffffff,%rax
  406e53:	7c 0b                	jl     406e60 <fdwatch_get_next_client_data+0x20>
  406e55:	c3                   	retq   
  406e56:	66 2e 0f 1f 84 00 00 	nopw   %cs:0x0(%rax,%rax,1)
  406e5d:	00 00 00 
  406e60:	8d 47 01             	lea    0x1(%rdi),%eax
  406e63:	48 83 ec 08          	sub    $0x8,%rsp
  406e67:	89 05 b3 f1 20 00    	mov    %eax,0x20f1b3(%rip)        # 616020 <next_ridx>
  406e6d:	e8 8e fc ff ff       	callq  406b00 <poll_get_fd>
  406e72:	85 c0                	test   %eax,%eax
  406e74:	78 1a                	js     406e90 <fdwatch_get_next_client_data+0x50>
  406e76:	3b 05 c4 f1 20 00    	cmp    0x20f1c4(%rip),%eax        # 616040 <nfiles>
  406e7c:	7d 12                	jge    406e90 <fdwatch_get_next_client_data+0x50>
  406e7e:	48 8b 15 a3 f1 20 00 	mov    0x20f1a3(%rip),%rdx        # 616028 <fd_data>
  406e85:	48 98                	cltq   
  406e87:	48 8b 04 c2          	mov    (%rdx,%rax,8),%rax
  406e8b:	48 83 c4 08          	add    $0x8,%rsp
  406e8f:	c3                   	retq   
  406e90:	31 c0                	xor    %eax,%eax
  406e92:	eb f7                	jmp    406e8b <fdwatch_get_next_client_data+0x4b>
  406e94:	66 90                	xchg   %ax,%ax
  406e96:	66 2e 0f 1f 84 00 00 	nopw   %cs:0x0(%rax,%rax,1)
  406e9d:	00 00 00 

0000000000406ea0 <fdwatch_logstats>:
  406ea0:	48 85 ff             	test   %rdi,%rdi
  406ea3:	7e 53                	jle    406ef8 <fdwatch_logstats+0x58>
  406ea5:	48 83 ec 08          	sub    $0x8,%rsp
  406ea9:	66 0f ef c0          	pxor   %xmm0,%xmm0
  406ead:	48 8b 15 84 f1 20 00 	mov    0x20f184(%rip),%rdx        # 616038 <nwatches>
  406eb4:	66 0f ef c9          	pxor   %xmm1,%xmm1
  406eb8:	b9 49 ef 40 00       	mov    $0x40ef49,%ecx
  406ebd:	be 4e ef 40 00       	mov    $0x40ef4e,%esi
  406ec2:	b8 01 00 00 00       	mov    $0x1,%eax
  406ec7:	f3 48 0f 2a cf       	cvtsi2ss %rdi,%xmm1
  406ecc:	bf 06 00 00 00       	mov    $0x6,%edi
  406ed1:	f3 48 0f 2a c2       	cvtsi2ss %rdx,%xmm0
  406ed6:	f3 0f 5e c1          	divss  %xmm1,%xmm0
  406eda:	f3 0f 5a c0          	cvtss2sd %xmm0,%xmm0
  406ede:	e8 0d b8 ff ff       	callq  4026f0 <syslog@plt>
  406ee3:	48 c7 05 4a f1 20 00 	movq   $0x0,0x20f14a(%rip)        # 616038 <nwatches>
  406eea:	00 00 00 00 
  406eee:	48 83 c4 08          	add    $0x8,%rsp
  406ef2:	c3                   	retq   
  406ef3:	0f 1f 44 00 00       	nopl   0x0(%rax,%rax,1)
  406ef8:	48 c7 05 35 f1 20 00 	movq   $0x0,0x20f135(%rip)        # 616038 <nwatches>
  406eff:	00 00 00 00 
  406f03:	c3                   	retq   
  406f04:	66 2e 0f 1f 84 00 00 	nopw   %cs:0x0(%rax,%rax,1)
  406f0b:	00 00 00 
  406f0e:	66 90                	xchg   %ax,%ax

0000000000406f10 <hexit>:
  406f10:	8d 47 d0             	lea    -0x30(%rdi),%eax
  406f13:	3c 09                	cmp    $0x9,%al
  406f15:	76 29                	jbe    406f40 <hexit+0x30>
  406f17:	8d 47 9f             	lea    -0x61(%rdi),%eax
  406f1a:	3c 05                	cmp    $0x5,%al
  406f1c:	76 1a                	jbe    406f38 <hexit+0x28>
  406f1e:	8d 57 bf             	lea    -0x41(%rdi),%edx
  406f21:	40 0f be c7          	movsbl %dil,%eax
  406f25:	bf 00 00 00 00       	mov    $0x0,%edi
  406f2a:	83 e8 37             	sub    $0x37,%eax
  406f2d:	80 fa 05             	cmp    $0x5,%dl
  406f30:	0f 47 c7             	cmova  %edi,%eax
  406f33:	c3                   	retq   
  406f34:	0f 1f 40 00          	nopl   0x0(%rax)
  406f38:	40 0f be ff          	movsbl %dil,%edi
  406f3c:	8d 47 a9             	lea    -0x57(%rdi),%eax
  406f3f:	c3                   	retq   
  406f40:	40 0f be ff          	movsbl %dil,%edi
  406f44:	8d 47 d0             	lea    -0x30(%rdi),%eax
  406f47:	c3                   	retq   
  406f48:	0f 1f 84 00 00 00 00 	nopl   0x0(%rax,%rax,1)
  406f4f:	00 

0000000000406f50 <bufgets>:
  406f50:	4c 8b 8f a8 00 00 00 	mov    0xa8(%rdi),%r9
  406f57:	48 8b 8f a0 00 00 00 	mov    0xa0(%rdi),%rcx
  406f5e:	49 39 c9             	cmp    %rcx,%r9
  406f61:	73 53                	jae    406fb6 <bufgets+0x66>
  406f63:	48 8b b7 90 00 00 00 	mov    0x90(%rdi),%rsi
  406f6a:	4e 8d 04 0e          	lea    (%rsi,%r9,1),%r8
  406f6e:	41 0f b6 10          	movzbl (%r8),%edx
  406f72:	80 fa 0a             	cmp    $0xa,%dl
  406f75:	74 49                	je     406fc0 <bufgets+0x70>
  406f77:	48 01 f1             	add    %rsi,%rcx
  406f7a:	80 fa 0d             	cmp    $0xd,%dl
  406f7d:	4a 8d 44 0e 01       	lea    0x1(%rsi,%r9,1),%rax
  406f82:	75 20                	jne    406fa4 <bufgets+0x54>
  406f84:	eb 3a                	jmp    406fc0 <bufgets+0x70>
  406f86:	66 2e 0f 1f 84 00 00 	nopw   %cs:0x0(%rax,%rax,1)
  406f8d:	00 00 00 
  406f90:	0f b6 10             	movzbl (%rax),%edx
  406f93:	49 89 c0             	mov    %rax,%r8
  406f96:	48 83 c0 01          	add    $0x1,%rax
  406f9a:	80 fa 0a             	cmp    $0xa,%dl
  406f9d:	74 21                	je     406fc0 <bufgets+0x70>
  406f9f:	80 fa 0d             	cmp    $0xd,%dl
  406fa2:	74 1c                	je     406fc0 <bufgets+0x70>
  406fa4:	48 89 c2             	mov    %rax,%rdx
  406fa7:	48 29 f2             	sub    %rsi,%rdx
  406faa:	48 39 c8             	cmp    %rcx,%rax
  406fad:	48 89 97 a8 00 00 00 	mov    %rdx,0xa8(%rdi)
  406fb4:	75 da                	jne    406f90 <bufgets+0x40>
  406fb6:	31 c0                	xor    %eax,%eax
  406fb8:	c3                   	retq   
  406fb9:	0f 1f 80 00 00 00 00 	nopl   0x0(%rax)
  406fc0:	41 c6 00 00          	movb   $0x0,(%r8)
  406fc4:	48 8b 87 a8 00 00 00 	mov    0xa8(%rdi),%rax
  406fcb:	80 fa 0d             	cmp    $0xd,%dl
  406fce:	48 8d 48 01          	lea    0x1(%rax),%rcx
  406fd2:	48 89 8f a8 00 00 00 	mov    %rcx,0xa8(%rdi)
  406fd9:	74 15                	je     406ff0 <bufgets+0xa0>
  406fdb:	48 8b 87 90 00 00 00 	mov    0x90(%rdi),%rax
  406fe2:	4d 63 c9             	movslq %r9d,%r9
  406fe5:	4c 01 c8             	add    %r9,%rax
  406fe8:	c3                   	retq   
  406fe9:	0f 1f 80 00 00 00 00 	nopl   0x0(%rax)
  406ff0:	48 3b 8f a0 00 00 00 	cmp    0xa0(%rdi),%rcx
  406ff7:	73 e2                	jae    406fdb <bufgets+0x8b>
  406ff9:	48 8b 87 90 00 00 00 	mov    0x90(%rdi),%rax
  407000:	48 01 c1             	add    %rax,%rcx
  407003:	80 39 0a             	cmpb   $0xa,(%rcx)
  407006:	75 da                	jne    406fe2 <bufgets+0x92>
  407008:	c6 01 00             	movb   $0x0,(%rcx)
  40700b:	48 83 87 a8 00 00 00 	addq   $0x1,0xa8(%rdi)
  407012:	01 
  407013:	eb c6                	jmp    406fdb <bufgets+0x8b>
  407015:	90                   	nop
  407016:	66 2e 0f 1f 84 00 00 	nopw   %cs:0x0(%rax,%rax,1)
  40701d:	00 00 00 

0000000000407020 <free_httpd_server>:
  407020:	53                   	push   %rbx
  407021:	48 89 fb             	mov    %rdi,%rbx
  407024:	48 8b 3f             	mov    (%rdi),%rdi
  407027:	48 85 ff             	test   %rdi,%rdi
  40702a:	74 05                	je     407031 <free_httpd_server+0x11>
  40702c:	e8 6f b2 ff ff       	callq  4022a0 <free@plt>
  407031:	48 8b 7b 40          	mov    0x40(%rbx),%rdi
  407035:	48 85 ff             	test   %rdi,%rdi
  407038:	74 05                	je     40703f <free_httpd_server+0x1f>
  40703a:	e8 61 b2 ff ff       	callq  4022a0 <free@plt>
  40703f:	48 8b 7b 18          	mov    0x18(%rbx),%rdi
  407043:	48 85 ff             	test   %rdi,%rdi
  407046:	74 05                	je     40704d <free_httpd_server+0x2d>
  407048:	e8 53 b2 ff ff       	callq  4022a0 <free@plt>
  40704d:	48 8b 7b 28          	mov    0x28(%rbx),%rdi
  407051:	48 85 ff             	test   %rdi,%rdi
  407054:	74 05                	je     40705b <free_httpd_server+0x3b>
  407056:	e8 45 b2 ff ff       	callq  4022a0 <free@plt>
  40705b:	48 8b 7b 30          	mov    0x30(%rbx),%rdi
  40705f:	48 85 ff             	test   %rdi,%rdi
  407062:	74 05                	je     407069 <free_httpd_server+0x49>
  407064:	e8 37 b2 ff ff       	callq  4022a0 <free@plt>
  407069:	48 8b 7b 70          	mov    0x70(%rbx),%rdi
  40706d:	48 85 ff             	test   %rdi,%rdi
  407070:	74 05                	je     407077 <free_httpd_server+0x57>
  407072:	e8 29 b2 ff ff       	callq  4022a0 <free@plt>
  407077:	48 8b 7b 78          	mov    0x78(%rbx),%rdi
  40707b:	48 85 ff             	test   %rdi,%rdi
  40707e:	74 05                	je     407085 <free_httpd_server+0x65>
  407080:	e8 1b b2 ff ff       	callq  4022a0 <free@plt>
  407085:	48 89 df             	mov    %rbx,%rdi
  407088:	5b                   	pop    %rbx
  407089:	e9 12 b2 ff ff       	jmpq   4022a0 <free@plt>
  40708e:	66 90                	xchg   %ax,%ax

0000000000407090 <init_mime>:
  407090:	53                   	push   %rbx
  407091:	b9 20 71 40 00       	mov    $0x407120,%ecx
  407096:	ba 20 00 00 00       	mov    $0x20,%edx
  40709b:	be 04 00 00 00       	mov    $0x4,%esi
  4070a0:	bf e0 5b 61 00       	mov    $0x615be0,%edi
  4070a5:	bb e0 5b 61 00       	mov    $0x615be0,%ebx
  4070aa:	e8 b1 b2 ff ff       	callq  402360 <qsort@plt>
  4070af:	b9 20 71 40 00       	mov    $0x407120,%ecx
  4070b4:	ba 20 00 00 00       	mov    $0x20,%edx
  4070b9:	be be 00 00 00       	mov    $0xbe,%esi
  4070be:	bf 20 44 61 00       	mov    $0x614420,%edi
  4070c3:	e8 98 b2 ff ff       	callq  402360 <qsort@plt>
  4070c8:	48 8b 3b             	mov    (%rbx),%rdi
  4070cb:	48 83 c3 20          	add    $0x20,%rbx
  4070cf:	e8 4c b3 ff ff       	callq  402420 <strlen@plt>
  4070d4:	48 8b 7b f0          	mov    -0x10(%rbx),%rdi
  4070d8:	48 89 43 e8          	mov    %rax,-0x18(%rbx)
  4070dc:	e8 3f b3 ff ff       	callq  402420 <strlen@plt>
  4070e1:	48 89 43 f8          	mov    %rax,-0x8(%rbx)
  4070e5:	48 81 fb 60 5c 61 00 	cmp    $0x615c60,%rbx
  4070ec:	75 da                	jne    4070c8 <init_mime+0x38>
  4070ee:	bb 20 44 61 00       	mov    $0x614420,%ebx
  4070f3:	0f 1f 44 00 00       	nopl   0x0(%rax,%rax,1)
  4070f8:	48 8b 3b             	mov    (%rbx),%rdi
  4070fb:	48 83 c3 20          	add    $0x20,%rbx
  4070ff:	e8 1c b3 ff ff       	callq  402420 <strlen@plt>
  407104:	48 8b 7b f0          	mov    -0x10(%rbx),%rdi
  407108:	48 89 43 e8          	mov    %rax,-0x18(%rbx)
  40710c:	e8 0f b3 ff ff       	callq  402420 <strlen@plt>
  407111:	48 89 43 f8          	mov    %rax,-0x8(%rbx)
  407115:	48 81 fb e0 5b 61 00 	cmp    $0x615be0,%rbx
  40711c:	75 da                	jne    4070f8 <init_mime+0x68>
  40711e:	5b                   	pop    %rbx
  40711f:	c3                   	retq   

0000000000407120 <ext_compare>:
  407120:	48 8b 36             	mov    (%rsi),%rsi
  407123:	48 8b 3f             	mov    (%rdi),%rdi
  407126:	e9 a5 b4 ff ff       	jmpq   4025d0 <strcmp@plt>
  40712b:	0f 1f 44 00 00       	nopl   0x0(%rax,%rax,1)

0000000000407130 <name_compare>:
  407130:	48 8b 36             	mov    (%rsi),%rsi
  407133:	48 8b 3f             	mov    (%rdi),%rdi
  407136:	e9 95 b4 ff ff       	jmpq   4025d0 <strcmp@plt>
  40713b:	0f 1f 44 00 00       	nopl   0x0(%rax,%rax,1)

0000000000407140 <my_snprintf>:
  407140:	48 81 ec d8 00 00 00 	sub    $0xd8,%rsp
  407147:	84 c0                	test   %al,%al
  407149:	48 89 4c 24 38       	mov    %rcx,0x38(%rsp)
  40714e:	4c 89 44 24 40       	mov    %r8,0x40(%rsp)
  407153:	4c 89 4c 24 48       	mov    %r9,0x48(%rsp)
  407158:	74 37                	je     407191 <my_snprintf+0x51>
  40715a:	0f 29 44 24 50       	movaps %xmm0,0x50(%rsp)
  40715f:	0f 29 4c 24 60       	movaps %xmm1,0x60(%rsp)
  407164:	0f 29 54 24 70       	movaps %xmm2,0x70(%rsp)
  407169:	0f 29 9c 24 80 00 00 	movaps %xmm3,0x80(%rsp)
  407170:	00 
  407171:	0f 29 a4 24 90 00 00 	movaps %xmm4,0x90(%rsp)
  407178:	00 
  407179:	0f 29 ac 24 a0 00 00 	movaps %xmm5,0xa0(%rsp)
  407180:	00 
  407181:	0f 29 b4 24 b0 00 00 	movaps %xmm6,0xb0(%rsp)
  407188:	00 
  407189:	0f 29 bc 24 c0 00 00 	movaps %xmm7,0xc0(%rsp)
  407190:	00 
  407191:	48 8d 84 24 e0 00 00 	lea    0xe0(%rsp),%rax
  407198:	00 
  407199:	48 8d 4c 24 08       	lea    0x8(%rsp),%rcx
  40719e:	48 89 44 24 10       	mov    %rax,0x10(%rsp)
  4071a3:	48 8d 44 24 20       	lea    0x20(%rsp),%rax
  4071a8:	c7 44 24 08 18 00 00 	movl   $0x18,0x8(%rsp)
  4071af:	00 
  4071b0:	c7 44 24 0c 30 00 00 	movl   $0x30,0xc(%rsp)
  4071b7:	00 
  4071b8:	48 89 44 24 18       	mov    %rax,0x18(%rsp)
  4071bd:	e8 be b1 ff ff       	callq  402380 <vsnprintf@plt>
  4071c2:	48 81 c4 d8 00 00 00 	add    $0xd8,%rsp
  4071c9:	c3                   	retq   
  4071ca:	66 0f 1f 44 00 00    	nopw   0x0(%rax,%rax,1)

00000000004071d0 <strdecode>:
  4071d0:	41 54                	push   %r12
  4071d2:	55                   	push   %rbp
  4071d3:	48 89 fd             	mov    %rdi,%rbp
  4071d6:	53                   	push   %rbx
  4071d7:	0f b6 1e             	movzbl (%rsi),%ebx
  4071da:	84 db                	test   %bl,%bl
  4071dc:	74 79                	je     407257 <strdecode+0x87>
  4071de:	49 89 f4             	mov    %rsi,%r12
  4071e1:	eb 1b                	jmp    4071fe <strdecode+0x2e>
  4071e3:	0f 1f 44 00 00       	nopl   0x0(%rax,%rax,1)
  4071e8:	4c 89 e0             	mov    %r12,%rax
  4071eb:	88 5d 00             	mov    %bl,0x0(%rbp)
  4071ee:	48 83 c5 01          	add    $0x1,%rbp
  4071f2:	0f b6 58 01          	movzbl 0x1(%rax),%ebx
  4071f6:	4c 8d 60 01          	lea    0x1(%rax),%r12
  4071fa:	84 db                	test   %bl,%bl
  4071fc:	74 59                	je     407257 <strdecode+0x87>
  4071fe:	80 fb 25             	cmp    $0x25,%bl
  407201:	75 e5                	jne    4071e8 <strdecode+0x18>
  407203:	e8 88 b7 ff ff       	callq  402990 <__ctype_b_loc@plt>
  407208:	49 0f be 54 24 01    	movsbq 0x1(%r12),%rdx
  40720e:	48 8b 00             	mov    (%rax),%rax
  407211:	f6 44 50 01 10       	testb  $0x10,0x1(%rax,%rdx,2)
  407216:	48 89 d7             	mov    %rdx,%rdi
  407219:	74 cd                	je     4071e8 <strdecode+0x18>
  40721b:	49 0f be 54 24 02    	movsbq 0x2(%r12),%rdx
  407221:	f6 44 50 01 10       	testb  $0x10,0x1(%rax,%rdx,2)
  407226:	48 89 d1             	mov    %rdx,%rcx
  407229:	74 bd                	je     4071e8 <strdecode+0x18>
  40722b:	e8 e0 fc ff ff       	callq  406f10 <hexit>
  407230:	89 c6                	mov    %eax,%esi
  407232:	0f be f9             	movsbl %cl,%edi
  407235:	48 83 c5 01          	add    $0x1,%rbp
  407239:	e8 d2 fc ff ff       	callq  406f10 <hexit>
  40723e:	c1 e6 04             	shl    $0x4,%esi
  407241:	01 f0                	add    %esi,%eax
  407243:	88 45 ff             	mov    %al,-0x1(%rbp)
  407246:	49 8d 44 24 02       	lea    0x2(%r12),%rax
  40724b:	0f b6 58 01          	movzbl 0x1(%rax),%ebx
  40724f:	4c 8d 60 01          	lea    0x1(%rax),%r12
  407253:	84 db                	test   %bl,%bl
  407255:	75 a7                	jne    4071fe <strdecode+0x2e>
  407257:	c6 45 00 00          	movb   $0x0,0x0(%rbp)
  40725b:	5b                   	pop    %rbx
  40725c:	5d                   	pop    %rbp
  40725d:	41 5c                	pop    %r12
  40725f:	c3                   	retq   

0000000000407260 <de_dotdot>:
  407260:	41 55                	push   %r13
  407262:	41 54                	push   %r12
  407264:	55                   	push   %rbp
  407265:	53                   	push   %rbx
  407266:	48 89 fb             	mov    %rdi,%rbx
  407269:	48 83 ec 08          	sub    $0x8,%rsp
  40726d:	eb 0a                	jmp    407279 <de_dotdot+0x19>
  40726f:	90                   	nop
  407270:	48 8d 78 01          	lea    0x1(%rax),%rdi
  407274:	e8 a7 b0 ff ff       	callq  402320 <strcpy@plt>
  407279:	be ab f2 40 00       	mov    $0x40f2ab,%esi
  40727e:	48 89 df             	mov    %rbx,%rdi
  407281:	e8 da b6 ff ff       	callq  402960 <strstr@plt>
  407286:	48 85 c0             	test   %rax,%rax
  407289:	74 25                	je     4072b0 <de_dotdot+0x50>
  40728b:	80 78 02 2f          	cmpb   $0x2f,0x2(%rax)
  40728f:	48 8d 70 02          	lea    0x2(%rax),%rsi
  407293:	75 db                	jne    407270 <de_dotdot+0x10>
  407295:	48 83 c6 01          	add    $0x1,%rsi
  407299:	80 3e 2f             	cmpb   $0x2f,(%rsi)
  40729c:	75 d2                	jne    407270 <de_dotdot+0x10>
  40729e:	48 83 c6 01          	add    $0x1,%rsi
  4072a2:	80 3e 2f             	cmpb   $0x2f,(%rsi)
  4072a5:	75 c9                	jne    407270 <de_dotdot+0x10>
  4072a7:	eb ec                	jmp    407295 <de_dotdot+0x35>
  4072a9:	0f 1f 80 00 00 00 00 	nopl   0x0(%rax)
  4072b0:	bd 16 f0 40 00       	mov    $0x40f016,%ebp
  4072b5:	4c 8d 63 02          	lea    0x2(%rbx),%r12
  4072b9:	eb 10                	jmp    4072cb <de_dotdot+0x6b>
  4072bb:	0f 1f 44 00 00       	nopl   0x0(%rax,%rax,1)
  4072c0:	4c 89 e6             	mov    %r12,%rsi
  4072c3:	48 89 df             	mov    %rbx,%rdi
  4072c6:	e8 55 b0 ff ff       	callq  402320 <strcpy@plt>
  4072cb:	b9 02 00 00 00       	mov    $0x2,%ecx
  4072d0:	48 89 de             	mov    %rbx,%rsi
  4072d3:	48 89 ef             	mov    %rbp,%rdi
  4072d6:	f3 a6                	repz cmpsb %es:(%rdi),%ds:(%rsi)
  4072d8:	74 e6                	je     4072c0 <de_dotdot+0x60>
  4072da:	eb 10                	jmp    4072ec <de_dotdot+0x8c>
  4072dc:	0f 1f 40 00          	nopl   0x0(%rax)
  4072e0:	48 8d 70 02          	lea    0x2(%rax),%rsi
  4072e4:	48 89 c7             	mov    %rax,%rdi
  4072e7:	e8 34 b0 ff ff       	callq  402320 <strcpy@plt>
  4072ec:	be 10 f0 40 00       	mov    $0x40f010,%esi
  4072f1:	48 89 df             	mov    %rbx,%rdi
  4072f4:	e8 67 b6 ff ff       	callq  402960 <strstr@plt>
  4072f9:	48 85 c0             	test   %rax,%rax
  4072fc:	75 e2                	jne    4072e0 <de_dotdot+0x80>
  4072fe:	48 8d 6b ff          	lea    -0x1(%rbx),%rbp
  407302:	4c 8d 6b 03          	lea    0x3(%rbx),%r13
  407306:	41 bc 15 f0 40 00    	mov    $0x40f015,%r12d
  40730c:	0f 1f 40 00          	nopl   0x0(%rax)
  407310:	b9 03 00 00 00       	mov    $0x3,%ecx
  407315:	48 89 de             	mov    %rbx,%rsi
  407318:	4c 89 e7             	mov    %r12,%rdi
  40731b:	f3 a6                	repz cmpsb %es:(%rdi),%ds:(%rsi)
  40731d:	74 4b                	je     40736a <de_dotdot+0x10a>
  40731f:	be 14 f0 40 00       	mov    $0x40f014,%esi
  407324:	48 89 df             	mov    %rbx,%rdi
  407327:	e8 34 b6 ff ff       	callq  402960 <strstr@plt>
  40732c:	48 85 c0             	test   %rax,%rax
  40732f:	74 4f                	je     407380 <de_dotdot+0x120>
  407331:	48 8d 78 ff          	lea    -0x1(%rax),%rdi
  407335:	48 39 fb             	cmp    %rdi,%rbx
  407338:	77 14                	ja     40734e <de_dotdot+0xee>
  40733a:	80 78 ff 2f          	cmpb   $0x2f,-0x1(%rax)
  40733e:	74 0e                	je     40734e <de_dotdot+0xee>
  407340:	48 83 ef 01          	sub    $0x1,%rdi
  407344:	48 39 ef             	cmp    %rbp,%rdi
  407347:	74 05                	je     40734e <de_dotdot+0xee>
  407349:	80 3f 2f             	cmpb   $0x2f,(%rdi)
  40734c:	75 f2                	jne    407340 <de_dotdot+0xe0>
  40734e:	48 8d 70 04          	lea    0x4(%rax),%rsi
  407352:	48 83 c7 01          	add    $0x1,%rdi
  407356:	e8 c5 af ff ff       	callq  402320 <strcpy@plt>
  40735b:	b9 03 00 00 00       	mov    $0x3,%ecx
  407360:	48 89 de             	mov    %rbx,%rsi
  407363:	4c 89 e7             	mov    %r12,%rdi
  407366:	f3 a6                	repz cmpsb %es:(%rdi),%ds:(%rsi)
  407368:	75 b5                	jne    40731f <de_dotdot+0xbf>
  40736a:	4c 89 ee             	mov    %r13,%rsi
  40736d:	48 89 df             	mov    %rbx,%rdi
  407370:	e8 ab af ff ff       	callq  402320 <strcpy@plt>
  407375:	eb 99                	jmp    407310 <de_dotdot+0xb0>
  407377:	66 0f 1f 84 00 00 00 	nopw   0x0(%rax,%rax,1)
  40737e:	00 00 
  407380:	48 89 df             	mov    %rbx,%rdi
  407383:	48 8d 6b ff          	lea    -0x1(%rbx),%rbp
  407387:	e8 94 b0 ff ff       	callq  402420 <strlen@plt>
  40738c:	83 f8 03             	cmp    $0x3,%eax
  40738f:	7e 4c                	jle    4073dd <de_dotdot+0x17d>
  407391:	0f 1f 80 00 00 00 00 	nopl   0x0(%rax)
  407398:	48 98                	cltq   
  40739a:	bf 19 f0 40 00       	mov    $0x40f019,%edi
  40739f:	b9 04 00 00 00       	mov    $0x4,%ecx
  4073a4:	48 8d 54 03 fd       	lea    -0x3(%rbx,%rax,1),%rdx
  4073a9:	48 89 d6             	mov    %rdx,%rsi
  4073ac:	f3 a6                	repz cmpsb %es:(%rdi),%ds:(%rsi)
  4073ae:	75 2d                	jne    4073dd <de_dotdot+0x17d>
  4073b0:	48 8d 42 ff          	lea    -0x1(%rdx),%rax
  4073b4:	48 39 c3             	cmp    %rax,%rbx
  4073b7:	77 24                	ja     4073dd <de_dotdot+0x17d>
  4073b9:	80 7a ff 2f          	cmpb   $0x2f,-0x1(%rdx)
  4073bd:	74 0e                	je     4073cd <de_dotdot+0x16d>
  4073bf:	48 83 e8 01          	sub    $0x1,%rax
  4073c3:	48 39 e8             	cmp    %rbp,%rax
  4073c6:	74 15                	je     4073dd <de_dotdot+0x17d>
  4073c8:	80 38 2f             	cmpb   $0x2f,(%rax)
  4073cb:	75 f2                	jne    4073bf <de_dotdot+0x15f>
  4073cd:	c6 00 00             	movb   $0x0,(%rax)
  4073d0:	48 89 df             	mov    %rbx,%rdi
  4073d3:	e8 48 b0 ff ff       	callq  402420 <strlen@plt>
  4073d8:	83 f8 03             	cmp    $0x3,%eax
  4073db:	7f bb                	jg     407398 <de_dotdot+0x138>
  4073dd:	48 83 c4 08          	add    $0x8,%rsp
  4073e1:	5b                   	pop    %rbx
  4073e2:	5d                   	pop    %rbp
  4073e3:	41 5c                	pop    %r12
  4073e5:	41 5d                	pop    %r13
  4073e7:	c3                   	retq   
  4073e8:	0f 1f 84 00 00 00 00 	nopl   0x0(%rax,%rax,1)
  4073ef:	00 

00000000004073f0 <cgi_kill>:
  4073f0:	55                   	push   %rbp
  4073f1:	53                   	push   %rbx
  4073f2:	48 89 f5             	mov    %rsi,%rbp
  4073f5:	be 02 00 00 00       	mov    $0x2,%esi
  4073fa:	48 89 fb             	mov    %rdi,%rbx
  4073fd:	48 83 ec 08          	sub    $0x8,%rsp
  407401:	e8 2a b2 ff ff       	callq  402630 <kill@plt>
  407406:	85 c0                	test   %eax,%eax
  407408:	74 0e                	je     407418 <cgi_kill+0x28>
  40740a:	48 83 c4 08          	add    $0x8,%rsp
  40740e:	5b                   	pop    %rbx
  40740f:	5d                   	pop    %rbp
  407410:	c3                   	retq   
  407411:	0f 1f 80 00 00 00 00 	nopl   0x0(%rax)
  407418:	89 da                	mov    %ebx,%edx
  40741a:	be 3f f0 40 00       	mov    $0x40f03f,%esi
  40741f:	bf 03 00 00 00       	mov    $0x3,%edi
  407424:	e8 c7 b2 ff ff       	callq  4026f0 <syslog@plt>
  407429:	45 31 c0             	xor    %r8d,%r8d
  40742c:	b9 88 13 00 00       	mov    $0x1388,%ecx
  407431:	48 89 da             	mov    %rbx,%rdx
  407434:	be 60 74 40 00       	mov    $0x407460,%esi
  407439:	48 89 ef             	mov    %rbp,%rdi
  40743c:	e8 ef 65 00 00       	callq  40da30 <tmr_create>
  407441:	48 85 c0             	test   %rax,%rax
  407444:	75 c4                	jne    40740a <cgi_kill+0x1a>
  407446:	bf 02 00 00 00       	mov    $0x2,%edi
  40744b:	be 1d f0 40 00       	mov    $0x40f01d,%esi
  407450:	e8 9b b2 ff ff       	callq  4026f0 <syslog@plt>
  407455:	bf 01 00 00 00       	mov    $0x1,%edi
  40745a:	e8 71 b4 ff ff       	callq  4028d0 <exit@plt>
  40745f:	90                   	nop

0000000000407460 <cgi_kill2>:
  407460:	53                   	push   %rbx
  407461:	be 09 00 00 00       	mov    $0x9,%esi
  407466:	48 89 fb             	mov    %rdi,%rbx
  407469:	e8 c2 b1 ff ff       	callq  402630 <kill@plt>
  40746e:	85 c0                	test   %eax,%eax
  407470:	74 06                	je     407478 <cgi_kill2+0x18>
  407472:	5b                   	pop    %rbx
  407473:	c3                   	retq   
  407474:	0f 1f 40 00          	nopl   0x0(%rax)
  407478:	89 da                	mov    %ebx,%edx
  40747a:	be 3a f0 40 00       	mov    $0x40f03a,%esi
  40747f:	bf 03 00 00 00       	mov    $0x3,%edi
  407484:	5b                   	pop    %rbx
  407485:	e9 66 b2 ff ff       	jmpq   4026f0 <syslog@plt>
  40748a:	66 0f 1f 44 00 00    	nopw   0x0(%rax,%rax,1)

0000000000407490 <strencode>:
  407490:	41 57                	push   %r15
  407492:	41 56                	push   %r14
  407494:	41 55                	push   %r13
  407496:	41 54                	push   %r12
  407498:	49 89 fd             	mov    %rdi,%r13
  40749b:	55                   	push   %rbp
  40749c:	53                   	push   %rbx
  40749d:	48 83 ec 08          	sub    $0x8,%rsp
  4074a1:	0f b6 1a             	movzbl (%rdx),%ebx
  4074a4:	84 db                	test   %bl,%bl
  4074a6:	74 58                	je     407500 <strencode+0x70>
  4074a8:	83 fe 04             	cmp    $0x4,%esi
  4074ab:	41 89 f4             	mov    %esi,%r12d
  4074ae:	7e 50                	jle    407500 <strencode+0x70>
  4074b0:	48 89 d5             	mov    %rdx,%rbp
  4074b3:	45 31 f6             	xor    %r14d,%r14d
  4074b6:	e8 d5 b4 ff ff       	callq  402990 <__ctype_b_loc@plt>
  4074bb:	49 89 c7             	mov    %rax,%r15
  4074be:	eb 09                	jmp    4074c9 <strencode+0x39>
  4074c0:	41 8d 46 04          	lea    0x4(%r14),%eax
  4074c4:	44 39 e0             	cmp    %r12d,%eax
  4074c7:	7d 37                	jge    407500 <strencode+0x70>
  4074c9:	49 8b 17             	mov    (%r15),%rdx
  4074cc:	48 0f be c3          	movsbq %bl,%rax
  4074d0:	f6 04 42 08          	testb  $0x8,(%rdx,%rax,2)
  4074d4:	75 12                	jne    4074e8 <strencode+0x58>
  4074d6:	0f be f3             	movsbl %bl,%esi
  4074d9:	bf 55 f0 40 00       	mov    $0x40f055,%edi
  4074de:	e8 9d af ff ff       	callq  402480 <strchr@plt>
  4074e3:	48 85 c0             	test   %rax,%rax
  4074e6:	74 30                	je     407518 <strencode+0x88>
  4074e8:	41 88 5d 00          	mov    %bl,0x0(%r13)
  4074ec:	41 83 c6 01          	add    $0x1,%r14d
  4074f0:	49 83 c5 01          	add    $0x1,%r13
  4074f4:	48 83 c5 01          	add    $0x1,%rbp
  4074f8:	0f b6 5d 00          	movzbl 0x0(%rbp),%ebx
  4074fc:	84 db                	test   %bl,%bl
  4074fe:	75 c0                	jne    4074c0 <strencode+0x30>
  407500:	41 c6 45 00 00       	movb   $0x0,0x0(%r13)
  407505:	48 83 c4 08          	add    $0x8,%rsp
  407509:	5b                   	pop    %rbx
  40750a:	5d                   	pop    %rbp
  40750b:	41 5c                	pop    %r12
  40750d:	41 5d                	pop    %r13
  40750f:	41 5e                	pop    %r14
  407511:	41 5f                	pop    %r15
  407513:	c3                   	retq   
  407514:	0f 1f 40 00          	nopl   0x0(%rax)
  407518:	4c 89 ef             	mov    %r13,%rdi
  40751b:	0f b6 d3             	movzbl %bl,%edx
  40751e:	be 5b f0 40 00       	mov    $0x40f05b,%esi
  407523:	31 c0                	xor    %eax,%eax
  407525:	49 83 c5 03          	add    $0x3,%r13
  407529:	41 83 c6 03          	add    $0x3,%r14d
  40752d:	e8 8e b3 ff ff       	callq  4028c0 <sprintf@plt>
  407532:	eb c0                	jmp    4074f4 <strencode+0x64>
  407534:	66 90                	xchg   %ax,%ax
  407536:	66 2e 0f 1f 84 00 00 	nopw   %cs:0x0(%rax,%rax,1)
  40753d:	00 00 00 

0000000000407540 <sockaddr_check.isra.0>:
  407540:	66 83 ff 02          	cmp    $0x2,%di
  407544:	74 0a                	je     407550 <sockaddr_check.isra.0+0x10>
  407546:	66 83 ff 0a          	cmp    $0xa,%di
  40754a:	74 04                	je     407550 <sockaddr_check.isra.0+0x10>
  40754c:	31 c0                	xor    %eax,%eax
  40754e:	c3                   	retq   
  40754f:	90                   	nop
  407550:	b8 01 00 00 00       	mov    $0x1,%eax
  407555:	c3                   	retq   
  407556:	66 2e 0f 1f 84 00 00 	nopw   %cs:0x0(%rax,%rax,1)
  40755d:	00 00 00 

0000000000407560 <sockaddr_len.isra.1>:
  407560:	66 83 ff 02          	cmp    $0x2,%di
  407564:	b8 10 00 00 00       	mov    $0x10,%eax
  407569:	74 12                	je     40757d <sockaddr_len.isra.1+0x1d>
  40756b:	66 83 ff 0a          	cmp    $0xa,%di
  40756f:	ba 00 00 00 00       	mov    $0x0,%edx
  407574:	b8 1c 00 00 00       	mov    $0x1c,%eax
  407579:	48 0f 45 c2          	cmovne %rdx,%rax
  40757d:	f3 c3                	repz retq 
  40757f:	90                   	nop

0000000000407580 <b64_decode.constprop.5>:
  407580:	48 0f be 17          	movsbq (%rdi),%rdx
  407584:	31 c0                	xor    %eax,%eax
  407586:	84 d2                	test   %dl,%dl
  407588:	0f 84 da 03 00 00    	je     407968 <b64_decode.constprop.5+0x3e8>
  40758e:	45 31 c0             	xor    %r8d,%r8d
  407591:	45 31 c9             	xor    %r9d,%r9d
  407594:	8b 0c 95 00 12 41 00 	mov    0x411200(,%rdx,4),%ecx
  40759b:	83 f9 ff             	cmp    $0xffffffff,%ecx
  40759e:	0f 84 cc 01 00 00    	je     407770 <b64_decode.constprop.5+0x1f0>
  4075a4:	41 83 f9 02          	cmp    $0x2,%r9d
  4075a8:	0f 84 52 02 00 00    	je     407800 <b64_decode.constprop.5+0x280>
  4075ae:	41 83 f9 03          	cmp    $0x3,%r9d
  4075b2:	0f 84 38 02 00 00    	je     4077f0 <b64_decode.constprop.5+0x270>
  4075b8:	41 83 f9 01          	cmp    $0x1,%r9d
  4075bc:	0f 84 1e 02 00 00    	je     4077e0 <b64_decode.constprop.5+0x260>
  4075c2:	41 89 c8             	mov    %ecx,%r8d
  4075c5:	48 0f be 4f 01       	movsbq 0x1(%rdi),%rcx
  4075ca:	48 8d 57 01          	lea    0x1(%rdi),%rdx
  4075ce:	84 c9                	test   %cl,%cl
  4075d0:	0f 84 e6 00 00 00    	je     4076bc <b64_decode.constprop.5+0x13c>
  4075d6:	8b 0c 8d 00 12 41 00 	mov    0x411200(,%rcx,4),%ecx
  4075dd:	83 f9 ff             	cmp    $0xffffffff,%ecx
  4075e0:	0f 84 aa 01 00 00    	je     407790 <b64_decode.constprop.5+0x210>
  4075e6:	3d f2 01 00 00       	cmp    $0x1f2,%eax
  4075eb:	0f 8e cf 00 00 00    	jle    4076c0 <b64_decode.constprop.5+0x140>
  4075f1:	4c 0f be 42 01       	movsbq 0x1(%rdx),%r8
  4075f6:	48 8d 7a 01          	lea    0x1(%rdx),%rdi
  4075fa:	45 84 c0             	test   %r8b,%r8b
  4075fd:	0f 84 b9 00 00 00    	je     4076bc <b64_decode.constprop.5+0x13c>
  407603:	46 8b 04 85 00 12 41 	mov    0x411200(,%r8,4),%r8d
  40760a:	00 
  40760b:	41 83 f8 ff          	cmp    $0xffffffff,%r8d
  40760f:	0f 84 fb 01 00 00    	je     407810 <b64_decode.constprop.5+0x290>
  407615:	48 0f be 4f 01       	movsbq 0x1(%rdi),%rcx
  40761a:	48 8d 57 01          	lea    0x1(%rdi),%rdx
  40761e:	84 c9                	test   %cl,%cl
  407620:	0f 84 96 00 00 00    	je     4076bc <b64_decode.constprop.5+0x13c>
  407626:	8b 0c 8d 00 12 41 00 	mov    0x411200(,%rcx,4),%ecx
  40762d:	83 f9 ff             	cmp    $0xffffffff,%ecx
  407630:	0f 84 3a 02 00 00    	je     407870 <b64_decode.constprop.5+0x2f0>
  407636:	4c 0f be 42 01       	movsbq 0x1(%rdx),%r8
  40763b:	48 8d 7a 01          	lea    0x1(%rdx),%rdi
  40763f:	45 84 c0             	test   %r8b,%r8b
  407642:	74 78                	je     4076bc <b64_decode.constprop.5+0x13c>
  407644:	46 8b 04 85 00 12 41 	mov    0x411200(,%r8,4),%r8d
  40764b:	00 
  40764c:	41 83 f8 ff          	cmp    $0xffffffff,%r8d
  407650:	0f 85 6f ff ff ff    	jne    4075c5 <b64_decode.constprop.5+0x45>
  407656:	4c 0f be 42 02       	movsbq 0x2(%rdx),%r8
  40765b:	48 8d 7a 02          	lea    0x2(%rdx),%rdi
  40765f:	45 84 c0             	test   %r8b,%r8b
  407662:	74 58                	je     4076bc <b64_decode.constprop.5+0x13c>
  407664:	46 8b 04 85 00 12 41 	mov    0x411200(,%r8,4),%r8d
  40766b:	00 
  40766c:	41 83 f8 ff          	cmp    $0xffffffff,%r8d
  407670:	0f 85 4f ff ff ff    	jne    4075c5 <b64_decode.constprop.5+0x45>
  407676:	48 8d 7a 03          	lea    0x3(%rdx),%rdi
  40767a:	48 0f be 52 03       	movsbq 0x3(%rdx),%rdx
  40767f:	84 d2                	test   %dl,%dl
  407681:	74 39                	je     4076bc <b64_decode.constprop.5+0x13c>
  407683:	44 8b 04 95 00 12 41 	mov    0x411200(,%rdx,4),%r8d
  40768a:	00 
  40768b:	41 83 f8 ff          	cmp    $0xffffffff,%r8d
  40768f:	0f 85 30 ff ff ff    	jne    4075c5 <b64_decode.constprop.5+0x45>
  407695:	48 89 fa             	mov    %rdi,%rdx
  407698:	41 89 c8             	mov    %ecx,%r8d
  40769b:	45 31 c9             	xor    %r9d,%r9d
  40769e:	e9 d0 00 00 00       	jmpq   407773 <b64_decode.constprop.5+0x1f3>
  4076a3:	0f 1f 44 00 00       	nopl   0x0(%rax,%rax,1)
  4076a8:	48 0f be 42 02       	movsbq 0x2(%rdx),%rax
  4076ad:	48 8d 7a 02          	lea    0x2(%rdx),%rdi
  4076b1:	84 c0                	test   %al,%al
  4076b3:	0f 85 57 02 00 00    	jne    407910 <b64_decode.constprop.5+0x390>
  4076b9:	44 89 d0             	mov    %r10d,%eax
  4076bc:	f3 c3                	repz retq 
  4076be:	66 90                	xchg   %ax,%ax
  4076c0:	89 cf                	mov    %ecx,%edi
  4076c2:	41 c1 e0 02          	shl    $0x2,%r8d
  4076c6:	44 8d 50 01          	lea    0x1(%rax),%r10d
  4076ca:	c1 ff 04             	sar    $0x4,%edi
  4076cd:	48 98                	cltq   
  4076cf:	83 e7 03             	and    $0x3,%edi
  4076d2:	41 09 f8             	or     %edi,%r8d
  4076d5:	48 8d 7a 01          	lea    0x1(%rdx),%rdi
  4076d9:	44 88 04 06          	mov    %r8b,(%rsi,%rax,1)
  4076dd:	48 0f be 42 01       	movsbq 0x1(%rdx),%rax
  4076e2:	84 c0                	test   %al,%al
  4076e4:	74 d3                	je     4076b9 <b64_decode.constprop.5+0x139>
  4076e6:	44 8b 04 85 00 12 41 	mov    0x411200(,%rax,4),%r8d
  4076ed:	00 
  4076ee:	41 83 f8 ff          	cmp    $0xffffffff,%r8d
  4076f2:	74 b4                	je     4076a8 <b64_decode.constprop.5+0x128>
  4076f4:	41 81 fa f2 01 00 00 	cmp    $0x1f2,%r10d
  4076fb:	0f 8f 7f 02 00 00    	jg     407980 <b64_decode.constprop.5+0x400>
  407701:	44 89 c0             	mov    %r8d,%eax
  407704:	c1 e1 04             	shl    $0x4,%ecx
  407707:	45 8d 4a 01          	lea    0x1(%r10),%r9d
  40770b:	c1 f8 02             	sar    $0x2,%eax
  40770e:	4d 63 d2             	movslq %r10d,%r10
  407711:	48 8d 57 01          	lea    0x1(%rdi),%rdx
  407715:	83 e0 0f             	and    $0xf,%eax
  407718:	09 c1                	or     %eax,%ecx
  40771a:	42 88 0c 16          	mov    %cl,(%rsi,%r10,1)
  40771e:	48 0f be 47 01       	movsbq 0x1(%rdi),%rax
  407723:	84 c0                	test   %al,%al
  407725:	0f 84 35 02 00 00    	je     407960 <b64_decode.constprop.5+0x3e0>
  40772b:	8b 0c 85 00 12 41 00 	mov    0x411200(,%rax,4),%ecx
  407732:	83 f9 ff             	cmp    $0xffffffff,%ecx
  407735:	0f 84 85 01 00 00    	je     4078c0 <b64_decode.constprop.5+0x340>
  40773b:	41 81 f9 f2 01 00 00 	cmp    $0x1f2,%r9d
  407742:	0f 8f 28 02 00 00    	jg     407970 <b64_decode.constprop.5+0x3f0>
  407748:	41 c1 e0 06          	shl    $0x6,%r8d
  40774c:	41 8d 41 01          	lea    0x1(%r9),%eax
  407750:	4d 63 c9             	movslq %r9d,%r9
  407753:	41 09 c8             	or     %ecx,%r8d
  407756:	48 8d 7a 01          	lea    0x1(%rdx),%rdi
  40775a:	46 88 04 0e          	mov    %r8b,(%rsi,%r9,1)
  40775e:	4c 0f be 42 01       	movsbq 0x1(%rdx),%r8
  407763:	45 84 c0             	test   %r8b,%r8b
  407766:	0f 85 d8 fe ff ff    	jne    407644 <b64_decode.constprop.5+0xc4>
  40776c:	f3 c3                	repz retq 
  40776e:	66 90                	xchg   %ax,%ax
  407770:	48 89 fa             	mov    %rdi,%rdx
  407773:	48 8d 7a 01          	lea    0x1(%rdx),%rdi
  407777:	48 0f be 52 01       	movsbq 0x1(%rdx),%rdx
  40777c:	84 d2                	test   %dl,%dl
  40777e:	0f 85 10 fe ff ff    	jne    407594 <b64_decode.constprop.5+0x14>
  407784:	f3 c3                	repz retq 
  407786:	66 2e 0f 1f 84 00 00 	nopw   %cs:0x0(%rax,%rax,1)
  40778d:	00 00 00 
  407790:	48 0f be 4f 02       	movsbq 0x2(%rdi),%rcx
  407795:	48 8d 57 02          	lea    0x2(%rdi),%rdx
  407799:	84 c9                	test   %cl,%cl
  40779b:	0f 84 1b ff ff ff    	je     4076bc <b64_decode.constprop.5+0x13c>
  4077a1:	8b 0c 8d 00 12 41 00 	mov    0x411200(,%rcx,4),%ecx
  4077a8:	83 f9 ff             	cmp    $0xffffffff,%ecx
  4077ab:	0f 85 35 fe ff ff    	jne    4075e6 <b64_decode.constprop.5+0x66>
  4077b1:	48 0f be 4f 03       	movsbq 0x3(%rdi),%rcx
  4077b6:	48 8d 57 03          	lea    0x3(%rdi),%rdx
  4077ba:	84 c9                	test   %cl,%cl
  4077bc:	0f 84 fa fe ff ff    	je     4076bc <b64_decode.constprop.5+0x13c>
  4077c2:	8b 0c 8d 00 12 41 00 	mov    0x411200(,%rcx,4),%ecx
  4077c9:	41 b9 01 00 00 00    	mov    $0x1,%r9d
  4077cf:	83 f9 ff             	cmp    $0xffffffff,%ecx
  4077d2:	0f 85 0e fe ff ff    	jne    4075e6 <b64_decode.constprop.5+0x66>
  4077d8:	eb 99                	jmp    407773 <b64_decode.constprop.5+0x1f3>
  4077da:	66 0f 1f 44 00 00    	nopw   0x0(%rax,%rax,1)
  4077e0:	48 89 fa             	mov    %rdi,%rdx
  4077e3:	e9 fe fd ff ff       	jmpq   4075e6 <b64_decode.constprop.5+0x66>
  4077e8:	0f 1f 84 00 00 00 00 	nopl   0x0(%rax,%rax,1)
  4077ef:	00 
  4077f0:	41 89 c1             	mov    %eax,%r9d
  4077f3:	48 89 fa             	mov    %rdi,%rdx
  4077f6:	e9 40 ff ff ff       	jmpq   40773b <b64_decode.constprop.5+0x1bb>
  4077fb:	0f 1f 44 00 00       	nopl   0x0(%rax,%rax,1)
  407800:	41 89 c2             	mov    %eax,%r10d
  407803:	44 89 c0             	mov    %r8d,%eax
  407806:	41 89 c8             	mov    %ecx,%r8d
  407809:	89 c1                	mov    %eax,%ecx
  40780b:	e9 e4 fe ff ff       	jmpq   4076f4 <b64_decode.constprop.5+0x174>
  407810:	4c 0f be 42 02       	movsbq 0x2(%rdx),%r8
  407815:	48 8d 7a 02          	lea    0x2(%rdx),%rdi
  407819:	45 84 c0             	test   %r8b,%r8b
  40781c:	0f 84 9a fe ff ff    	je     4076bc <b64_decode.constprop.5+0x13c>
  407822:	46 8b 04 85 00 12 41 	mov    0x411200(,%r8,4),%r8d
  407829:	00 
  40782a:	41 83 f8 ff          	cmp    $0xffffffff,%r8d
  40782e:	0f 85 e1 fd ff ff    	jne    407615 <b64_decode.constprop.5+0x95>
  407834:	48 8d 7a 03          	lea    0x3(%rdx),%rdi
  407838:	48 0f be 52 03       	movsbq 0x3(%rdx),%rdx
  40783d:	84 d2                	test   %dl,%dl
  40783f:	0f 84 77 fe ff ff    	je     4076bc <b64_decode.constprop.5+0x13c>
  407845:	44 8b 04 95 00 12 41 	mov    0x411200(,%rdx,4),%r8d
  40784c:	00 
  40784d:	41 89 c2             	mov    %eax,%r10d
  407850:	41 83 f8 ff          	cmp    $0xffffffff,%r8d
  407854:	0f 85 9a fe ff ff    	jne    4076f4 <b64_decode.constprop.5+0x174>
  40785a:	48 89 fa             	mov    %rdi,%rdx
  40785d:	41 89 c8             	mov    %ecx,%r8d
  407860:	41 b9 02 00 00 00    	mov    $0x2,%r9d
  407866:	e9 08 ff ff ff       	jmpq   407773 <b64_decode.constprop.5+0x1f3>
  40786b:	0f 1f 44 00 00       	nopl   0x0(%rax,%rax,1)
  407870:	48 0f be 4f 02       	movsbq 0x2(%rdi),%rcx
  407875:	48 8d 57 02          	lea    0x2(%rdi),%rdx
  407879:	84 c9                	test   %cl,%cl
  40787b:	0f 84 3b fe ff ff    	je     4076bc <b64_decode.constprop.5+0x13c>
  407881:	8b 0c 8d 00 12 41 00 	mov    0x411200(,%rcx,4),%ecx
  407888:	83 f9 ff             	cmp    $0xffffffff,%ecx
  40788b:	0f 85 a5 fd ff ff    	jne    407636 <b64_decode.constprop.5+0xb6>
  407891:	48 0f be 4f 03       	movsbq 0x3(%rdi),%rcx
  407896:	48 8d 57 03          	lea    0x3(%rdi),%rdx
  40789a:	84 c9                	test   %cl,%cl
  40789c:	0f 84 1a fe ff ff    	je     4076bc <b64_decode.constprop.5+0x13c>
  4078a2:	8b 0c 8d 00 12 41 00 	mov    0x411200(,%rcx,4),%ecx
  4078a9:	41 89 c1             	mov    %eax,%r9d
  4078ac:	83 f9 ff             	cmp    $0xffffffff,%ecx
  4078af:	0f 85 86 fe ff ff    	jne    40773b <b64_decode.constprop.5+0x1bb>
  4078b5:	41 b9 03 00 00 00    	mov    $0x3,%r9d
  4078bb:	e9 b3 fe ff ff       	jmpq   407773 <b64_decode.constprop.5+0x1f3>
  4078c0:	48 0f be 47 02       	movsbq 0x2(%rdi),%rax
  4078c5:	48 8d 57 02          	lea    0x2(%rdi),%rdx
  4078c9:	84 c0                	test   %al,%al
  4078cb:	0f 84 8f 00 00 00    	je     407960 <b64_decode.constprop.5+0x3e0>
  4078d1:	8b 0c 85 00 12 41 00 	mov    0x411200(,%rax,4),%ecx
  4078d8:	83 f9 ff             	cmp    $0xffffffff,%ecx
  4078db:	0f 85 5a fe ff ff    	jne    40773b <b64_decode.constprop.5+0x1bb>
  4078e1:	48 0f be 47 03       	movsbq 0x3(%rdi),%rax
  4078e6:	48 8d 57 03          	lea    0x3(%rdi),%rdx
  4078ea:	84 c0                	test   %al,%al
  4078ec:	74 72                	je     407960 <b64_decode.constprop.5+0x3e0>
  4078ee:	8b 0c 85 00 12 41 00 	mov    0x411200(,%rax,4),%ecx
  4078f5:	83 f9 ff             	cmp    $0xffffffff,%ecx
  4078f8:	0f 85 3d fe ff ff    	jne    40773b <b64_decode.constprop.5+0x1bb>
  4078fe:	44 89 c8             	mov    %r9d,%eax
  407901:	41 b9 03 00 00 00    	mov    $0x3,%r9d
  407907:	e9 67 fe ff ff       	jmpq   407773 <b64_decode.constprop.5+0x1f3>
  40790c:	0f 1f 40 00          	nopl   0x0(%rax)
  407910:	44 8b 04 85 00 12 41 	mov    0x411200(,%rax,4),%r8d
  407917:	00 
  407918:	41 83 f8 ff          	cmp    $0xffffffff,%r8d
  40791c:	0f 85 d2 fd ff ff    	jne    4076f4 <b64_decode.constprop.5+0x174>
  407922:	48 0f be 42 03       	movsbq 0x3(%rdx),%rax
  407927:	48 8d 7a 03          	lea    0x3(%rdx),%rdi
  40792b:	84 c0                	test   %al,%al
  40792d:	0f 84 86 fd ff ff    	je     4076b9 <b64_decode.constprop.5+0x139>
  407933:	44 8b 04 85 00 12 41 	mov    0x411200(,%rax,4),%r8d
  40793a:	00 
  40793b:	41 83 f8 ff          	cmp    $0xffffffff,%r8d
  40793f:	0f 85 af fd ff ff    	jne    4076f4 <b64_decode.constprop.5+0x174>
  407945:	48 89 fa             	mov    %rdi,%rdx
  407948:	41 89 c8             	mov    %ecx,%r8d
  40794b:	44 89 d0             	mov    %r10d,%eax
  40794e:	41 b9 02 00 00 00    	mov    $0x2,%r9d
  407954:	e9 1a fe ff ff       	jmpq   407773 <b64_decode.constprop.5+0x1f3>
  407959:	0f 1f 80 00 00 00 00 	nopl   0x0(%rax)
  407960:	44 89 c8             	mov    %r9d,%eax
  407963:	c3                   	retq   
  407964:	0f 1f 40 00          	nopl   0x0(%rax)
  407968:	f3 c3                	repz retq 
  40796a:	66 0f 1f 44 00 00    	nopw   0x0(%rax,%rax,1)
  407970:	44 89 c8             	mov    %r9d,%eax
  407973:	e9 be fc ff ff       	jmpq   407636 <b64_decode.constprop.5+0xb6>
  407978:	0f 1f 84 00 00 00 00 	nopl   0x0(%rax,%rax,1)
  40797f:	00 
  407980:	44 89 d0             	mov    %r10d,%eax
  407983:	e9 8d fc ff ff       	jmpq   407615 <b64_decode.constprop.5+0x95>
  407988:	0f 1f 84 00 00 00 00 	nopl   0x0(%rax,%rax,1)
  40798f:	00 

0000000000407990 <defang.constprop.6>:
  407990:	0f b6 07             	movzbl (%rdi),%eax
  407993:	84 c0                	test   %al,%al
  407995:	74 64                	je     4079fb <defang.constprop.6+0x6b>
  407997:	48 89 f1             	mov    %rsi,%rcx
  40799a:	eb 39                	jmp    4079d5 <defang.constprop.6+0x45>
  40799c:	0f 1f 40 00          	nopl   0x0(%rax)
  4079a0:	3c 3e                	cmp    $0x3e,%al
  4079a2:	75 5c                	jne    407a00 <defang.constprop.6+0x70>
  4079a4:	48 8d 46 03          	lea    0x3(%rsi),%rax
  4079a8:	c6 06 26             	movb   $0x26,(%rsi)
  4079ab:	c6 46 01 67          	movb   $0x67,0x1(%rsi)
  4079af:	c6 46 02 74          	movb   $0x74,0x2(%rsi)
  4079b3:	c6 46 03 3b          	movb   $0x3b,0x3(%rsi)
  4079b7:	48 83 c7 01          	add    $0x1,%rdi
  4079bb:	48 8d 70 01          	lea    0x1(%rax),%rsi
  4079bf:	0f b6 07             	movzbl (%rdi),%eax
  4079c2:	84 c0                	test   %al,%al
  4079c4:	74 35                	je     4079fb <defang.constprop.6+0x6b>
  4079c6:	48 89 f2             	mov    %rsi,%rdx
  4079c9:	48 29 ca             	sub    %rcx,%rdx
  4079cc:	48 81 fa e2 03 00 00 	cmp    $0x3e2,%rdx
  4079d3:	7f 26                	jg     4079fb <defang.constprop.6+0x6b>
  4079d5:	3c 3c                	cmp    $0x3c,%al
  4079d7:	75 c7                	jne    4079a0 <defang.constprop.6+0x10>
  4079d9:	48 8d 46 03          	lea    0x3(%rsi),%rax
  4079dd:	48 83 c7 01          	add    $0x1,%rdi
  4079e1:	c6 06 26             	movb   $0x26,(%rsi)
  4079e4:	c6 46 01 6c          	movb   $0x6c,0x1(%rsi)
  4079e8:	c6 46 02 74          	movb   $0x74,0x2(%rsi)
  4079ec:	c6 46 03 3b          	movb   $0x3b,0x3(%rsi)
  4079f0:	48 8d 70 01          	lea    0x1(%rax),%rsi
  4079f4:	0f b6 07             	movzbl (%rdi),%eax
  4079f7:	84 c0                	test   %al,%al
  4079f9:	75 cb                	jne    4079c6 <defang.constprop.6+0x36>
  4079fb:	c6 06 00             	movb   $0x0,(%rsi)
  4079fe:	c3                   	retq   
  4079ff:	90                   	nop
  407a00:	88 06                	mov    %al,(%rsi)
  407a02:	48 89 f0             	mov    %rsi,%rax
  407a05:	eb b0                	jmp    4079b7 <defang.constprop.6+0x27>
  407a07:	66 0f 1f 84 00 00 00 	nopw   0x0(%rax,%rax,1)
  407a0e:	00 00 

0000000000407a10 <__bswap_32.constprop.7>:
  407a10:	b8 00 00 ff ff       	mov    $0xffff0000,%eax
  407a15:	c3                   	retq   
  407a16:	66 2e 0f 1f 84 00 00 	nopw   %cs:0x0(%rax,%rax,1)
  407a1d:	00 00 00 

0000000000407a20 <httpd_set_logfp>:
  407a20:	55                   	push   %rbp
  407a21:	53                   	push   %rbx
  407a22:	48 89 fb             	mov    %rdi,%rbx
  407a25:	48 89 f5             	mov    %rsi,%rbp
  407a28:	48 83 ec 08          	sub    $0x8,%rsp
  407a2c:	48 8b 7f 58          	mov    0x58(%rdi),%rdi
  407a30:	48 85 ff             	test   %rdi,%rdi
  407a33:	74 05                	je     407a3a <httpd_set_logfp+0x1a>
  407a35:	e8 a6 a9 ff ff       	callq  4023e0 <fclose@plt>
  407a3a:	48 89 6b 58          	mov    %rbp,0x58(%rbx)
  407a3e:	48 83 c4 08          	add    $0x8,%rsp
  407a42:	5b                   	pop    %rbx
  407a43:	5d                   	pop    %rbp
  407a44:	c3                   	retq   
  407a45:	90                   	nop
  407a46:	66 2e 0f 1f 84 00 00 	nopw   %cs:0x0(%rax,%rax,1)
  407a4d:	00 00 00 

0000000000407a50 <httpd_unlisten>:
  407a50:	53                   	push   %rbx
  407a51:	48 89 fb             	mov    %rdi,%rbx
  407a54:	8b 7f 48             	mov    0x48(%rdi),%edi
  407a57:	83 ff ff             	cmp    $0xffffffff,%edi
  407a5a:	74 0c                	je     407a68 <httpd_unlisten+0x18>
  407a5c:	e8 8f aa ff ff       	callq  4024f0 <close@plt>
  407a61:	c7 43 48 ff ff ff ff 	movl   $0xffffffff,0x48(%rbx)
  407a68:	8b 7b 4c             	mov    0x4c(%rbx),%edi
  407a6b:	83 ff ff             	cmp    $0xffffffff,%edi
  407a6e:	74 0c                	je     407a7c <httpd_unlisten+0x2c>
  407a70:	e8 7b aa ff ff       	callq  4024f0 <close@plt>
  407a75:	c7 43 4c ff ff ff ff 	movl   $0xffffffff,0x4c(%rbx)
  407a7c:	5b                   	pop    %rbx
  407a7d:	c3                   	retq   
  407a7e:	66 90                	xchg   %ax,%ax

0000000000407a80 <httpd_terminate>:
  407a80:	53                   	push   %rbx
  407a81:	48 89 fb             	mov    %rdi,%rbx
  407a84:	e8 c7 ff ff ff       	callq  407a50 <httpd_unlisten>
  407a89:	48 8b 7b 58          	mov    0x58(%rbx),%rdi
  407a8d:	48 85 ff             	test   %rdi,%rdi
  407a90:	74 05                	je     407a97 <httpd_terminate+0x17>
  407a92:	e8 49 a9 ff ff       	callq  4023e0 <fclose@plt>
  407a97:	48 89 df             	mov    %rbx,%rdi
  407a9a:	5b                   	pop    %rbx
  407a9b:	e9 80 f5 ff ff       	jmpq   407020 <free_httpd_server>

0000000000407aa0 <httpd_set_ndelay>:
  407aa0:	53                   	push   %rbx
  407aa1:	31 d2                	xor    %edx,%edx
  407aa3:	31 c0                	xor    %eax,%eax
  407aa5:	be 03 00 00 00       	mov    $0x3,%esi
  407aaa:	89 fb                	mov    %edi,%ebx
  407aac:	e8 ff a8 ff ff       	callq  4023b0 <fcntl@plt>
  407ab1:	83 f8 ff             	cmp    $0xffffffff,%eax
  407ab4:	74 1a                	je     407ad0 <httpd_set_ndelay+0x30>
  407ab6:	89 c2                	mov    %eax,%edx
  407ab8:	80 ce 08             	or     $0x8,%dh
  407abb:	39 d0                	cmp    %edx,%eax
  407abd:	74 11                	je     407ad0 <httpd_set_ndelay+0x30>
  407abf:	89 df                	mov    %ebx,%edi
  407ac1:	be 04 00 00 00       	mov    $0x4,%esi
  407ac6:	31 c0                	xor    %eax,%eax
  407ac8:	5b                   	pop    %rbx
  407ac9:	e9 e2 a8 ff ff       	jmpq   4023b0 <fcntl@plt>
  407ace:	66 90                	xchg   %ax,%ax
  407ad0:	5b                   	pop    %rbx
  407ad1:	c3                   	retq   
  407ad2:	0f 1f 40 00          	nopl   0x0(%rax)
  407ad6:	66 2e 0f 1f 84 00 00 	nopw   %cs:0x0(%rax,%rax,1)
  407add:	00 00 00 

0000000000407ae0 <httpd_clear_ndelay>:
  407ae0:	53                   	push   %rbx
  407ae1:	31 d2                	xor    %edx,%edx
  407ae3:	31 c0                	xor    %eax,%eax
  407ae5:	be 03 00 00 00       	mov    $0x3,%esi
  407aea:	89 fb                	mov    %edi,%ebx
  407aec:	e8 bf a8 ff ff       	callq  4023b0 <fcntl@plt>
  407af1:	83 f8 ff             	cmp    $0xffffffff,%eax
  407af4:	74 1a                	je     407b10 <httpd_clear_ndelay+0x30>
  407af6:	89 c2                	mov    %eax,%edx
  407af8:	80 e6 f7             	and    $0xf7,%dh
  407afb:	39 d0                	cmp    %edx,%eax
  407afd:	74 11                	je     407b10 <httpd_clear_ndelay+0x30>
  407aff:	89 df                	mov    %ebx,%edi
  407b01:	be 04 00 00 00       	mov    $0x4,%esi
  407b06:	31 c0                	xor    %eax,%eax
  407b08:	5b                   	pop    %rbx
  407b09:	e9 a2 a8 ff ff       	jmpq   4023b0 <fcntl@plt>
  407b0e:	66 90                	xchg   %ax,%ax
  407b10:	5b                   	pop    %rbx
  407b11:	c3                   	retq   
  407b12:	0f 1f 40 00          	nopl   0x0(%rax)
  407b16:	66 2e 0f 1f 84 00 00 	nopw   %cs:0x0(%rax,%rax,1)
  407b1d:	00 00 00 

0000000000407b20 <httpd_realloc_str>:
  407b20:	41 55                	push   %r13
  407b22:	41 54                	push   %r12
  407b24:	49 89 fc             	mov    %rdi,%r12
  407b27:	55                   	push   %rbp
  407b28:	53                   	push   %rbx
  407b29:	48 89 f5             	mov    %rsi,%rbp
  407b2c:	48 83 ec 08          	sub    $0x8,%rsp
  407b30:	48 8b 1e             	mov    (%rsi),%rbx
  407b33:	48 85 db             	test   %rbx,%rbx
  407b36:	74 78                	je     407bb0 <httpd_realloc_str+0x90>
  407b38:	48 39 d3             	cmp    %rdx,%rbx
  407b3b:	72 13                	jb     407b50 <httpd_realloc_str+0x30>
  407b3d:	48 83 c4 08          	add    $0x8,%rsp
  407b41:	5b                   	pop    %rbx
  407b42:	5d                   	pop    %rbp
  407b43:	41 5c                	pop    %r12
  407b45:	41 5d                	pop    %r13
  407b47:	c3                   	retq   
  407b48:	0f 1f 84 00 00 00 00 	nopl   0x0(%rax,%rax,1)
  407b4f:	00 
  407b50:	48 8d 34 92          	lea    (%rdx,%rdx,4),%rsi
  407b54:	48 8d 04 1b          	lea    (%rbx,%rbx,1),%rax
  407b58:	48 8b 3f             	mov    (%rdi),%rdi
  407b5b:	4c 8b 2d 9e e9 20 00 	mov    0x20e99e(%rip),%r13        # 616500 <str_alloc_size>
  407b62:	48 c1 ee 02          	shr    $0x2,%rsi
  407b66:	48 39 c6             	cmp    %rax,%rsi
  407b69:	48 0f 42 f0          	cmovb  %rax,%rsi
  407b6d:	48 89 75 00          	mov    %rsi,0x0(%rbp)
  407b71:	48 83 c6 01          	add    $0x1,%rsi
  407b75:	e8 d6 ab ff ff       	callq  402750 <realloc@plt>
  407b7a:	4c 03 6d 00          	add    0x0(%rbp),%r13
  407b7e:	49 89 04 24          	mov    %rax,(%r12)
  407b82:	49 29 dd             	sub    %rbx,%r13
  407b85:	4c 89 2d 74 e9 20 00 	mov    %r13,0x20e974(%rip)        # 616500 <str_alloc_size>
  407b8c:	48 85 c0             	test   %rax,%rax
  407b8f:	75 ac                	jne    407b3d <httpd_realloc_str+0x1d>
  407b91:	48 8b 55 00          	mov    0x0(%rbp),%rdx
  407b95:	bf 03 00 00 00       	mov    $0x3,%edi
  407b9a:	be d8 01 41 00       	mov    $0x4101d8,%esi
  407b9f:	e8 4c ab ff ff       	callq  4026f0 <syslog@plt>
  407ba4:	bf 01 00 00 00       	mov    $0x1,%edi
  407ba9:	e8 22 ad ff ff       	callq  4028d0 <exit@plt>
  407bae:	66 90                	xchg   %ax,%ax
  407bb0:	48 8d 5a 64          	lea    0x64(%rdx),%rbx
  407bb4:	b8 c8 00 00 00       	mov    $0xc8,%eax
  407bb9:	48 81 fb c8 00 00 00 	cmp    $0xc8,%rbx
  407bc0:	48 0f 42 d8          	cmovb  %rax,%rbx
  407bc4:	48 8d 7b 01          	lea    0x1(%rbx),%rdi
  407bc8:	48 89 1e             	mov    %rbx,(%rsi)
  407bcb:	e8 d0 aa ff ff       	callq  4026a0 <malloc@plt>
  407bd0:	83 05 31 e9 20 00 01 	addl   $0x1,0x20e931(%rip)        # 616508 <str_alloc_count>
  407bd7:	49 89 04 24          	mov    %rax,(%r12)
  407bdb:	48 01 1d 1e e9 20 00 	add    %rbx,0x20e91e(%rip)        # 616500 <str_alloc_size>
  407be2:	eb a8                	jmp    407b8c <httpd_realloc_str+0x6c>
  407be4:	66 90                	xchg   %ax,%ax
  407be6:	66 2e 0f 1f 84 00 00 	nopw   %cs:0x0(%rax,%rax,1)
  407bed:	00 00 00 

0000000000407bf0 <add_response>:
  407bf0:	41 54                	push   %r12
  407bf2:	55                   	push   %rbp
  407bf3:	49 89 f4             	mov    %rsi,%r12
  407bf6:	53                   	push   %rbx
  407bf7:	48 89 fb             	mov    %rdi,%rbx
  407bfa:	48 89 f7             	mov    %rsi,%rdi
  407bfd:	e8 1e a8 ff ff       	callq  402420 <strlen@plt>
  407c02:	48 89 c2             	mov    %rax,%rdx
  407c05:	48 03 93 d8 01 00 00 	add    0x1d8(%rbx),%rdx
  407c0c:	48 8d b3 d0 01 00 00 	lea    0x1d0(%rbx),%rsi
  407c13:	48 8d bb 70 01 00 00 	lea    0x170(%rbx),%rdi
  407c1a:	48 89 c5             	mov    %rax,%rbp
  407c1d:	e8 fe fe ff ff       	callq  407b20 <httpd_realloc_str>
  407c22:	48 8b bb d8 01 00 00 	mov    0x1d8(%rbx),%rdi
  407c29:	48 03 bb 70 01 00 00 	add    0x170(%rbx),%rdi
  407c30:	48 89 ea             	mov    %rbp,%rdx
  407c33:	4c 89 e6             	mov    %r12,%rsi
  407c36:	e8 95 ab ff ff       	callq  4027d0 <memmove@plt>
  407c3b:	48 01 ab d8 01 00 00 	add    %rbp,0x1d8(%rbx)
  407c42:	5b                   	pop    %rbx
  407c43:	5d                   	pop    %rbp
  407c44:	41 5c                	pop    %r12
  407c46:	c3                   	retq   
  407c47:	66 0f 1f 84 00 00 00 	nopw   0x0(%rax,%rax,1)
  407c4e:	00 00 

0000000000407c50 <send_mime>:
  407c50:	41 57                	push   %r15
  407c52:	41 56                	push   %r14
  407c54:	41 55                	push   %r13
  407c56:	41 54                	push   %r12
  407c58:	55                   	push   %rbp
  407c59:	53                   	push   %rbx
  407c5a:	48 89 fb             	mov    %rdi,%rbx
  407c5d:	48 81 ec 78 07 00 00 	sub    $0x778,%rsp
  407c64:	89 b7 b8 00 00 00    	mov    %esi,0xb8(%rdi)
  407c6a:	48 8b 84 24 b0 07 00 	mov    0x7b0(%rsp),%rax
  407c71:	00 
  407c72:	48 89 87 c0 00 00 00 	mov    %rax,0xc0(%rdi)
  407c79:	8b bf 08 02 00 00    	mov    0x208(%rdi),%edi
  407c7f:	85 ff                	test   %edi,%edi
  407c81:	0f 84 55 02 00 00    	je     407edc <send_mime+0x28c>
  407c87:	81 fe c8 00 00 00    	cmp    $0xc8,%esi
  407c8d:	89 f5                	mov    %esi,%ebp
  407c8f:	49 89 d6             	mov    %rdx,%r14
  407c92:	49 89 cd             	mov    %rcx,%r13
  407c95:	4d 89 c4             	mov    %r8,%r12
  407c98:	0f 84 2a 03 00 00    	je     407fc8 <send_mime+0x378>
  407c9e:	89 e8                	mov    %ebp,%eax
  407ca0:	ba 1f 85 eb 51       	mov    $0x51eb851f,%edx
  407ca5:	c7 83 10 02 00 00 00 	movl   $0x0,0x210(%rbx)
  407cac:	00 00 00 
  407caf:	f7 ea                	imul   %edx
  407cb1:	89 e8                	mov    %ebp,%eax
  407cb3:	c7 44 24 18 00 00 00 	movl   $0x0,0x18(%rsp)
  407cba:	00 
  407cbb:	c1 f8 1f             	sar    $0x1f,%eax
  407cbe:	c1 fa 05             	sar    $0x5,%edx
  407cc1:	29 c2                	sub    %eax,%edx
  407cc3:	8d 42 fe             	lea    -0x2(%rdx),%eax
  407cc6:	89 44 24 1c          	mov    %eax,0x1c(%rsp)
  407cca:	31 ff                	xor    %edi,%edi
  407ccc:	4c 89 0c 24          	mov    %r9,(%rsp)
  407cd0:	e8 6b a9 ff ff       	callq  402640 <time@plt>
  407cd5:	48 83 bc 24 b8 07 00 	cmpq   $0x0,0x7b8(%rsp)
  407cdc:	00 00 
  407cde:	48 89 44 24 20       	mov    %rax,0x20(%rsp)
  407ce3:	4c 8b 0c 24          	mov    (%rsp),%r9
  407ce7:	75 08                	jne    407cf1 <send_mime+0xa1>
  407ce9:	48 89 84 24 b8 07 00 	mov    %rax,0x7b8(%rsp)
  407cf0:	00 
  407cf1:	48 8d 7c 24 20       	lea    0x20(%rsp),%rdi
  407cf6:	4c 89 4c 24 10       	mov    %r9,0x10(%rsp)
  407cfb:	4c 8d bc 24 80 01 00 	lea    0x180(%rsp),%r15
  407d02:	00 
  407d03:	e8 48 ab ff ff       	callq  402850 <gmtime@plt>
  407d08:	4c 8d 54 24 30       	lea    0x30(%rsp),%r10
  407d0d:	48 89 c1             	mov    %rax,%rcx
  407d10:	ba 72 f0 40 00       	mov    $0x40f072,%edx
  407d15:	be 64 00 00 00       	mov    $0x64,%esi
  407d1a:	4c 89 d7             	mov    %r10,%rdi
  407d1d:	4c 89 54 24 08       	mov    %r10,0x8(%rsp)
  407d22:	e8 99 aa ff ff       	callq  4027c0 <strftime@plt>
  407d27:	48 8d bc 24 b8 07 00 	lea    0x7b8(%rsp),%rdi
  407d2e:	00 
  407d2f:	e8 1c ab ff ff       	callq  402850 <gmtime@plt>
  407d34:	4c 8d 9c 24 a0 00 00 	lea    0xa0(%rsp),%r11
  407d3b:	00 
  407d3c:	48 89 c1             	mov    %rax,%rcx
  407d3f:	ba 72 f0 40 00       	mov    $0x40f072,%edx
  407d44:	be 64 00 00 00       	mov    $0x64,%esi
  407d49:	4c 89 df             	mov    %r11,%rdi
  407d4c:	4c 89 1c 24          	mov    %r11,(%rsp)
  407d50:	e8 6b aa ff ff       	callq  4027c0 <strftime@plt>
  407d55:	48 8b 43 08          	mov    0x8(%rbx),%rax
  407d59:	4c 8b 4c 24 10       	mov    0x10(%rsp),%r9
  407d5e:	be f4 01 00 00       	mov    $0x1f4,%esi
  407d63:	4c 89 ff             	mov    %r15,%rdi
  407d66:	48 8b 48 28          	mov    0x28(%rax),%rcx
  407d6a:	4c 89 ca             	mov    %r9,%rdx
  407d6d:	31 c0                	xor    %eax,%eax
  407d6f:	e8 cc f3 ff ff       	callq  407140 <my_snprintf>
  407d74:	4c 8b 1c 24          	mov    (%rsp),%r11
  407d78:	48 8b 8b e0 00 00 00 	mov    0xe0(%rbx),%rcx
  407d7f:	4d 89 f1             	mov    %r14,%r9
  407d82:	41 89 e8             	mov    %ebp,%r8d
  407d85:	ba 10 02 41 00       	mov    $0x410210,%edx
  407d8a:	be e8 03 00 00       	mov    $0x3e8,%esi
  407d8f:	31 c0                	xor    %eax,%eax
  407d91:	41 53                	push   %r11
  407d93:	4c 8b 54 24 10       	mov    0x10(%rsp),%r10
  407d98:	41 52                	push   %r10
  407d9a:	41 57                	push   %r15
  407d9c:	68 8c f0 40 00       	pushq  $0x40f08c
  407da1:	48 8d bc 24 a0 03 00 	lea    0x3a0(%rsp),%rdi
  407da8:	00 
  407da9:	e8 92 f3 ff ff       	callq  407140 <my_snprintf>
  407dae:	48 83 c4 20          	add    $0x20,%rsp
  407db2:	48 89 df             	mov    %rbx,%rdi
  407db5:	48 8d b4 24 80 03 00 	lea    0x380(%rsp),%rsi
  407dbc:	00 
  407dbd:	e8 2e fe ff ff       	callq  407bf0 <add_response>
  407dc2:	83 7c 24 1c 01       	cmpl   $0x1,0x1c(%rsp)
  407dc7:	76 29                	jbe    407df2 <send_mime+0x1a2>
  407dc9:	48 8d bc 24 80 03 00 	lea    0x380(%rsp),%rdi
  407dd0:	00 
  407dd1:	be e8 03 00 00       	mov    $0x3e8,%esi
  407dd6:	ba 88 02 41 00       	mov    $0x410288,%edx
  407ddb:	31 c0                	xor    %eax,%eax
  407ddd:	e8 5e f3 ff ff       	callq  407140 <my_snprintf>
  407de2:	48 8d b4 24 80 03 00 	lea    0x380(%rsp),%rsi
  407de9:	00 
  407dea:	48 89 df             	mov    %rbx,%rdi
  407ded:	e8 fe fd ff ff       	callq  407bf0 <add_response>
  407df2:	41 80 7d 00 00       	cmpb   $0x0,0x0(%r13)
  407df7:	0f 85 8b 01 00 00    	jne    407f88 <send_mime+0x338>
  407dfd:	8b 4c 24 18          	mov    0x18(%rsp),%ecx
  407e01:	85 c9                	test   %ecx,%ecx
  407e03:	0f 85 e7 00 00 00    	jne    407ef0 <send_mime+0x2a0>
  407e09:	48 83 bc 24 b0 07 00 	cmpq   $0x0,0x7b0(%rsp)
  407e10:	00 00 
  407e12:	78 31                	js     407e45 <send_mime+0x1f5>
  407e14:	48 8b 8c 24 b0 07 00 	mov    0x7b0(%rsp),%rcx
  407e1b:	00 
  407e1c:	48 8d bc 24 80 03 00 	lea    0x380(%rsp),%rdi
  407e23:	00 
  407e24:	be e8 03 00 00       	mov    $0x3e8,%esi
  407e29:	ba aa f0 40 00       	mov    $0x40f0aa,%edx
  407e2e:	31 c0                	xor    %eax,%eax
  407e30:	e8 0b f3 ff ff       	callq  407140 <my_snprintf>
  407e35:	48 8d b4 24 80 03 00 	lea    0x380(%rsp),%rsi
  407e3c:	00 
  407e3d:	48 89 df             	mov    %rbx,%rdi
  407e40:	e8 ab fd ff ff       	callq  407bf0 <add_response>
  407e45:	48 8b 43 08          	mov    0x8(%rbx),%rax
  407e49:	48 8b 48 30          	mov    0x30(%rax),%rcx
  407e4d:	80 39 00             	cmpb   $0x0,(%rcx)
  407e50:	0f 85 fb 00 00 00    	jne    407f51 <send_mime+0x301>
  407e56:	48 63 40 38          	movslq 0x38(%rax),%rax
  407e5a:	85 c0                	test   %eax,%eax
  407e5c:	78 66                	js     407ec4 <send_mime+0x274>
  407e5e:	48 03 44 24 20       	add    0x20(%rsp),%rax
  407e63:	48 8d 7c 24 28       	lea    0x28(%rsp),%rdi
  407e68:	48 89 44 24 28       	mov    %rax,0x28(%rsp)
  407e6d:	e8 de a9 ff ff       	callq  402850 <gmtime@plt>
  407e72:	48 8d bc 24 10 01 00 	lea    0x110(%rsp),%rdi
  407e79:	00 
  407e7a:	48 89 c1             	mov    %rax,%rcx
  407e7d:	ba 72 f0 40 00       	mov    $0x40f072,%edx
  407e82:	be 64 00 00 00       	mov    $0x64,%esi
  407e87:	e8 34 a9 ff ff       	callq  4027c0 <strftime@plt>
  407e8c:	48 8b 43 08          	mov    0x8(%rbx),%rax
  407e90:	48 8d bc 24 80 03 00 	lea    0x380(%rsp),%rdi
  407e97:	00 
  407e98:	4c 8d 84 24 10 01 00 	lea    0x110(%rsp),%r8
  407e9f:	00 
  407ea0:	be e8 03 00 00       	mov    $0x3e8,%esi
  407ea5:	ba f0 02 41 00       	mov    $0x4102f0,%edx
  407eaa:	8b 48 38             	mov    0x38(%rax),%ecx
  407ead:	31 c0                	xor    %eax,%eax
  407eaf:	e8 8c f2 ff ff       	callq  407140 <my_snprintf>
  407eb4:	48 8d b4 24 80 03 00 	lea    0x380(%rsp),%rsi
  407ebb:	00 
  407ebc:	48 89 df             	mov    %rbx,%rdi
  407ebf:	e8 2c fd ff ff       	callq  407bf0 <add_response>
  407ec4:	41 80 3c 24 00       	cmpb   $0x0,(%r12)
  407ec9:	0f 85 81 01 00 00    	jne    408050 <send_mime+0x400>
  407ecf:	be 1d f6 40 00       	mov    $0x40f61d,%esi
  407ed4:	48 89 df             	mov    %rbx,%rdi
  407ed7:	e8 14 fd ff ff       	callq  407bf0 <add_response>
  407edc:	48 81 c4 78 07 00 00 	add    $0x778,%rsp
  407ee3:	5b                   	pop    %rbx
  407ee4:	5d                   	pop    %rbp
  407ee5:	41 5c                	pop    %r12
  407ee7:	41 5d                	pop    %r13
  407ee9:	41 5e                	pop    %r14
  407eeb:	41 5f                	pop    %r15
  407eed:	c3                   	retq   
  407eee:	66 90                	xchg   %ax,%ax
  407ef0:	4c 8b 83 20 02 00 00 	mov    0x220(%rbx),%r8
  407ef7:	48 8b 8b 18 02 00 00 	mov    0x218(%rbx),%rcx
  407efe:	48 83 ec 08          	sub    $0x8,%rsp
  407f02:	ba b0 02 41 00       	mov    $0x4102b0,%edx
  407f07:	be e8 03 00 00       	mov    $0x3e8,%esi
  407f0c:	4c 89 c0             	mov    %r8,%rax
  407f0f:	48 29 c8             	sub    %rcx,%rax
  407f12:	48 83 c0 01          	add    $0x1,%rax
  407f16:	50                   	push   %rax
  407f17:	4c 8b 8c 24 c0 07 00 	mov    0x7c0(%rsp),%r9
  407f1e:	00 
  407f1f:	31 c0                	xor    %eax,%eax
  407f21:	48 8d bc 24 90 03 00 	lea    0x390(%rsp),%rdi
  407f28:	00 
  407f29:	e8 12 f2 ff ff       	callq  407140 <my_snprintf>
  407f2e:	48 8d b4 24 90 03 00 	lea    0x390(%rsp),%rsi
  407f35:	00 
  407f36:	48 89 df             	mov    %rbx,%rdi
  407f39:	e8 b2 fc ff ff       	callq  407bf0 <add_response>
  407f3e:	58                   	pop    %rax
  407f3f:	48 8b 43 08          	mov    0x8(%rbx),%rax
  407f43:	5a                   	pop    %rdx
  407f44:	48 8b 48 30          	mov    0x30(%rax),%rcx
  407f48:	80 39 00             	cmpb   $0x0,(%rcx)
  407f4b:	0f 84 05 ff ff ff    	je     407e56 <send_mime+0x206>
  407f51:	48 8d bc 24 80 03 00 	lea    0x380(%rsp),%rdi
  407f58:	00 
  407f59:	ba c1 f0 40 00       	mov    $0x40f0c1,%edx
  407f5e:	be e8 03 00 00       	mov    $0x3e8,%esi
  407f63:	31 c0                	xor    %eax,%eax
  407f65:	e8 d6 f1 ff ff       	callq  407140 <my_snprintf>
  407f6a:	48 8d b4 24 80 03 00 	lea    0x380(%rsp),%rsi
  407f71:	00 
  407f72:	48 89 df             	mov    %rbx,%rdi
  407f75:	e8 76 fc ff ff       	callq  407bf0 <add_response>
  407f7a:	48 8b 43 08          	mov    0x8(%rbx),%rax
  407f7e:	e9 d3 fe ff ff       	jmpq   407e56 <send_mime+0x206>
  407f83:	0f 1f 44 00 00       	nopl   0x0(%rax,%rax,1)
  407f88:	48 8d bc 24 80 03 00 	lea    0x380(%rsp),%rdi
  407f8f:	00 
  407f90:	4c 89 e9             	mov    %r13,%rcx
  407f93:	ba 93 f0 40 00       	mov    $0x40f093,%edx
  407f98:	be e8 03 00 00       	mov    $0x3e8,%esi
  407f9d:	31 c0                	xor    %eax,%eax
  407f9f:	e8 9c f1 ff ff       	callq  407140 <my_snprintf>
  407fa4:	48 8d b4 24 80 03 00 	lea    0x380(%rsp),%rsi
  407fab:	00 
  407fac:	48 89 df             	mov    %rbx,%rdi
  407faf:	e8 3c fc ff ff       	callq  407bf0 <add_response>
  407fb4:	8b 4c 24 18          	mov    0x18(%rsp),%ecx
  407fb8:	85 c9                	test   %ecx,%ecx
  407fba:	0f 84 49 fe ff ff    	je     407e09 <send_mime+0x1b9>
  407fc0:	e9 2b ff ff ff       	jmpq   407ef0 <send_mime+0x2a0>
  407fc5:	0f 1f 00             	nopl   (%rax)
  407fc8:	8b b3 10 02 00 00    	mov    0x210(%rbx),%esi
  407fce:	85 f6                	test   %esi,%esi
  407fd0:	0f 84 c8 fc ff ff    	je     407c9e <send_mime+0x4e>
  407fd6:	48 8b 83 20 02 00 00 	mov    0x220(%rbx),%rax
  407fdd:	48 8b 93 18 02 00 00 	mov    0x218(%rbx),%rdx
  407fe4:	48 39 d0             	cmp    %rdx,%rax
  407fe7:	0f 8c b1 fc ff ff    	jl     407c9e <send_mime+0x4e>
  407fed:	48 8b 8c 24 b0 07 00 	mov    0x7b0(%rsp),%rcx
  407ff4:	00 
  407ff5:	48 83 e9 01          	sub    $0x1,%rcx
  407ff9:	48 39 c1             	cmp    %rax,%rcx
  407ffc:	75 09                	jne    408007 <send_mime+0x3b7>
  407ffe:	48 85 d2             	test   %rdx,%rdx
  408001:	0f 84 97 fc ff ff    	je     407c9e <send_mime+0x4e>
  408007:	48 8b 83 e8 01 00 00 	mov    0x1e8(%rbx),%rax
  40800e:	48 83 f8 ff          	cmp    $0xffffffffffffffff,%rax
  408012:	74 0d                	je     408021 <send_mime+0x3d1>
  408014:	48 3b 83 88 02 00 00 	cmp    0x288(%rbx),%rax
  40801b:	0f 85 7d fc ff ff    	jne    407c9e <send_mime+0x4e>
  408021:	c7 83 b8 00 00 00 ce 	movl   $0xce,0xb8(%rbx)
  408028:	00 00 00 
  40802b:	c7 44 24 1c 00 00 00 	movl   $0x0,0x1c(%rsp)
  408032:	00 
  408033:	41 be 62 f0 40 00    	mov    $0x40f062,%r14d
  408039:	c7 44 24 18 01 00 00 	movl   $0x1,0x18(%rsp)
  408040:	00 
  408041:	bd ce 00 00 00       	mov    $0xce,%ebp
  408046:	e9 7f fc ff ff       	jmpq   407cca <send_mime+0x7a>
  40804b:	0f 1f 44 00 00       	nopl   0x0(%rax,%rax,1)
  408050:	4c 89 e6             	mov    %r12,%rsi
  408053:	48 89 df             	mov    %rbx,%rdi
  408056:	e8 95 fb ff ff       	callq  407bf0 <add_response>
  40805b:	e9 6f fe ff ff       	jmpq   407ecf <send_mime+0x27f>

0000000000408060 <send_response_tail>:
  408060:	53                   	push   %rbx
  408061:	41 b8 8c f0 40 00    	mov    $0x40f08c,%r8d
  408067:	48 89 fb             	mov    %rdi,%rbx
  40806a:	b9 cb f0 40 00       	mov    $0x40f0cb,%ecx
  40806f:	ba 20 03 41 00       	mov    $0x410320,%edx
  408074:	be e8 03 00 00       	mov    $0x3e8,%esi
  408079:	48 81 ec f0 03 00 00 	sub    $0x3f0,%rsp
  408080:	31 c0                	xor    %eax,%eax
  408082:	48 89 e7             	mov    %rsp,%rdi
  408085:	e8 b6 f0 ff ff       	callq  407140 <my_snprintf>
  40808a:	48 89 e6             	mov    %rsp,%rsi
  40808d:	48 89 df             	mov    %rbx,%rdi
  408090:	e8 5b fb ff ff       	callq  407bf0 <add_response>
  408095:	48 81 c4 f0 03 00 00 	add    $0x3f0,%rsp
  40809c:	5b                   	pop    %rbx
  40809d:	c3                   	retq   
  40809e:	66 90                	xchg   %ax,%ax

00000000004080a0 <send_err_file>:
  4080a0:	41 56                	push   %r14
  4080a2:	41 55                	push   %r13
  4080a4:	49 89 ce             	mov    %rcx,%r14
  4080a7:	41 54                	push   %r12
  4080a9:	55                   	push   %rbp
  4080aa:	41 89 f4             	mov    %esi,%r12d
  4080ad:	53                   	push   %rbx
  4080ae:	48 89 fd             	mov    %rdi,%rbp
  4080b1:	be 6d ec 40 00       	mov    $0x40ec6d,%esi
  4080b6:	4c 89 c7             	mov    %r8,%rdi
  4080b9:	49 89 d5             	mov    %rdx,%r13
  4080bc:	48 81 ec f0 03 00 00 	sub    $0x3f0,%rsp
  4080c3:	e8 68 a7 ff ff       	callq  402830 <fopen@plt>
  4080c8:	48 89 c3             	mov    %rax,%rbx
  4080cb:	31 c0                	xor    %eax,%eax
  4080cd:	48 85 db             	test   %rbx,%rbx
  4080d0:	74 6c                	je     40813e <send_err_file+0x9e>
  4080d2:	6a 00                	pushq  $0x0
  4080d4:	6a ff                	pushq  $0xffffffffffffffff
  4080d6:	4c 89 ea             	mov    %r13,%rdx
  4080d9:	41 b9 dc f0 40 00    	mov    $0x40f0dc,%r9d
  4080df:	4d 89 f0             	mov    %r14,%r8
  4080e2:	b9 c9 f2 40 00       	mov    $0x40f2c9,%ecx
  4080e7:	44 89 e6             	mov    %r12d,%esi
  4080ea:	48 89 ef             	mov    %rbp,%rdi
  4080ed:	e8 5e fb ff ff       	callq  407c50 <send_mime>
  4080f2:	58                   	pop    %rax
  4080f3:	5a                   	pop    %rdx
  4080f4:	eb 19                	jmp    40810f <send_err_file+0x6f>
  4080f6:	66 2e 0f 1f 84 00 00 	nopw   %cs:0x0(%rax,%rax,1)
  4080fd:	00 00 00 
  408100:	48 89 e6             	mov    %rsp,%rsi
  408103:	48 89 ef             	mov    %rbp,%rdi
  408106:	c6 04 04 00          	movb   $0x0,(%rsp,%rax,1)
  40810a:	e8 e1 fa ff ff       	callq  407bf0 <add_response>
  40810f:	48 89 d9             	mov    %rbx,%rcx
  408112:	ba e7 03 00 00       	mov    $0x3e7,%edx
  408117:	be 01 00 00 00       	mov    $0x1,%esi
  40811c:	48 89 e7             	mov    %rsp,%rdi
  40811f:	e8 4c a2 ff ff       	callq  402370 <fread@plt>
  408124:	48 85 c0             	test   %rax,%rax
  408127:	75 d7                	jne    408100 <send_err_file+0x60>
  408129:	48 89 df             	mov    %rbx,%rdi
  40812c:	e8 af a2 ff ff       	callq  4023e0 <fclose@plt>
  408131:	48 89 ef             	mov    %rbp,%rdi
  408134:	e8 27 ff ff ff       	callq  408060 <send_response_tail>
  408139:	b8 01 00 00 00       	mov    $0x1,%eax
  40813e:	48 81 c4 f0 03 00 00 	add    $0x3f0,%rsp
  408145:	5b                   	pop    %rbx
  408146:	5d                   	pop    %rbp
  408147:	41 5c                	pop    %r12
  408149:	41 5d                	pop    %r13
  40814b:	41 5e                	pop    %r14
  40814d:	c3                   	retq   
  40814e:	66 90                	xchg   %ax,%ax

0000000000408150 <send_response>:
  408150:	41 56                	push   %r14
  408152:	41 55                	push   %r13
  408154:	4d 89 ce             	mov    %r9,%r14
  408157:	41 54                	push   %r12
  408159:	55                   	push   %rbp
  40815a:	4d 89 c5             	mov    %r8,%r13
  40815d:	53                   	push   %rbx
  40815e:	49 89 c8             	mov    %rcx,%r8
  408161:	41 b9 dc f0 40 00    	mov    $0x40f0dc,%r9d
  408167:	b9 c9 f2 40 00       	mov    $0x40f2c9,%ecx
  40816c:	48 89 fb             	mov    %rdi,%rbx
  40816f:	89 f5                	mov    %esi,%ebp
  408171:	48 81 ec c0 0b 00 00 	sub    $0xbc0,%rsp
  408178:	49 89 d4             	mov    %rdx,%r12
  40817b:	6a 00                	pushq  $0x0
  40817d:	6a ff                	pushq  $0xffffffffffffffff
  40817f:	e8 cc fa ff ff       	callq  407c50 <send_mime>
  408184:	48 8d bc 24 00 04 00 	lea    0x400(%rsp),%rdi
  40818b:	00 
  40818c:	41 89 e9             	mov    %ebp,%r9d
  40818f:	4d 89 e0             	mov    %r12,%r8
  408192:	89 e9                	mov    %ebp,%ecx
  408194:	ba 60 03 41 00       	mov    $0x410360,%edx
  408199:	be d0 07 00 00       	mov    $0x7d0,%esi
  40819e:	31 c0                	xor    %eax,%eax
  4081a0:	4c 89 24 24          	mov    %r12,(%rsp)
  4081a4:	e8 97 ef ff ff       	callq  407140 <my_snprintf>
  4081a9:	48 8d b4 24 00 04 00 	lea    0x400(%rsp),%rsi
  4081b0:	00 
  4081b1:	48 89 df             	mov    %rbx,%rdi
  4081b4:	e8 37 fa ff ff       	callq  407bf0 <add_response>
  4081b9:	48 8d 74 24 10       	lea    0x10(%rsp),%rsi
  4081be:	4c 89 f7             	mov    %r14,%rdi
  4081c1:	e8 ca f7 ff ff       	callq  407990 <defang.constprop.6>
  4081c6:	48 8d 4c 24 10       	lea    0x10(%rsp),%rcx
  4081cb:	48 8d bc 24 00 04 00 	lea    0x400(%rsp),%rdi
  4081d2:	00 
  4081d3:	4c 89 ea             	mov    %r13,%rdx
  4081d6:	be d0 07 00 00       	mov    $0x7d0,%esi
  4081db:	31 c0                	xor    %eax,%eax
  4081dd:	e8 5e ef ff ff       	callq  407140 <my_snprintf>
  4081e2:	48 8d b4 24 00 04 00 	lea    0x400(%rsp),%rsi
  4081e9:	00 
  4081ea:	48 89 df             	mov    %rbx,%rdi
  4081ed:	e8 fe f9 ff ff       	callq  407bf0 <add_response>
  4081f2:	48 8b b3 18 01 00 00 	mov    0x118(%rbx),%rsi
  4081f9:	bf f2 f0 40 00       	mov    $0x40f0f2,%edi
  4081fe:	e8 fd 60 00 00       	callq  40e300 <match>
  408203:	85 c0                	test   %eax,%eax
  408205:	5a                   	pop    %rdx
  408206:	59                   	pop    %rcx
  408207:	75 1f                	jne    408228 <send_response+0xd8>
  408209:	48 89 df             	mov    %rbx,%rdi
  40820c:	e8 4f fe ff ff       	callq  408060 <send_response_tail>
  408211:	48 81 c4 c0 0b 00 00 	add    $0xbc0,%rsp
  408218:	5b                   	pop    %rbx
  408219:	5d                   	pop    %rbp
  40821a:	41 5c                	pop    %r12
  40821c:	41 5d                	pop    %r13
  40821e:	41 5e                	pop    %r14
  408220:	c3                   	retq   
  408221:	0f 1f 80 00 00 00 00 	nopl   0x0(%rax)
  408228:	be fb f0 40 00       	mov    $0x40f0fb,%esi
  40822d:	48 89 df             	mov    %rbx,%rdi
  408230:	bd 06 00 00 00       	mov    $0x6,%ebp
  408235:	e8 b6 f9 ff ff       	callq  407bf0 <add_response>
  40823a:	66 0f 1f 44 00 00    	nopw   0x0(%rax,%rax,1)
  408240:	be e0 03 41 00       	mov    $0x4103e0,%esi
  408245:	48 89 df             	mov    %rbx,%rdi
  408248:	e8 a3 f9 ff ff       	callq  407bf0 <add_response>
  40824d:	83 ed 01             	sub    $0x1,%ebp
  408250:	75 ee                	jne    408240 <send_response+0xf0>
  408252:	be 01 f1 40 00       	mov    $0x40f101,%esi
  408257:	48 89 df             	mov    %rbx,%rdi
  40825a:	e8 91 f9 ff ff       	callq  407bf0 <add_response>
  40825f:	eb a8                	jmp    408209 <send_response+0xb9>
  408261:	0f 1f 44 00 00       	nopl   0x0(%rax,%rax,1)
  408266:	66 2e 0f 1f 84 00 00 	nopw   %cs:0x0(%rax,%rax,1)
  40826d:	00 00 00 

0000000000408270 <expand_symlinks>:
  408270:	41 57                	push   %r15
  408272:	41 56                	push   %r14
  408274:	41 55                	push   %r13
  408276:	41 54                	push   %r12
  408278:	55                   	push   %rbp
  408279:	53                   	push   %rbx
  40827a:	89 cb                	mov    %ecx,%ebx
  40827c:	48 81 ec b8 13 00 00 	sub    $0x13b8,%rsp
  408283:	85 d2                	test   %edx,%edx
  408285:	48 89 7c 24 18       	mov    %rdi,0x18(%rsp)
  40828a:	48 89 74 24 10       	mov    %rsi,0x10(%rsp)
  40828f:	0f 84 cb 00 00 00    	je     408360 <expand_symlinks+0xf0>
  408295:	48 8d 74 24 20       	lea    0x20(%rsp),%rsi
  40829a:	49 89 ff             	mov    %rdi,%r15
  40829d:	e8 4e 61 00 00       	callq  40e3f0 <__stat>
  4082a2:	83 f8 ff             	cmp    $0xffffffff,%eax
  4082a5:	0f 84 b5 00 00 00    	je     408360 <expand_symlinks+0xf0>
  4082ab:	4c 89 ff             	mov    %r15,%rdi
  4082ae:	e8 6d a1 ff ff       	callq  402420 <strlen@plt>
  4082b3:	be d0 63 61 00       	mov    $0x6163d0,%esi
  4082b8:	48 89 c2             	mov    %rax,%rdx
  4082bb:	bf d8 63 61 00       	mov    $0x6163d8,%edi
  4082c0:	48 89 c3             	mov    %rax,%rbx
  4082c3:	e8 58 f8 ff ff       	callq  407b20 <httpd_realloc_str>
  4082c8:	48 8b 3d 09 e1 20 00 	mov    0x20e109(%rip),%rdi        # 6163d8 <checked.5665>
  4082cf:	4c 89 fe             	mov    %r15,%rsi
  4082d2:	e8 49 a0 ff ff       	callq  402320 <strcpy@plt>
  4082d7:	48 85 db             	test   %rbx,%rbx
  4082da:	74 37                	je     408313 <expand_symlinks+0xa3>
  4082dc:	48 8d 43 ff          	lea    -0x1(%rbx),%rax
  4082e0:	48 89 c2             	mov    %rax,%rdx
  4082e3:	48 03 15 ee e0 20 00 	add    0x20e0ee(%rip),%rdx        # 6163d8 <checked.5665>
  4082ea:	80 3a 2f             	cmpb   $0x2f,(%rdx)
  4082ed:	74 1c                	je     40830b <expand_symlinks+0x9b>
  4082ef:	eb 22                	jmp    408313 <expand_symlinks+0xa3>
  4082f1:	0f 1f 80 00 00 00 00 	nopl   0x0(%rax)
  4082f8:	48 83 e8 01          	sub    $0x1,%rax
  4082fc:	48 89 c2             	mov    %rax,%rdx
  4082ff:	48 03 15 d2 e0 20 00 	add    0x20e0d2(%rip),%rdx        # 6163d8 <checked.5665>
  408306:	80 3a 2f             	cmpb   $0x2f,(%rdx)
  408309:	75 08                	jne    408313 <expand_symlinks+0xa3>
  40830b:	48 85 c0             	test   %rax,%rax
  40830e:	c6 02 00             	movb   $0x0,(%rdx)
  408311:	75 e5                	jne    4082f8 <expand_symlinks+0x88>
  408313:	be c0 63 61 00       	mov    $0x6163c0,%esi
  408318:	31 d2                	xor    %edx,%edx
  40831a:	bf c8 63 61 00       	mov    $0x6163c8,%edi
  40831f:	e8 fc f7 ff ff       	callq  407b20 <httpd_realloc_str>
  408324:	48 8b 05 9d e0 20 00 	mov    0x20e09d(%rip),%rax        # 6163c8 <rest.5666>
  40832b:	48 8b 74 24 10       	mov    0x10(%rsp),%rsi
  408330:	c6 00 00             	movb   $0x0,(%rax)
  408333:	48 8b 05 8e e0 20 00 	mov    0x20e08e(%rip),%rax        # 6163c8 <rest.5666>
  40833a:	48 89 06             	mov    %rax,(%rsi)
  40833d:	48 8b 05 94 e0 20 00 	mov    0x20e094(%rip),%rax        # 6163d8 <checked.5665>
  408344:	48 81 c4 b8 13 00 00 	add    $0x13b8,%rsp
  40834b:	5b                   	pop    %rbx
  40834c:	5d                   	pop    %rbp
  40834d:	41 5c                	pop    %r12
  40834f:	41 5d                	pop    %r13
  408351:	41 5e                	pop    %r14
  408353:	41 5f                	pop    %r15
  408355:	c3                   	retq   
  408356:	66 2e 0f 1f 84 00 00 	nopw   %cs:0x0(%rax,%rax,1)
  40835d:	00 00 00 
  408360:	ba 01 00 00 00       	mov    $0x1,%edx
  408365:	be d0 63 61 00       	mov    $0x6163d0,%esi
  40836a:	bf d8 63 61 00       	mov    $0x6163d8,%edi
  40836f:	e8 ac f7 ff ff       	callq  407b20 <httpd_realloc_str>
  408374:	48 8b 05 5d e0 20 00 	mov    0x20e05d(%rip),%rax        # 6163d8 <checked.5665>
  40837b:	4c 8b 74 24 18       	mov    0x18(%rsp),%r14
  408380:	c6 00 00             	movb   $0x0,(%rax)
  408383:	4c 89 f7             	mov    %r14,%rdi
  408386:	e8 95 a0 ff ff       	callq  402420 <strlen@plt>
  40838b:	be c0 63 61 00       	mov    $0x6163c0,%esi
  408390:	48 89 c2             	mov    %rax,%rdx
  408393:	bf c8 63 61 00       	mov    $0x6163c8,%edi
  408398:	48 89 c5             	mov    %rax,%rbp
  40839b:	e8 80 f7 ff ff       	callq  407b20 <httpd_realloc_str>
  4083a0:	48 8b 3d 21 e0 20 00 	mov    0x20e021(%rip),%rdi        # 6163c8 <rest.5666>
  4083a7:	4c 89 f6             	mov    %r14,%rsi
  4083aa:	e8 71 9f ff ff       	callq  402320 <strcpy@plt>
  4083af:	48 85 ed             	test   %rbp,%rbp
  4083b2:	0f 84 10 01 00 00    	je     4084c8 <expand_symlinks+0x258>
  4083b8:	4c 8b 3d 09 e0 20 00 	mov    0x20e009(%rip),%r15        # 6163c8 <rest.5666>
  4083bf:	48 8d 45 ff          	lea    -0x1(%rbp),%rax
  4083c3:	49 8d 14 07          	lea    (%r15,%rax,1),%rdx
  4083c7:	80 3a 2f             	cmpb   $0x2f,(%rdx)
  4083ca:	0f 84 d0 04 00 00    	je     4088a0 <expand_symlinks+0x630>
  4083d0:	85 db                	test   %ebx,%ebx
  4083d2:	0f 84 19 05 00 00    	je     4088f1 <expand_symlinks+0x681>
  4083d8:	c7 44 24 04 00 00 00 	movl   $0x0,0x4(%rsp)
  4083df:	00 
  4083e0:	45 31 e4             	xor    %r12d,%r12d
  4083e3:	eb 7c                	jmp    408461 <expand_symlinks+0x1f1>
  4083e5:	0f 1f 00             	nopl   (%rax)
  4083e8:	83 f8 02             	cmp    $0x2,%eax
  4083eb:	b9 02 00 00 00       	mov    $0x2,%ecx
  4083f0:	bf 1a f0 40 00       	mov    $0x40f01a,%edi
  4083f5:	0f 4d c8             	cmovge %eax,%ecx
  4083f8:	b8 03 00 00 00       	mov    $0x3,%eax
  4083fd:	4c 89 fe             	mov    %r15,%rsi
  408400:	48 63 c9             	movslq %ecx,%rcx
  408403:	48 83 f9 03          	cmp    $0x3,%rcx
  408407:	48 0f 4f c8          	cmovg  %rax,%rcx
  40840b:	48 39 c9             	cmp    %rcx,%rcx
  40840e:	f3 a6                	repz cmpsb %es:(%rdi),%ds:(%rsi)
  408410:	0f 85 ca 02 00 00    	jne    4086e0 <expand_symlinks+0x470>
  408416:	4d 85 e4             	test   %r12,%r12
  408419:	0f 85 71 02 00 00    	jne    408690 <expand_symlinks+0x420>
  40841f:	48 8b 15 b2 df 20 00 	mov    0x20dfb2(%rip),%rdx        # 6163d8 <checked.5665>
  408426:	4c 63 f3             	movslq %ebx,%r14
  408429:	45 31 ed             	xor    %r13d,%r13d
  40842c:	42 c6 04 2a 00       	movb   $0x0,(%rdx,%r13,1)
  408431:	48 8b 3d a0 df 20 00 	mov    0x20dfa0(%rip),%rdi        # 6163d8 <checked.5665>
  408438:	83 c3 01             	add    $0x1,%ebx
  40843b:	4f 8d 7c 37 01       	lea    0x1(%r15,%r14,1),%r15
  408440:	48 63 db             	movslq %ebx,%rbx
  408443:	49 89 ee             	mov    %rbp,%r14
  408446:	49 29 de             	sub    %rbx,%r14
  408449:	80 3f 00             	cmpb   $0x0,(%rdi)
  40844c:	0f 85 4c 01 00 00    	jne    40859e <expand_symlinks+0x32e>
  408452:	4c 89 f5             	mov    %r14,%rbp
  408455:	4d 89 ec             	mov    %r13,%r12
  408458:	48 85 ed             	test   %rbp,%rbp
  40845b:	0f 84 af 00 00 00    	je     408510 <expand_symlinks+0x2a0>
  408461:	be 2f 00 00 00       	mov    $0x2f,%esi
  408466:	4c 89 ff             	mov    %r15,%rdi
  408469:	e8 12 a0 ff ff       	callq  402480 <strchr@plt>
  40846e:	48 85 c0             	test   %rax,%rax
  408471:	0f 84 c1 00 00 00    	je     408538 <expand_symlinks+0x2c8>
  408477:	4c 29 f8             	sub    %r15,%rax
  40847a:	85 c0                	test   %eax,%eax
  40847c:	48 89 c3             	mov    %rax,%rbx
  40847f:	0f 85 63 ff ff ff    	jne    4083e8 <expand_symlinks+0x178>
  408485:	4d 8d 6c 24 01       	lea    0x1(%r12),%r13
  40848a:	be d0 63 61 00       	mov    $0x6163d0,%esi
  40848f:	bf d8 63 61 00       	mov    $0x6163d8,%edi
  408494:	45 31 f6             	xor    %r14d,%r14d
  408497:	4c 89 ea             	mov    %r13,%rdx
  40849a:	e8 81 f6 ff ff       	callq  407b20 <httpd_realloc_str>
  40849f:	4c 89 e7             	mov    %r12,%rdi
  4084a2:	48 03 3d 2f df 20 00 	add    0x20df2f(%rip),%rdi        # 6163d8 <checked.5665>
  4084a9:	ba 01 00 00 00       	mov    $0x1,%edx
  4084ae:	4c 89 fe             	mov    %r15,%rsi
  4084b1:	e8 4a 9e ff ff       	callq  402300 <strncpy@plt>
  4084b6:	48 8b 15 1b df 20 00 	mov    0x20df1b(%rip),%rdx        # 6163d8 <checked.5665>
  4084bd:	e9 6a ff ff ff       	jmpq   40842c <expand_symlinks+0x1bc>
  4084c2:	66 0f 1f 44 00 00    	nopw   0x0(%rax,%rax,1)
  4084c8:	85 db                	test   %ebx,%ebx
  4084ca:	0f 85 15 04 00 00    	jne    4088e5 <expand_symlinks+0x675>
  4084d0:	4c 8b 3d f1 de 20 00 	mov    0x20def1(%rip),%r15        # 6163c8 <rest.5666>
  4084d7:	41 80 3f 2f          	cmpb   $0x2f,(%r15)
  4084db:	75 33                	jne    408510 <expand_symlinks+0x2a0>
  4084dd:	0f 1f 00             	nopl   (%rax)
  4084e0:	49 8d 77 01          	lea    0x1(%r15),%rsi
  4084e4:	4c 89 ff             	mov    %r15,%rdi
  4084e7:	48 83 ed 01          	sub    $0x1,%rbp
  4084eb:	e8 30 9e ff ff       	callq  402320 <strcpy@plt>
  4084f0:	4c 8b 3d d1 de 20 00 	mov    0x20ded1(%rip),%r15        # 6163c8 <rest.5666>
  4084f7:	41 80 3f 2f          	cmpb   $0x2f,(%r15)
  4084fb:	74 e3                	je     4084e0 <expand_symlinks+0x270>
  4084fd:	48 85 ed             	test   %rbp,%rbp
  408500:	0f 85 d2 fe ff ff    	jne    4083d8 <expand_symlinks+0x168>
  408506:	66 2e 0f 1f 84 00 00 	nopw   %cs:0x0(%rax,%rax,1)
  40850d:	00 00 00 
  408510:	48 8b 44 24 10       	mov    0x10(%rsp),%rax
  408515:	4c 89 38             	mov    %r15,(%rax)
  408518:	48 8b 05 b9 de 20 00 	mov    0x20deb9(%rip),%rax        # 6163d8 <checked.5665>
  40851f:	80 38 00             	cmpb   $0x0,(%rax)
  408522:	0f 85 1c fe ff ff    	jne    408344 <expand_symlinks+0xd4>
  408528:	ba 2e 00 00 00       	mov    $0x2e,%edx
  40852d:	66 89 10             	mov    %dx,(%rax)
  408530:	e9 dd 02 00 00       	jmpq   408812 <expand_symlinks+0x5a2>
  408535:	0f 1f 00             	nopl   (%rax)
  408538:	bf 1a f0 40 00       	mov    $0x40f01a,%edi
  40853d:	b9 03 00 00 00       	mov    $0x3,%ecx
  408542:	4c 89 fe             	mov    %r15,%rsi
  408545:	f3 a6                	repz cmpsb %es:(%rdi),%ds:(%rsi)
  408547:	0f 85 e3 02 00 00    	jne    408830 <expand_symlinks+0x5c0>
  40854d:	45 31 ed             	xor    %r13d,%r13d
  408550:	4d 85 e4             	test   %r12,%r12
  408553:	74 33                	je     408588 <expand_symlinks+0x318>
  408555:	48 8b 1d 7c de 20 00 	mov    0x20de7c(%rip),%rbx        # 6163d8 <checked.5665>
  40855c:	be 2f 00 00 00       	mov    $0x2f,%esi
  408561:	48 89 df             	mov    %rbx,%rdi
  408564:	e8 47 9f ff ff       	callq  4024b0 <strrchr@plt>
  408569:	48 85 c0             	test   %rax,%rax
  40856c:	74 15                	je     408583 <expand_symlinks+0x313>
  40856e:	48 89 c1             	mov    %rax,%rcx
  408571:	48 29 d9             	sub    %rbx,%rcx
  408574:	48 39 c3             	cmp    %rax,%rbx
  408577:	b8 01 00 00 00       	mov    $0x1,%eax
  40857c:	48 0f 45 c1          	cmovne %rcx,%rax
  408580:	49 89 c5             	mov    %rax,%r13
  408583:	42 c6 04 2b 00       	movb   $0x0,(%rbx,%r13,1)
  408588:	48 8b 3d 49 de 20 00 	mov    0x20de49(%rip),%rdi        # 6163d8 <checked.5665>
  40858f:	49 01 ef             	add    %rbp,%r15
  408592:	80 3f 00             	cmpb   $0x0,(%rdi)
  408595:	0f 84 75 ff ff ff    	je     408510 <expand_symlinks+0x2a0>
  40859b:	45 31 f6             	xor    %r14d,%r14d
  40859e:	48 8d 74 24 20       	lea    0x20(%rsp),%rsi
  4085a3:	ba 87 13 00 00       	mov    $0x1387,%edx
  4085a8:	e8 f3 9d ff ff       	callq  4023a0 <readlink@plt>
  4085ad:	48 83 f8 ff          	cmp    $0xffffffffffffffff,%rax
  4085b1:	48 89 c3             	mov    %rax,%rbx
  4085b4:	0f 84 ee 01 00 00    	je     4087a8 <expand_symlinks+0x538>
  4085ba:	83 44 24 04 01       	addl   $0x1,0x4(%rsp)
  4085bf:	8b 44 24 04          	mov    0x4(%rsp),%eax
  4085c3:	83 f8 20             	cmp    $0x20,%eax
  4085c6:	0f 8f fc 02 00 00    	jg     4088c8 <expand_symlinks+0x658>
  4085cc:	80 7c 1c 1f 2f       	cmpb   $0x2f,0x1f(%rsp,%rbx,1)
  4085d1:	c6 44 1c 20 00       	movb   $0x0,0x20(%rsp,%rbx,1)
  4085d6:	48 8d 43 ff          	lea    -0x1(%rbx),%rax
  4085da:	0f 84 40 02 00 00    	je     408820 <expand_symlinks+0x5b0>
  4085e0:	4d 85 f6             	test   %r14,%r14
  4085e3:	0f 84 4f 01 00 00    	je     408738 <expand_symlinks+0x4c8>
  4085e9:	48 8b 3d d8 dd 20 00 	mov    0x20ddd8(%rip),%rdi        # 6163c8 <rest.5666>
  4085f0:	4a 8d 6c 33 01       	lea    0x1(%rbx,%r14,1),%rbp
  4085f5:	4c 89 fe             	mov    %r15,%rsi
  4085f8:	e8 23 9d ff ff       	callq  402320 <strcpy@plt>
  4085fd:	48 89 ea             	mov    %rbp,%rdx
  408600:	be c0 63 61 00       	mov    $0x6163c0,%esi
  408605:	bf c8 63 61 00       	mov    $0x6163c8,%edi
  40860a:	e8 11 f5 ff ff       	callq  407b20 <httpd_realloc_str>
  40860f:	45 85 f6             	test   %r14d,%r14d
  408612:	78 3a                	js     40864e <expand_symlinks+0x3de>
  408614:	49 63 ce             	movslq %r14d,%rcx
  408617:	45 89 f1             	mov    %r14d,%r9d
  40861a:	4c 8d 53 01          	lea    0x1(%rbx),%r10
  40861e:	48 8d 51 ff          	lea    -0x1(%rcx),%rdx
  408622:	48 89 d7             	mov    %rdx,%rdi
  408625:	4c 29 cf             	sub    %r9,%rdi
  408628:	eb 0a                	jmp    408634 <expand_symlinks+0x3c4>
  40862a:	66 0f 1f 44 00 00    	nopw   0x0(%rax,%rax,1)
  408630:	48 83 ea 01          	sub    $0x1,%rdx
  408634:	48 8b 05 8d dd 20 00 	mov    0x20dd8d(%rip),%rax        # 6163c8 <rest.5666>
  40863b:	0f b6 34 08          	movzbl (%rax,%rcx,1),%esi
  40863f:	4c 01 d0             	add    %r10,%rax
  408642:	48 39 d7             	cmp    %rdx,%rdi
  408645:	40 88 34 08          	mov    %sil,(%rax,%rcx,1)
  408649:	48 89 d1             	mov    %rdx,%rcx
  40864c:	75 e2                	jne    408630 <expand_symlinks+0x3c0>
  40864e:	48 8b 3d 73 dd 20 00 	mov    0x20dd73(%rip),%rdi        # 6163c8 <rest.5666>
  408655:	48 8d 74 24 20       	lea    0x20(%rsp),%rsi
  40865a:	e8 c1 9c ff ff       	callq  402320 <strcpy@plt>
  40865f:	48 8b 05 62 dd 20 00 	mov    0x20dd62(%rip),%rax        # 6163c8 <rest.5666>
  408666:	c6 04 18 2f          	movb   $0x2f,(%rax,%rbx,1)
  40866a:	4c 8b 3d 57 dd 20 00 	mov    0x20dd57(%rip),%r15        # 6163c8 <rest.5666>
  408671:	48 8b 05 60 dd 20 00 	mov    0x20dd60(%rip),%rax        # 6163d8 <checked.5665>
  408678:	41 80 3f 2f          	cmpb   $0x2f,(%r15)
  40867c:	0f 84 f4 00 00 00    	je     408776 <expand_symlinks+0x506>
  408682:	42 c6 04 20 00       	movb   $0x0,(%rax,%r12,1)
  408687:	e9 cc fd ff ff       	jmpq   408458 <expand_symlinks+0x1e8>
  40868c:	0f 1f 40 00          	nopl   0x0(%rax)
  408690:	48 8b 15 41 dd 20 00 	mov    0x20dd41(%rip),%rdx        # 6163d8 <checked.5665>
  408697:	be 2f 00 00 00       	mov    $0x2f,%esi
  40869c:	45 31 ed             	xor    %r13d,%r13d
  40869f:	4c 63 f3             	movslq %ebx,%r14
  4086a2:	48 89 d7             	mov    %rdx,%rdi
  4086a5:	48 89 54 24 08       	mov    %rdx,0x8(%rsp)
  4086aa:	e8 01 9e ff ff       	callq  4024b0 <strrchr@plt>
  4086af:	48 85 c0             	test   %rax,%rax
  4086b2:	48 8b 54 24 08       	mov    0x8(%rsp),%rdx
  4086b7:	0f 84 6f fd ff ff    	je     40842c <expand_symlinks+0x1bc>
  4086bd:	49 89 c5             	mov    %rax,%r13
  4086c0:	4c 63 f3             	movslq %ebx,%r14
  4086c3:	49 29 d5             	sub    %rdx,%r13
  4086c6:	48 39 c2             	cmp    %rax,%rdx
  4086c9:	b8 01 00 00 00       	mov    $0x1,%eax
  4086ce:	4c 0f 44 e8          	cmove  %rax,%r13
  4086d2:	e9 55 fd ff ff       	jmpq   40842c <expand_symlinks+0x1bc>
  4086d7:	66 0f 1f 84 00 00 00 	nopw   0x0(%rax,%rax,1)
  4086de:	00 00 
  4086e0:	49 8d 44 24 01       	lea    0x1(%r12),%rax
  4086e5:	4c 63 f3             	movslq %ebx,%r14
  4086e8:	bf d8 63 61 00       	mov    $0x6163d8,%edi
  4086ed:	be d0 63 61 00       	mov    $0x6163d0,%esi
  4086f2:	4d 8d 2c 06          	lea    (%r14,%rax,1),%r13
  4086f6:	48 89 44 24 08       	mov    %rax,0x8(%rsp)
  4086fb:	4c 89 ea             	mov    %r13,%rdx
  4086fe:	e8 1d f4 ff ff       	callq  407b20 <httpd_realloc_str>
  408703:	4d 85 e4             	test   %r12,%r12
  408706:	48 8b 3d cb dc 20 00 	mov    0x20dccb(%rip),%rdi        # 6163d8 <checked.5665>
  40870d:	48 8b 44 24 08       	mov    0x8(%rsp),%rax
  408712:	75 74                	jne    408788 <expand_symlinks+0x518>
  408714:	4d 89 f5             	mov    %r14,%r13
  408717:	31 c0                	xor    %eax,%eax
  408719:	4c 89 f2             	mov    %r14,%rdx
  40871c:	48 01 c7             	add    %rax,%rdi
  40871f:	4c 89 fe             	mov    %r15,%rsi
  408722:	e8 d9 9b ff ff       	callq  402300 <strncpy@plt>
  408727:	48 8b 15 aa dc 20 00 	mov    0x20dcaa(%rip),%rdx        # 6163d8 <checked.5665>
  40872e:	e9 f9 fc ff ff       	jmpq   40842c <expand_symlinks+0x1bc>
  408733:	0f 1f 44 00 00       	nopl   0x0(%rax,%rax,1)
  408738:	48 89 da             	mov    %rbx,%rdx
  40873b:	be c0 63 61 00       	mov    $0x6163c0,%esi
  408740:	bf c8 63 61 00       	mov    $0x6163c8,%edi
  408745:	e8 d6 f3 ff ff       	callq  407b20 <httpd_realloc_str>
  40874a:	48 8b 3d 77 dc 20 00 	mov    0x20dc77(%rip),%rdi        # 6163c8 <rest.5666>
  408751:	48 8d 74 24 20       	lea    0x20(%rsp),%rsi
  408756:	48 89 dd             	mov    %rbx,%rbp
  408759:	e8 c2 9b ff ff       	callq  402320 <strcpy@plt>
  40875e:	4c 8b 3d 63 dc 20 00 	mov    0x20dc63(%rip),%r15        # 6163c8 <rest.5666>
  408765:	48 8b 05 6c dc 20 00 	mov    0x20dc6c(%rip),%rax        # 6163d8 <checked.5665>
  40876c:	41 80 3f 2f          	cmpb   $0x2f,(%r15)
  408770:	0f 85 0c ff ff ff    	jne    408682 <expand_symlinks+0x412>
  408776:	c6 00 00             	movb   $0x0,(%rax)
  408779:	45 31 e4             	xor    %r12d,%r12d
  40877c:	e9 d7 fc ff ff       	jmpq   408458 <expand_symlinks+0x1e8>
  408781:	0f 1f 80 00 00 00 00 	nopl   0x0(%rax)
  408788:	42 80 7c 27 ff 2f    	cmpb   $0x2f,-0x1(%rdi,%r12,1)
  40878e:	0f 84 fc 00 00 00    	je     408890 <expand_symlinks+0x620>
  408794:	42 c6 04 27 2f       	movb   $0x2f,(%rdi,%r12,1)
  408799:	48 8b 3d 38 dc 20 00 	mov    0x20dc38(%rip),%rdi        # 6163d8 <checked.5665>
  4087a0:	e9 74 ff ff ff       	jmpq   408719 <expand_symlinks+0x4a9>
  4087a5:	0f 1f 00             	nopl   (%rax)
  4087a8:	e8 43 9b ff ff       	callq  4022f0 <__errno_location@plt>
  4087ad:	8b 00                	mov    (%rax),%eax
  4087af:	83 f8 16             	cmp    $0x16,%eax
  4087b2:	0f 84 9a fc ff ff    	je     408452 <expand_symlinks+0x1e2>
  4087b8:	83 f8 14             	cmp    $0x14,%eax
  4087bb:	76 23                	jbe    4087e0 <expand_symlinks+0x570>
  4087bd:	48 8b 15 14 dc 20 00 	mov    0x20dc14(%rip),%rdx        # 6163d8 <checked.5665>
  4087c4:	31 c0                	xor    %eax,%eax
  4087c6:	be 06 f1 40 00       	mov    $0x40f106,%esi
  4087cb:	bf 03 00 00 00       	mov    $0x3,%edi
  4087d0:	e8 1b 9f ff ff       	callq  4026f0 <syslog@plt>
  4087d5:	31 c0                	xor    %eax,%eax
  4087d7:	e9 68 fb ff ff       	jmpq   408344 <expand_symlinks+0xd4>
  4087dc:	0f 1f 40 00          	nopl   0x0(%rax)
  4087e0:	ba 04 20 10 00       	mov    $0x102004,%edx
  4087e5:	48 0f a3 c2          	bt     %rax,%rdx
  4087e9:	73 d2                	jae    4087bd <expand_symlinks+0x54d>
  4087eb:	4d 89 f1             	mov    %r14,%r9
  4087ee:	48 8b 44 24 10       	mov    0x10(%rsp),%rax
  4087f3:	49 29 e9             	sub    %rbp,%r9
  4087f6:	4d 85 e4             	test   %r12,%r12
  4087f9:	4f 8d 04 0f          	lea    (%r15,%r9,1),%r8
  4087fd:	4c 89 00             	mov    %r8,(%rax)
  408800:	48 8b 05 d1 db 20 00 	mov    0x20dbd1(%rip),%rax        # 6163d8 <checked.5665>
  408807:	0f 84 1b fd ff ff    	je     408528 <expand_symlinks+0x2b8>
  40880d:	42 c6 04 20 00       	movb   $0x0,(%rax,%r12,1)
  408812:	48 8b 05 bf db 20 00 	mov    0x20dbbf(%rip),%rax        # 6163d8 <checked.5665>
  408819:	e9 26 fb ff ff       	jmpq   408344 <expand_symlinks+0xd4>
  40881e:	66 90                	xchg   %ax,%ax
  408820:	c6 44 1c 1f 00       	movb   $0x0,0x1f(%rsp,%rbx,1)
  408825:	48 89 c3             	mov    %rax,%rbx
  408828:	e9 b3 fd ff ff       	jmpq   4085e0 <expand_symlinks+0x370>
  40882d:	0f 1f 00             	nopl   (%rax)
  408830:	4d 8d 2c 2c          	lea    (%r12,%rbp,1),%r13
  408834:	bf d8 63 61 00       	mov    $0x6163d8,%edi
  408839:	be d0 63 61 00       	mov    $0x6163d0,%esi
  40883e:	49 8d 55 01          	lea    0x1(%r13),%rdx
  408842:	e8 d9 f2 ff ff       	callq  407b20 <httpd_realloc_str>
  408847:	4d 85 e4             	test   %r12,%r12
  40884a:	48 8b 3d 87 db 20 00 	mov    0x20db87(%rip),%rdi        # 6163d8 <checked.5665>
  408851:	74 25                	je     408878 <expand_symlinks+0x608>
  408853:	42 80 7c 27 ff 2f    	cmpb   $0x2f,-0x1(%rdi,%r12,1)
  408859:	4c 89 e0             	mov    %r12,%rax
  40885c:	74 1f                	je     40887d <expand_symlinks+0x60d>
  40885e:	49 8d 44 24 01       	lea    0x1(%r12),%rax
  408863:	42 c6 04 27 2f       	movb   $0x2f,(%rdi,%r12,1)
  408868:	48 8b 3d 69 db 20 00 	mov    0x20db69(%rip),%rdi        # 6163d8 <checked.5665>
  40886f:	4c 8d 2c 28          	lea    (%rax,%rbp,1),%r13
  408873:	eb 08                	jmp    40887d <expand_symlinks+0x60d>
  408875:	0f 1f 00             	nopl   (%rax)
  408878:	49 89 ed             	mov    %rbp,%r13
  40887b:	31 c0                	xor    %eax,%eax
  40887d:	48 01 c7             	add    %rax,%rdi
  408880:	4c 89 fe             	mov    %r15,%rsi
  408883:	e8 98 9a ff ff       	callq  402320 <strcpy@plt>
  408888:	e9 fb fc ff ff       	jmpq   408588 <expand_symlinks+0x318>
  40888d:	0f 1f 00             	nopl   (%rax)
  408890:	4f 8d 2c 26          	lea    (%r14,%r12,1),%r13
  408894:	4c 89 e0             	mov    %r12,%rax
  408897:	e9 7d fe ff ff       	jmpq   408719 <expand_symlinks+0x4a9>
  40889c:	0f 1f 40 00          	nopl   0x0(%rax)
  4088a0:	85 db                	test   %ebx,%ebx
  4088a2:	c6 02 00             	movb   $0x0,(%rdx)
  4088a5:	48 89 c5             	mov    %rax,%rbp
  4088a8:	4c 8b 3d 19 db 20 00 	mov    0x20db19(%rip),%r15        # 6163c8 <rest.5666>
  4088af:	0f 85 48 fc ff ff    	jne    4084fd <expand_symlinks+0x28d>
  4088b5:	41 80 3f 2f          	cmpb   $0x2f,(%r15)
  4088b9:	0f 85 3e fc ff ff    	jne    4084fd <expand_symlinks+0x28d>
  4088bf:	e9 1c fc ff ff       	jmpq   4084e0 <expand_symlinks+0x270>
  4088c4:	0f 1f 40 00          	nopl   0x0(%rax)
  4088c8:	48 8b 54 24 18       	mov    0x18(%rsp),%rdx
  4088cd:	31 c0                	xor    %eax,%eax
  4088cf:	be 1a f1 40 00       	mov    $0x40f11a,%esi
  4088d4:	bf 03 00 00 00       	mov    $0x3,%edi
  4088d9:	e8 12 9e ff ff       	callq  4026f0 <syslog@plt>
  4088de:	31 c0                	xor    %eax,%eax
  4088e0:	e9 5f fa ff ff       	jmpq   408344 <expand_symlinks+0xd4>
  4088e5:	4c 8b 3d dc da 20 00 	mov    0x20dadc(%rip),%r15        # 6163c8 <rest.5666>
  4088ec:	e9 1f fc ff ff       	jmpq   408510 <expand_symlinks+0x2a0>
  4088f1:	41 80 3f 2f          	cmpb   $0x2f,(%r15)
  4088f5:	0f 84 e5 fb ff ff    	je     4084e0 <expand_symlinks+0x270>
  4088fb:	e9 d8 fa ff ff       	jmpq   4083d8 <expand_symlinks+0x168>

0000000000408900 <send_dirredirect>:
  408900:	41 54                	push   %r12
  408902:	55                   	push   %rbp
  408903:	53                   	push   %rbx
  408904:	48 8b af 08 01 00 00 	mov    0x108(%rdi),%rbp
  40890b:	48 89 fb             	mov    %rdi,%rbx
  40890e:	80 7d 00 00          	cmpb   $0x0,0x0(%rbp)
  408912:	0f 84 e8 00 00 00    	je     408a00 <send_dirredirect+0x100>
  408918:	4c 8b a7 d0 00 00 00 	mov    0xd0(%rdi),%r12
  40891f:	be 3f 00 00 00       	mov    $0x3f,%esi
  408924:	4c 89 e7             	mov    %r12,%rdi
  408927:	e8 54 9b ff ff       	callq  402480 <strchr@plt>
  40892c:	48 85 c0             	test   %rax,%rax
  40892f:	74 11                	je     408942 <send_dirredirect+0x42>
  408931:	c6 00 00             	movb   $0x0,(%rax)
  408934:	4c 8b a3 d0 00 00 00 	mov    0xd0(%rbx),%r12
  40893b:	48 8b ab 08 01 00 00 	mov    0x108(%rbx),%rbp
  408942:	4c 89 e7             	mov    %r12,%rdi
  408945:	e8 d6 9a ff ff       	callq  402420 <strlen@plt>
  40894a:	48 89 ef             	mov    %rbp,%rdi
  40894d:	49 89 c4             	mov    %rax,%r12
  408950:	e8 cb 9a ff ff       	callq  402420 <strlen@plt>
  408955:	49 8d 54 04 02       	lea    0x2(%r12,%rax,1),%rdx
  40895a:	be 90 63 61 00       	mov    $0x616390,%esi
  40895f:	bf 98 63 61 00       	mov    $0x616398,%edi
  408964:	e8 b7 f1 ff ff       	callq  407b20 <httpd_realloc_str>
  408969:	48 8b 8b d0 00 00 00 	mov    0xd0(%rbx),%rcx
  408970:	4c 8b 83 08 01 00 00 	mov    0x108(%rbx),%r8
  408977:	ba 35 f1 40 00       	mov    $0x40f135,%edx
  40897c:	48 8b 35 0d da 20 00 	mov    0x20da0d(%rip),%rsi        # 616390 <maxlocation.5614>
  408983:	48 8b 3d 0e da 20 00 	mov    0x20da0e(%rip),%rdi        # 616398 <location.5612>
  40898a:	31 c0                	xor    %eax,%eax
  40898c:	e8 af e7 ff ff       	callq  407140 <my_snprintf>
  408991:	48 8b 3d 00 da 20 00 	mov    0x20da00(%rip),%rdi        # 616398 <location.5612>
  408998:	e8 83 9a ff ff       	callq  402420 <strlen@plt>
  40899d:	48 8d 50 0b          	lea    0xb(%rax),%rdx
  4089a1:	be 80 63 61 00       	mov    $0x616380,%esi
  4089a6:	bf 88 63 61 00       	mov    $0x616388,%edi
  4089ab:	e8 70 f1 ff ff       	callq  407b20 <httpd_realloc_str>
  4089b0:	4c 8b 05 e1 d9 20 00 	mov    0x20d9e1(%rip),%r8        # 616398 <location.5612>
  4089b7:	48 8b 35 c2 d9 20 00 	mov    0x20d9c2(%rip),%rsi        # 616380 <maxheader.5615>
  4089be:	b9 00 44 61 00       	mov    $0x614400,%ecx
  4089c3:	48 8b 3d be d9 20 00 	mov    0x20d9be(%rip),%rdi        # 616388 <header.5613>
  4089ca:	ba 40 f1 40 00       	mov    $0x40f140,%edx
  4089cf:	31 c0                	xor    %eax,%eax
  4089d1:	e8 6a e7 ff ff       	callq  407140 <my_snprintf>
  4089d6:	48 89 df             	mov    %rbx,%rdi
  4089d9:	4c 8b 0d b8 d9 20 00 	mov    0x20d9b8(%rip),%r9        # 616398 <location.5612>
  4089e0:	48 8b 0d a1 d9 20 00 	mov    0x20d9a1(%rip),%rcx        # 616388 <header.5613>
  4089e7:	5b                   	pop    %rbx
  4089e8:	5d                   	pop    %rbp
  4089e9:	41 5c                	pop    %r12
  4089eb:	41 b8 47 f1 40 00    	mov    $0x40f147,%r8d
  4089f1:	ba ce f5 40 00       	mov    $0x40f5ce,%edx
  4089f6:	be 2e 01 00 00       	mov    $0x12e,%esi
  4089fb:	e9 50 f7 ff ff       	jmpq   408150 <send_response>
  408a00:	48 8b bf d0 00 00 00 	mov    0xd0(%rdi),%rdi
  408a07:	e8 14 9a ff ff       	callq  402420 <strlen@plt>
  408a0c:	48 8d 50 01          	lea    0x1(%rax),%rdx
  408a10:	be 90 63 61 00       	mov    $0x616390,%esi
  408a15:	bf 98 63 61 00       	mov    $0x616398,%edi
  408a1a:	e8 01 f1 ff ff       	callq  407b20 <httpd_realloc_str>
  408a1f:	48 8b 8b d0 00 00 00 	mov    0xd0(%rbx),%rcx
  408a26:	48 8b 35 63 d9 20 00 	mov    0x20d963(%rip),%rsi        # 616390 <maxlocation.5614>
  408a2d:	ba 3c f1 40 00       	mov    $0x40f13c,%edx
  408a32:	48 8b 3d 5f d9 20 00 	mov    0x20d95f(%rip),%rdi        # 616398 <location.5612>
  408a39:	31 c0                	xor    %eax,%eax
  408a3b:	e8 00 e7 ff ff       	callq  407140 <my_snprintf>
  408a40:	e9 4c ff ff ff       	jmpq   408991 <send_dirredirect+0x91>
  408a45:	90                   	nop
  408a46:	66 2e 0f 1f 84 00 00 	nopw   %cs:0x0(%rax,%rax,1)
  408a4d:	00 00 00 

0000000000408a50 <really_check_referer>:
  408a50:	41 57                	push   %r15
  408a52:	41 56                	push   %r14
  408a54:	41 55                	push   %r13
  408a56:	41 54                	push   %r12
  408a58:	49 89 fc             	mov    %rdi,%r12
  408a5b:	55                   	push   %rbp
  408a5c:	53                   	push   %rbx
  408a5d:	48 83 ec 28          	sub    $0x28,%rsp
  408a61:	48 8b 47 08          	mov    0x8(%rdi),%rax
  408a65:	48 8b bf 10 01 00 00 	mov    0x110(%rdi),%rdi
  408a6c:	48 85 ff             	test   %rdi,%rdi
  408a6f:	48 89 44 24 08       	mov    %rax,0x8(%rsp)
  408a74:	0f 84 26 01 00 00    	je     408ba0 <really_check_referer+0x150>
  408a7a:	80 3f 00             	cmpb   $0x0,(%rdi)
  408a7d:	0f 84 1d 01 00 00    	je     408ba0 <really_check_referer+0x150>
  408a83:	be ab f2 40 00       	mov    $0x40f2ab,%esi
  408a88:	e8 d3 9e ff ff       	callq  402960 <strstr@plt>
  408a8d:	48 85 c0             	test   %rax,%rax
  408a90:	48 89 44 24 18       	mov    %rax,0x18(%rsp)
  408a95:	0f 84 05 01 00 00    	je     408ba0 <really_check_referer+0x150>
  408a9b:	48 8b 44 24 18       	mov    0x18(%rsp),%rax
  408aa0:	48 8d 58 02          	lea    0x2(%rax),%rbx
  408aa4:	0f b6 40 02          	movzbl 0x2(%rax),%eax
  408aa8:	3c 3a                	cmp    $0x3a,%al
  408aaa:	0f 86 30 01 00 00    	jbe    408be0 <really_check_referer+0x190>
  408ab0:	48 89 dd             	mov    %rbx,%rbp
  408ab3:	48 ba 01 00 00 00 00 	movabs $0x400800000000001,%rdx
  408aba:	80 00 04 
  408abd:	48 83 c5 01          	add    $0x1,%rbp
  408ac1:	0f b6 45 00          	movzbl 0x0(%rbp),%eax
  408ac5:	3c 3a                	cmp    $0x3a,%al
  408ac7:	77 f4                	ja     408abd <really_check_referer+0x6d>
  408ac9:	48 0f a3 c2          	bt     %rax,%rdx
  408acd:	73 ee                	jae    408abd <really_check_referer+0x6d>
  408acf:	48 89 ea             	mov    %rbp,%rdx
  408ad2:	be d0 62 61 00       	mov    $0x6162d0,%esi
  408ad7:	bf d8 62 61 00       	mov    $0x6162d8,%edi
  408adc:	48 29 da             	sub    %rbx,%rdx
  408adf:	e8 3c f0 ff ff       	callq  407b20 <httpd_realloc_str>
  408ae4:	48 8b 05 ed d7 20 00 	mov    0x20d7ed(%rip),%rax        # 6162d8 <refhost.6098>
  408aeb:	48 39 eb             	cmp    %rbp,%rbx
  408aee:	49 89 c7             	mov    %rax,%r15
  408af1:	48 89 44 24 10       	mov    %rax,0x10(%rsp)
  408af6:	73 60                	jae    408b58 <really_check_referer+0x108>
  408af8:	e8 93 9e ff ff       	callq  402990 <__ctype_b_loc@plt>
  408afd:	49 89 c6             	mov    %rax,%r14
  408b00:	eb 23                	jmp    408b25 <really_check_referer+0xd5>
  408b02:	66 0f 1f 44 00 00    	nopw   0x0(%rax,%rax,1)
  408b08:	e8 73 9e ff ff       	callq  402980 <__ctype_tolower_loc@plt>
  408b0d:	48 8b 00             	mov    (%rax),%rax
  408b10:	48 83 c3 01          	add    $0x1,%rbx
  408b14:	49 83 c7 01          	add    $0x1,%r15
  408b18:	42 8b 04 a8          	mov    (%rax,%r13,4),%eax
  408b1c:	41 88 47 ff          	mov    %al,-0x1(%r15)
  408b20:	48 39 dd             	cmp    %rbx,%rbp
  408b23:	74 1f                	je     408b44 <really_check_referer+0xf4>
  408b25:	4c 0f be 2b          	movsbq (%rbx),%r13
  408b29:	49 8b 36             	mov    (%r14),%rsi
  408b2c:	42 f6 44 6e 01 01    	testb  $0x1,0x1(%rsi,%r13,2)
  408b32:	75 d4                	jne    408b08 <really_check_referer+0xb8>
  408b34:	48 83 c3 01          	add    $0x1,%rbx
  408b38:	45 88 2f             	mov    %r13b,(%r15)
  408b3b:	49 83 c7 01          	add    $0x1,%r15
  408b3f:	48 39 dd             	cmp    %rbx,%rbp
  408b42:	75 e1                	jne    408b25 <really_check_referer+0xd5>
  408b44:	48 2b 6c 24 18       	sub    0x18(%rsp),%rbp
  408b49:	48 8b 44 24 10       	mov    0x10(%rsp),%rax
  408b4e:	48 8d 44 28 fe       	lea    -0x2(%rax,%rbp,1),%rax
  408b53:	48 89 44 24 10       	mov    %rax,0x10(%rsp)
  408b58:	48 8b 44 24 10       	mov    0x10(%rsp),%rax
  408b5d:	c6 00 00             	movb   $0x0,(%rax)
  408b60:	48 8b 44 24 08       	mov    0x8(%rsp),%rax
  408b65:	48 8b 78 78          	mov    0x78(%rax),%rdi
  408b69:	48 85 ff             	test   %rdi,%rdi
  408b6c:	0f 84 ae 00 00 00    	je     408c20 <really_check_referer+0x1d0>
  408b72:	48 8b 35 5f d7 20 00 	mov    0x20d75f(%rip),%rsi        # 6162d8 <refhost.6098>
  408b79:	e8 82 57 00 00       	callq  40e300 <match>
  408b7e:	85 c0                	test   %eax,%eax
  408b80:	74 2d                	je     408baf <really_check_referer+0x15f>
  408b82:	48 83 c4 28          	add    $0x28,%rsp
  408b86:	b8 01 00 00 00       	mov    $0x1,%eax
  408b8b:	5b                   	pop    %rbx
  408b8c:	5d                   	pop    %rbp
  408b8d:	41 5c                	pop    %r12
  408b8f:	41 5d                	pop    %r13
  408b91:	41 5e                	pop    %r14
  408b93:	41 5f                	pop    %r15
  408b95:	c3                   	retq   
  408b96:	66 2e 0f 1f 84 00 00 	nopw   %cs:0x0(%rax,%rax,1)
  408b9d:	00 00 00 
  408ba0:	48 8b 44 24 08       	mov    0x8(%rsp),%rax
  408ba5:	8b 88 80 00 00 00    	mov    0x80(%rax),%ecx
  408bab:	85 c9                	test   %ecx,%ecx
  408bad:	74 d3                	je     408b82 <really_check_referer+0x132>
  408baf:	48 8b 44 24 08       	mov    0x8(%rsp),%rax
  408bb4:	49 8b b4 24 e8 00 00 	mov    0xe8(%r12),%rsi
  408bbb:	00 
  408bbc:	48 8b 78 70          	mov    0x70(%rax),%rdi
  408bc0:	e8 3b 57 00 00       	callq  40e300 <match>
  408bc5:	85 c0                	test   %eax,%eax
  408bc7:	0f 94 c0             	sete   %al
  408bca:	48 83 c4 28          	add    $0x28,%rsp
  408bce:	5b                   	pop    %rbx
  408bcf:	0f b6 c0             	movzbl %al,%eax
  408bd2:	5d                   	pop    %rbp
  408bd3:	41 5c                	pop    %r12
  408bd5:	41 5d                	pop    %r13
  408bd7:	41 5e                	pop    %r14
  408bd9:	41 5f                	pop    %r15
  408bdb:	c3                   	retq   
  408bdc:	0f 1f 40 00          	nopl   0x0(%rax)
  408be0:	48 ba 01 00 00 00 00 	movabs $0x400800000000001,%rdx
  408be7:	80 00 04 
  408bea:	48 0f a3 c2          	bt     %rax,%rdx
  408bee:	0f 83 bc fe ff ff    	jae    408ab0 <really_check_referer+0x60>
  408bf4:	31 d2                	xor    %edx,%edx
  408bf6:	be d0 62 61 00       	mov    $0x6162d0,%esi
  408bfb:	bf d8 62 61 00       	mov    $0x6162d8,%edi
  408c00:	e8 1b ef ff ff       	callq  407b20 <httpd_realloc_str>
  408c05:	48 8b 05 cc d6 20 00 	mov    0x20d6cc(%rip),%rax        # 6162d8 <refhost.6098>
  408c0c:	48 89 44 24 10       	mov    %rax,0x10(%rsp)
  408c11:	e9 42 ff ff ff       	jmpq   408b58 <really_check_referer+0x108>
  408c16:	66 2e 0f 1f 84 00 00 	nopw   %cs:0x0(%rax,%rax,1)
  408c1d:	00 00 00 
  408c20:	8b 50 64             	mov    0x64(%rax),%edx
  408c23:	85 d2                	test   %edx,%edx
  408c25:	75 19                	jne    408c40 <really_check_referer+0x1f0>
  408c27:	48 8b 78 08          	mov    0x8(%rax),%rdi
  408c2b:	48 85 ff             	test   %rdi,%rdi
  408c2e:	0f 85 3e ff ff ff    	jne    408b72 <really_check_referer+0x122>
  408c34:	e9 49 ff ff ff       	jmpq   408b82 <really_check_referer+0x132>
  408c39:	0f 1f 80 00 00 00 00 	nopl   0x0(%rax)
  408c40:	49 8b bc 24 00 02 00 	mov    0x200(%r12),%rdi
  408c47:	00 
  408c48:	48 85 ff             	test   %rdi,%rdi
  408c4b:	0f 85 21 ff ff ff    	jne    408b72 <really_check_referer+0x122>
  408c51:	e9 2c ff ff ff       	jmpq   408b82 <really_check_referer+0x132>
  408c56:	66 2e 0f 1f 84 00 00 	nopw   %cs:0x0(%rax,%rax,1)
  408c5d:	00 00 00 

0000000000408c60 <figure_mime>:
  408c60:	41 57                	push   %r15
  408c62:	41 56                	push   %r14
  408c64:	41 55                	push   %r13
  408c66:	41 54                	push   %r12
  408c68:	55                   	push   %rbp
  408c69:	53                   	push   %rbx
  408c6a:	48 81 ec c8 01 00 00 	sub    $0x1c8,%rsp
  408c71:	48 8b 87 f0 00 00 00 	mov    0xf0(%rdi),%rax
  408c78:	48 c7 87 f8 01 00 00 	movq   $0x40f163,0x1f8(%rdi)
  408c7f:	63 f1 40 00 
  408c83:	48 89 7c 24 10       	mov    %rdi,0x10(%rsp)
  408c88:	48 89 c3             	mov    %rax,%rbx
  408c8b:	48 89 c7             	mov    %rax,%rdi
  408c8e:	48 89 44 24 20       	mov    %rax,0x20(%rsp)
  408c93:	e8 88 97 ff ff       	callq  402420 <strlen@plt>
  408c98:	48 8d 2c 03          	lea    (%rbx,%rax,1),%rbp
  408c9c:	48 8d 43 ff          	lea    -0x1(%rbx),%rax
  408ca0:	c7 44 24 2c 00 00 00 	movl   $0x0,0x2c(%rsp)
  408ca7:	00 
  408ca8:	48 89 44 24 18       	mov    %rax,0x18(%rsp)
  408cad:	0f 1f 00             	nopl   (%rax)
  408cb0:	48 8d 5d ff          	lea    -0x1(%rbp),%rbx
  408cb4:	48 39 5c 24 20       	cmp    %rbx,0x20(%rsp)
  408cb9:	77 29                	ja     408ce4 <figure_mime+0x84>
  408cbb:	80 7d ff 2e          	cmpb   $0x2e,-0x1(%rbp)
  408cbf:	75 18                	jne    408cd9 <figure_mime+0x79>
  408cc1:	e9 ea 00 00 00       	jmpq   408db0 <figure_mime+0x150>
  408cc6:	66 2e 0f 1f 84 00 00 	nopw   %cs:0x0(%rax,%rax,1)
  408ccd:	00 00 00 
  408cd0:	80 3b 2e             	cmpb   $0x2e,(%rbx)
  408cd3:	0f 84 d7 00 00 00    	je     408db0 <figure_mime+0x150>
  408cd9:	48 83 eb 01          	sub    $0x1,%rbx
  408cdd:	48 3b 5c 24 18       	cmp    0x18(%rsp),%rbx
  408ce2:	75 ec                	jne    408cd0 <figure_mime+0x70>
  408ce4:	48 8b 74 24 10       	mov    0x10(%rsp),%rsi
  408ce9:	48 8b 86 f8 00 00 00 	mov    0xf8(%rsi),%rax
  408cf0:	c6 00 00             	movb   $0x0,(%rax)
  408cf3:	8b 44 24 2c          	mov    0x2c(%rsp),%eax
  408cf7:	83 e8 01             	sub    $0x1,%eax
  408cfa:	83 f8 ff             	cmp    $0xffffffff,%eax
  408cfd:	0f 84 a0 01 00 00    	je     408ea3 <figure_mime+0x243>
  408d03:	48 63 d0             	movslq %eax,%rdx
  408d06:	89 c0                	mov    %eax,%eax
  408d08:	4c 8d be 90 01 00 00 	lea    0x190(%rsi),%r15
  408d0f:	48 8d 6c 94 30       	lea    0x30(%rsp,%rdx,4),%rbp
  408d14:	48 81 c6 f8 00 00 00 	add    $0xf8,%rsi
  408d1b:	48 29 c2             	sub    %rax,%rdx
  408d1e:	48 89 74 24 08       	mov    %rsi,0x8(%rsp)
  408d23:	4c 8d 74 94 2c       	lea    0x2c(%rsp,%rdx,4),%r14
  408d28:	45 31 e4             	xor    %r12d,%r12d
  408d2b:	eb 2a                	jmp    408d57 <figure_mime+0xf7>
  408d2d:	0f 1f 00             	nopl   (%rax)
  408d30:	48 c1 e3 05          	shl    $0x5,%rbx
  408d34:	4c 01 e7             	add    %r12,%rdi
  408d37:	48 83 ed 04          	sub    $0x4,%rbp
  408d3b:	48 8b b3 f0 5b 61 00 	mov    0x615bf0(%rbx),%rsi
  408d42:	e8 d9 95 ff ff       	callq  402320 <strcpy@plt>
  408d47:	4c 03 a3 f8 5b 61 00 	add    0x615bf8(%rbx),%r12
  408d4e:	49 39 ee             	cmp    %rbp,%r14
  408d51:	0f 84 4c 01 00 00    	je     408ea3 <figure_mime+0x243>
  408d57:	48 63 5d 00          	movslq 0x0(%rbp),%rbx
  408d5b:	4d 8d 6c 24 01       	lea    0x1(%r12),%r13
  408d60:	48 8b 7c 24 08       	mov    0x8(%rsp),%rdi
  408d65:	4c 89 fe             	mov    %r15,%rsi
  408d68:	4c 89 e8             	mov    %r13,%rax
  408d6b:	48 89 da             	mov    %rbx,%rdx
  408d6e:	48 c1 e2 05          	shl    $0x5,%rdx
  408d72:	48 03 82 f8 5b 61 00 	add    0x615bf8(%rdx),%rax
  408d79:	48 89 c2             	mov    %rax,%rdx
  408d7c:	e8 9f ed ff ff       	callq  407b20 <httpd_realloc_str>
  408d81:	48 8b 44 24 10       	mov    0x10(%rsp),%rax
  408d86:	48 8b b8 f8 00 00 00 	mov    0xf8(%rax),%rdi
  408d8d:	80 3f 00             	cmpb   $0x0,(%rdi)
  408d90:	74 9e                	je     408d30 <figure_mime+0xd0>
  408d92:	ba 2c 00 00 00       	mov    $0x2c,%edx
  408d97:	66 42 89 14 27       	mov    %dx,(%rdi,%r12,1)
  408d9c:	4d 89 ec             	mov    %r13,%r12
  408d9f:	48 8b b8 f8 00 00 00 	mov    0xf8(%rax),%rdi
  408da6:	eb 88                	jmp    408d30 <figure_mime+0xd0>
  408da8:	0f 1f 84 00 00 00 00 	nopl   0x0(%rax,%rax,1)
  408daf:	00 
  408db0:	48 8d 43 01          	lea    0x1(%rbx),%rax
  408db4:	41 bc e0 5b 61 00    	mov    $0x615be0,%r12d
  408dba:	31 c9                	xor    %ecx,%ecx
  408dbc:	48 89 44 24 08       	mov    %rax,0x8(%rsp)
  408dc1:	48 29 c5             	sub    %rax,%rbp
  408dc4:	49 3b 6c 24 08       	cmp    0x8(%r12),%rbp
  408dc9:	0f 84 91 00 00 00    	je     408e60 <figure_mime+0x200>
  408dcf:	83 c1 01             	add    $0x1,%ecx
  408dd2:	49 83 c4 20          	add    $0x20,%r12
  408dd6:	83 f9 04             	cmp    $0x4,%ecx
  408dd9:	75 e9                	jne    408dc4 <figure_mime+0x164>
  408ddb:	45 31 ed             	xor    %r13d,%r13d
  408dde:	41 bf bd 00 00 00    	mov    $0xbd,%r15d
  408de4:	eb 15                	jmp    408dfb <figure_mime+0x19b>
  408de6:	66 2e 0f 1f 84 00 00 	nopw   %cs:0x0(%rax,%rax,1)
  408ded:	00 00 00 
  408df0:	74 4e                	je     408e40 <figure_mime+0x1e0>
  408df2:	45 8d 6e 01          	lea    0x1(%r14),%r13d
  408df6:	45 39 fd             	cmp    %r15d,%r13d
  408df9:	7f 38                	jg     408e33 <figure_mime+0x1d3>
  408dfb:	43 8d 0c 2f          	lea    (%r15,%r13,1),%ecx
  408dff:	48 8b 7c 24 08       	mov    0x8(%rsp),%rdi
  408e04:	48 89 ea             	mov    %rbp,%rdx
  408e07:	d1 f9                	sar    %ecx
  408e09:	48 63 c1             	movslq %ecx,%rax
  408e0c:	49 89 c6             	mov    %rax,%r14
  408e0f:	48 c1 e0 05          	shl    $0x5,%rax
  408e13:	48 8b b0 20 44 61 00 	mov    0x614420(%rax),%rsi
  408e1a:	4c 8d a0 20 44 61 00 	lea    0x614420(%rax),%r12
  408e21:	e8 8a 98 ff ff       	callq  4026b0 <strncasecmp@plt>
  408e26:	85 c0                	test   %eax,%eax
  408e28:	79 c6                	jns    408df0 <figure_mime+0x190>
  408e2a:	45 8d 7e ff          	lea    -0x1(%r14),%r15d
  408e2e:	45 39 fd             	cmp    %r15d,%r13d
  408e31:	7e c8                	jle    408dfb <figure_mime+0x19b>
  408e33:	48 89 dd             	mov    %rbx,%rbp
  408e36:	e9 75 fe ff ff       	jmpq   408cb0 <figure_mime+0x50>
  408e3b:	0f 1f 44 00 00       	nopl   0x0(%rax,%rax,1)
  408e40:	49 3b 6c 24 08       	cmp    0x8(%r12),%rbp
  408e45:	72 e3                	jb     408e2a <figure_mime+0x1ca>
  408e47:	77 a9                	ja     408df2 <figure_mime+0x192>
  408e49:	49 8b 44 24 10       	mov    0x10(%r12),%rax
  408e4e:	48 8b 74 24 10       	mov    0x10(%rsp),%rsi
  408e53:	48 89 86 f8 01 00 00 	mov    %rax,0x1f8(%rsi)
  408e5a:	e9 85 fe ff ff       	jmpq   408ce4 <figure_mime+0x84>
  408e5f:	90                   	nop
  408e60:	49 8b 34 24          	mov    (%r12),%rsi
  408e64:	48 8b 7c 24 08       	mov    0x8(%rsp),%rdi
  408e69:	48 89 ea             	mov    %rbp,%rdx
  408e6c:	89 4c 24 28          	mov    %ecx,0x28(%rsp)
  408e70:	e8 3b 98 ff ff       	callq  4026b0 <strncasecmp@plt>
  408e75:	85 c0                	test   %eax,%eax
  408e77:	8b 4c 24 28          	mov    0x28(%rsp),%ecx
  408e7b:	0f 85 4e ff ff ff    	jne    408dcf <figure_mime+0x16f>
  408e81:	8b 74 24 2c          	mov    0x2c(%rsp),%esi
  408e85:	48 63 c6             	movslq %esi,%rax
  408e88:	83 f8 63             	cmp    $0x63,%eax
  408e8b:	0f 8f 4a ff ff ff    	jg     408ddb <figure_mime+0x17b>
  408e91:	89 4c 84 30          	mov    %ecx,0x30(%rsp,%rax,4)
  408e95:	89 f0                	mov    %esi,%eax
  408e97:	83 c0 01             	add    $0x1,%eax
  408e9a:	89 44 24 2c          	mov    %eax,0x2c(%rsp)
  408e9e:	e9 38 ff ff ff       	jmpq   408ddb <figure_mime+0x17b>
  408ea3:	48 81 c4 c8 01 00 00 	add    $0x1c8,%rsp
  408eaa:	5b                   	pop    %rbx
  408eab:	5d                   	pop    %rbp
  408eac:	41 5c                	pop    %r12
  408eae:	41 5d                	pop    %r13
  408eb0:	41 5e                	pop    %r14
  408eb2:	41 5f                	pop    %r15
  408eb4:	c3                   	retq   
  408eb5:	90                   	nop
  408eb6:	66 2e 0f 1f 84 00 00 	nopw   %cs:0x0(%rax,%rax,1)
  408ebd:	00 00 00 

0000000000408ec0 <httpd_send_err>:
  408ec0:	41 57                	push   %r15
  408ec2:	41 56                	push   %r14
  408ec4:	4d 89 cf             	mov    %r9,%r15
  408ec7:	41 55                	push   %r13
  408ec9:	41 54                	push   %r12
  408ecb:	49 89 cd             	mov    %rcx,%r13
  408ece:	55                   	push   %rbp
  408ecf:	53                   	push   %rbx
  408ed0:	89 f5                	mov    %esi,%ebp
  408ed2:	48 89 fb             	mov    %rdi,%rbx
  408ed5:	49 89 d4             	mov    %rdx,%r12
  408ed8:	48 81 ec 08 04 00 00 	sub    $0x408,%rsp
  408edf:	48 8b 47 08          	mov    0x8(%rdi),%rax
  408ee3:	4c 89 44 24 08       	mov    %r8,0x8(%rsp)
  408ee8:	8b 40 64             	mov    0x64(%rax),%eax
  408eeb:	85 c0                	test   %eax,%eax
  408eed:	74 59                	je     408f48 <httpd_send_err+0x88>
  408eef:	48 8b 8f 58 01 00 00 	mov    0x158(%rdi),%rcx
  408ef6:	4c 8d 74 24 10       	lea    0x10(%rsp),%r14
  408efb:	80 39 00             	cmpb   $0x0,(%rcx)
  408efe:	75 50                	jne    408f50 <httpd_send_err+0x90>
  408f00:	41 89 e8             	mov    %ebp,%r8d
  408f03:	b9 7c f1 40 00       	mov    $0x40f17c,%ecx
  408f08:	ba 86 f1 40 00       	mov    $0x40f186,%edx
  408f0d:	be e8 03 00 00       	mov    $0x3e8,%esi
  408f12:	4c 89 f7             	mov    %r14,%rdi
  408f15:	31 c0                	xor    %eax,%eax
  408f17:	e8 24 e2 ff ff       	callq  407140 <my_snprintf>
  408f1c:	4d 89 f0             	mov    %r14,%r8
  408f1f:	4c 89 e9             	mov    %r13,%rcx
  408f22:	4c 89 e2             	mov    %r12,%rdx
  408f25:	89 ee                	mov    %ebp,%esi
  408f27:	48 89 df             	mov    %rbx,%rdi
  408f2a:	e8 71 f1 ff ff       	callq  4080a0 <send_err_file>
  408f2f:	85 c0                	test   %eax,%eax
  408f31:	74 5d                	je     408f90 <httpd_send_err+0xd0>
  408f33:	48 81 c4 08 04 00 00 	add    $0x408,%rsp
  408f3a:	5b                   	pop    %rbx
  408f3b:	5d                   	pop    %rbp
  408f3c:	41 5c                	pop    %r12
  408f3e:	41 5d                	pop    %r13
  408f40:	41 5e                	pop    %r14
  408f42:	41 5f                	pop    %r15
  408f44:	c3                   	retq   
  408f45:	0f 1f 00             	nopl   (%rax)
  408f48:	4c 8d 74 24 10       	lea    0x10(%rsp),%r14
  408f4d:	eb b1                	jmp    408f00 <httpd_send_err+0x40>
  408f4f:	90                   	nop
  408f50:	41 89 f1             	mov    %esi,%r9d
  408f53:	41 b8 7c f1 40 00    	mov    $0x40f17c,%r8d
  408f59:	ba 83 f1 40 00       	mov    $0x40f183,%edx
  408f5e:	be e8 03 00 00       	mov    $0x3e8,%esi
  408f63:	4c 89 f7             	mov    %r14,%rdi
  408f66:	31 c0                	xor    %eax,%eax
  408f68:	e8 d3 e1 ff ff       	callq  407140 <my_snprintf>
  408f6d:	4d 89 f0             	mov    %r14,%r8
  408f70:	4c 89 e9             	mov    %r13,%rcx
  408f73:	4c 89 e2             	mov    %r12,%rdx
  408f76:	89 ee                	mov    %ebp,%esi
  408f78:	48 89 df             	mov    %rbx,%rdi
  408f7b:	e8 20 f1 ff ff       	callq  4080a0 <send_err_file>
  408f80:	85 c0                	test   %eax,%eax
  408f82:	75 af                	jne    408f33 <httpd_send_err+0x73>
  408f84:	e9 77 ff ff ff       	jmpq   408f00 <httpd_send_err+0x40>
  408f89:	0f 1f 80 00 00 00 00 	nopl   0x0(%rax)
  408f90:	4c 8b 44 24 08       	mov    0x8(%rsp),%r8
  408f95:	4d 89 f9             	mov    %r15,%r9
  408f98:	4c 89 e9             	mov    %r13,%rcx
  408f9b:	4c 89 e2             	mov    %r12,%rdx
  408f9e:	89 ee                	mov    %ebp,%esi
  408fa0:	48 89 df             	mov    %rbx,%rdi
  408fa3:	e8 a8 f1 ff ff       	callq  408150 <send_response>
  408fa8:	eb 89                	jmp    408f33 <httpd_send_err+0x73>
  408faa:	66 0f 1f 44 00 00    	nopw   0x0(%rax,%rax,1)

0000000000408fb0 <send_authenticate>:
  408fb0:	55                   	push   %rbp
  408fb1:	53                   	push   %rbx
  408fb2:	48 89 fb             	mov    %rdi,%rbx
  408fb5:	48 89 f7             	mov    %rsi,%rdi
  408fb8:	48 89 f5             	mov    %rsi,%rbp
  408fbb:	48 83 ec 08          	sub    $0x8,%rsp
  408fbf:	e8 5c 94 ff ff       	callq  402420 <strlen@plt>
  408fc4:	48 8d 50 23          	lea    0x23(%rax),%rdx
  408fc8:	be e0 62 61 00       	mov    $0x6162e0,%esi
  408fcd:	bf e8 62 61 00       	mov    $0x6162e8,%edi
  408fd2:	e8 49 eb ff ff       	callq  407b20 <httpd_realloc_str>
  408fd7:	48 8b 35 02 d3 20 00 	mov    0x20d302(%rip),%rsi        # 6162e0 <maxheader.5555>
  408fde:	48 8b 3d 03 d3 20 00 	mov    0x20d303(%rip),%rdi        # 6162e8 <header.5554>
  408fe5:	49 89 e8             	mov    %rbp,%r8
  408fe8:	b9 e0 43 61 00       	mov    $0x6143e0,%ecx
  408fed:	ba 94 f1 40 00       	mov    $0x40f194,%edx
  408ff2:	31 c0                	xor    %eax,%eax
  408ff4:	e8 47 e1 ff ff       	callq  407140 <my_snprintf>
  408ff9:	4c 8b 8b d0 00 00 00 	mov    0xd0(%rbx),%r9
  409000:	48 8b 0d e1 d2 20 00 	mov    0x20d2e1(%rip),%rcx        # 6162e8 <header.5554>
  409007:	41 b8 60 04 41 00    	mov    $0x410460,%r8d
  40900d:	ba 9c f1 40 00       	mov    $0x40f19c,%edx
  409012:	be 91 01 00 00       	mov    $0x191,%esi
  409017:	48 89 df             	mov    %rbx,%rdi
  40901a:	e8 a1 fe ff ff       	callq  408ec0 <httpd_send_err>
  40901f:	83 bb b4 00 00 00 03 	cmpl   $0x3,0xb4(%rbx)
  409026:	75 0a                	jne    409032 <send_authenticate+0x82>
  409028:	c7 83 2c 02 00 00 01 	movl   $0x1,0x22c(%rbx)
  40902f:	00 00 00 
  409032:	48 83 c4 08          	add    $0x8,%rsp
  409036:	5b                   	pop    %rbx
  409037:	5d                   	pop    %rbp
  409038:	c3                   	retq   
  409039:	0f 1f 80 00 00 00 00 	nopl   0x0(%rax)

0000000000409040 <httpd_method_str>:
  409040:	83 ef 01             	sub    $0x1,%edi
  409043:	b8 a9 f1 40 00       	mov    $0x40f1a9,%eax
  409048:	83 ff 02             	cmp    $0x2,%edi
  40904b:	77 08                	ja     409055 <httpd_method_str+0x15>
  40904d:	48 8b 04 fd a0 11 41 	mov    0x4111a0(,%rdi,8),%rax
  409054:	00 
  409055:	f3 c3                	repz retq 
  409057:	66 0f 1f 84 00 00 00 	nopw   0x0(%rax,%rax,1)
  40905e:	00 00 

0000000000409060 <httpd_get_conn>:
  409060:	41 54                	push   %r12
  409062:	55                   	push   %rbp
  409063:	49 89 fc             	mov    %rdi,%r12
  409066:	53                   	push   %rbx
  409067:	89 f5                	mov    %esi,%ebp
  409069:	48 89 d3             	mov    %rdx,%rbx
  40906c:	48 81 ec 90 00 00 00 	sub    $0x90,%rsp
  409073:	8b 02                	mov    (%rdx),%eax
  409075:	85 c0                	test   %eax,%eax
  409077:	0f 84 ab 02 00 00    	je     409328 <httpd_get_conn+0x2c8>
  40907d:	48 8d 54 24 0c       	lea    0xc(%rsp),%rdx
  409082:	48 8d 74 24 10       	lea    0x10(%rsp),%rsi
  409087:	89 ef                	mov    %ebp,%edi
  409089:	c7 44 24 0c 80 00 00 	movl   $0x80,0xc(%rsp)
  409090:	00 
  409091:	e8 ca 97 ff ff       	callq  402860 <accept@plt>
  409096:	85 c0                	test   %eax,%eax
  409098:	89 c1                	mov    %eax,%ecx
  40909a:	89 83 c0 02 00 00    	mov    %eax,0x2c0(%rbx)
  4090a0:	0f 88 3a 04 00 00    	js     4094e0 <httpd_get_conn+0x480>
  4090a6:	0f b7 7c 24 10       	movzwl 0x10(%rsp),%edi
  4090ab:	e8 90 e4 ff ff       	callq  407540 <sockaddr_check.isra.0>
  4090b0:	85 c0                	test   %eax,%eax
  4090b2:	89 c5                	mov    %eax,%ebp
  4090b4:	0f 84 36 02 00 00    	je     4092f0 <httpd_get_conn+0x290>
  4090ba:	ba 01 00 00 00       	mov    $0x1,%edx
  4090bf:	be 02 00 00 00       	mov    $0x2,%esi
  4090c4:	89 cf                	mov    %ecx,%edi
  4090c6:	31 c0                	xor    %eax,%eax
  4090c8:	bd 01 00 00 00       	mov    $0x1,%ebp
  4090cd:	e8 de 92 ff ff       	callq  4023b0 <fcntl@plt>
  4090d2:	4c 8d 43 10          	lea    0x10(%rbx),%r8
  4090d6:	48 8d 7b 18          	lea    0x18(%rbx),%rdi
  4090da:	31 c0                	xor    %eax,%eax
  4090dc:	4c 89 63 08          	mov    %r12,0x8(%rbx)
  4090e0:	48 c7 43 10 00 00 00 	movq   $0x0,0x10(%rbx)
  4090e7:	00 
  4090e8:	4c 89 c1             	mov    %r8,%rcx
  4090eb:	48 83 e7 f8          	and    $0xfffffffffffffff8,%rdi
  4090ef:	48 c7 83 88 00 00 00 	movq   $0x0,0x88(%rbx)
  4090f6:	00 00 00 00 
  4090fa:	48 29 f9             	sub    %rdi,%rcx
  4090fd:	83 e9 80             	sub    $0xffffff80,%ecx
  409100:	c1 e9 03             	shr    $0x3,%ecx
  409103:	f3 48 ab             	rep stos %rax,%es:(%rdi)
  409106:	0f b7 7c 24 10       	movzwl 0x10(%rsp),%edi
  40910b:	e8 50 e4 ff ff       	callq  407560 <sockaddr_len.isra.1>
  409110:	48 8d 74 24 10       	lea    0x10(%rsp),%rsi
  409115:	48 89 c2             	mov    %rax,%rdx
  409118:	4c 89 c7             	mov    %r8,%rdi
  40911b:	e8 f0 94 ff ff       	callq  402610 <memcpy@plt>
  409120:	48 8b 83 d8 00 00 00 	mov    0xd8(%rbx),%rax
  409127:	48 c7 83 a0 00 00 00 	movq   $0x0,0xa0(%rbx)
  40912e:	00 00 00 00 
  409132:	48 c7 83 a8 00 00 00 	movq   $0x0,0xa8(%rbx)
  409139:	00 00 00 00 
  40913d:	c7 83 b0 00 00 00 00 	movl   $0x0,0xb0(%rbx)
  409144:	00 00 00 
  409147:	c7 83 b4 00 00 00 00 	movl   $0x0,0xb4(%rbx)
  40914e:	00 00 00 
  409151:	c7 83 b8 00 00 00 00 	movl   $0x0,0xb8(%rbx)
  409158:	00 00 00 
  40915b:	48 c7 83 c0 00 00 00 	movq   $0x0,0xc0(%rbx)
  409162:	00 00 00 00 
  409166:	48 c7 83 c8 00 00 00 	movq   $0x0,0xc8(%rbx)
  40916d:	00 00 00 00 
  409171:	48 c7 83 d0 00 00 00 	movq   $0x40f2c9,0xd0(%rbx)
  409178:	c9 f2 40 00 
  40917c:	c6 00 00             	movb   $0x0,(%rax)
  40917f:	48 8b 83 e8 00 00 00 	mov    0xe8(%rbx),%rax
  409186:	48 c7 83 e0 00 00 00 	movq   $0x40f1a9,0xe0(%rbx)
  40918d:	a9 f1 40 00 
  409191:	c6 00 00             	movb   $0x0,(%rax)
  409194:	48 8b 83 f0 00 00 00 	mov    0xf0(%rbx),%rax
  40919b:	c6 00 00             	movb   $0x0,(%rax)
  40919e:	48 8b 83 f8 00 00 00 	mov    0xf8(%rbx),%rax
  4091a5:	c6 00 00             	movb   $0x0,(%rax)
  4091a8:	48 8b 83 00 01 00 00 	mov    0x100(%rbx),%rax
  4091af:	c6 00 00             	movb   $0x0,(%rax)
  4091b2:	48 8b 83 08 01 00 00 	mov    0x108(%rbx),%rax
  4091b9:	c6 00 00             	movb   $0x0,(%rax)
  4091bc:	48 8b 83 20 01 00 00 	mov    0x120(%rbx),%rax
  4091c3:	48 c7 83 10 01 00 00 	movq   $0x40f2c9,0x110(%rbx)
  4091ca:	c9 f2 40 00 
  4091ce:	48 c7 83 18 01 00 00 	movq   $0x40f2c9,0x118(%rbx)
  4091d5:	c9 f2 40 00 
  4091d9:	c6 00 00             	movb   $0x0,(%rax)
  4091dc:	48 8b 83 28 01 00 00 	mov    0x128(%rbx),%rax
  4091e3:	c6 00 00             	movb   $0x0,(%rax)
  4091e6:	48 8b 83 48 01 00 00 	mov    0x148(%rbx),%rax
  4091ed:	48 c7 83 30 01 00 00 	movq   $0x40f2c9,0x130(%rbx)
  4091f4:	c9 f2 40 00 
  4091f8:	48 c7 83 38 01 00 00 	movq   $0x40f2c9,0x138(%rbx)
  4091ff:	c9 f2 40 00 
  409203:	48 c7 83 40 01 00 00 	movq   $0x40f2c9,0x140(%rbx)
  40920a:	c9 f2 40 00 
  40920e:	c6 00 00             	movb   $0x0,(%rax)
  409211:	48 c7 83 50 01 00 00 	movq   $0x40f2c9,0x150(%rbx)
  409218:	c9 f2 40 00 
  40921c:	48 8b 83 58 01 00 00 	mov    0x158(%rbx),%rax
  409223:	c6 00 00             	movb   $0x0,(%rax)
  409226:	48 8b 83 68 01 00 00 	mov    0x168(%rbx),%rax
  40922d:	48 c7 83 60 01 00 00 	movq   $0x40f2c9,0x160(%rbx)
  409234:	c9 f2 40 00 
  409238:	c6 00 00             	movb   $0x0,(%rax)
  40923b:	48 8b 83 70 01 00 00 	mov    0x170(%rbx),%rax
  409242:	c6 00 00             	movb   $0x0,(%rax)
  409245:	48 c7 c0 ff ff ff ff 	mov    $0xffffffffffffffff,%rax
  40924c:	48 c7 83 d8 01 00 00 	movq   $0x0,0x1d8(%rbx)
  409253:	00 00 00 00 
  409257:	48 89 83 e0 01 00 00 	mov    %rax,0x1e0(%rbx)
  40925e:	48 89 83 e8 01 00 00 	mov    %rax,0x1e8(%rbx)
  409265:	48 89 83 f0 01 00 00 	mov    %rax,0x1f0(%rbx)
  40926c:	48 c7 83 f8 01 00 00 	movq   $0x40f2c9,0x1f8(%rbx)
  409273:	c9 f2 40 00 
  409277:	48 c7 83 00 02 00 00 	movq   $0x0,0x200(%rbx)
  40927e:	00 00 00 00 
  409282:	c7 83 08 02 00 00 01 	movl   $0x1,0x208(%rbx)
  409289:	00 00 00 
  40928c:	c7 83 0c 02 00 00 00 	movl   $0x0,0x20c(%rbx)
  409293:	00 00 00 
  409296:	c7 83 10 02 00 00 00 	movl   $0x0,0x210(%rbx)
  40929d:	00 00 00 
  4092a0:	c7 83 14 02 00 00 00 	movl   $0x0,0x214(%rbx)
  4092a7:	00 00 00 
  4092aa:	48 c7 83 18 02 00 00 	movq   $0x0,0x218(%rbx)
  4092b1:	00 00 00 00 
  4092b5:	48 89 83 20 02 00 00 	mov    %rax,0x220(%rbx)
  4092bc:	c7 83 28 02 00 00 00 	movl   $0x0,0x228(%rbx)
  4092c3:	00 00 00 
  4092c6:	c7 83 2c 02 00 00 00 	movl   $0x0,0x22c(%rbx)
  4092cd:	00 00 00 
  4092d0:	48 c7 83 c8 02 00 00 	movq   $0x0,0x2c8(%rbx)
  4092d7:	00 00 00 00 
  4092db:	48 81 c4 90 00 00 00 	add    $0x90,%rsp
  4092e2:	89 e8                	mov    %ebp,%eax
  4092e4:	5b                   	pop    %rbx
  4092e5:	5d                   	pop    %rbp
  4092e6:	41 5c                	pop    %r12
  4092e8:	c3                   	retq   
  4092e9:	0f 1f 80 00 00 00 00 	nopl   0x0(%rax)
  4092f0:	be bd f1 40 00       	mov    $0x40f1bd,%esi
  4092f5:	bf 03 00 00 00       	mov    $0x3,%edi
  4092fa:	31 c0                	xor    %eax,%eax
  4092fc:	e8 ef 93 ff ff       	callq  4026f0 <syslog@plt>
  409301:	8b bb c0 02 00 00    	mov    0x2c0(%rbx),%edi
  409307:	e8 e4 91 ff ff       	callq  4024f0 <close@plt>
  40930c:	c7 83 c0 02 00 00 ff 	movl   $0xffffffff,0x2c0(%rbx)
  409313:	ff ff ff 
  409316:	48 81 c4 90 00 00 00 	add    $0x90,%rsp
  40931d:	89 e8                	mov    %ebp,%eax
  40931f:	5b                   	pop    %rbx
  409320:	5d                   	pop    %rbp
  409321:	41 5c                	pop    %r12
  409323:	c3                   	retq   
  409324:	0f 1f 40 00          	nopl   0x0(%rax)
  409328:	48 8d b2 98 00 00 00 	lea    0x98(%rdx),%rsi
  40932f:	48 8d ba 90 00 00 00 	lea    0x90(%rdx),%rdi
  409336:	48 c7 82 98 00 00 00 	movq   $0x0,0x98(%rdx)
  40933d:	00 00 00 00 
  409341:	ba f4 01 00 00       	mov    $0x1f4,%edx
  409346:	e8 d5 e7 ff ff       	callq  407b20 <httpd_realloc_str>
  40934b:	48 8d b3 78 01 00 00 	lea    0x178(%rbx),%rsi
  409352:	48 8d bb d8 00 00 00 	lea    0xd8(%rbx),%rdi
  409359:	ba 01 00 00 00       	mov    $0x1,%edx
  40935e:	48 c7 83 d0 01 00 00 	movq   $0x0,0x1d0(%rbx)
  409365:	00 00 00 00 
  409369:	48 c7 83 c8 01 00 00 	movq   $0x0,0x1c8(%rbx)
  409370:	00 00 00 00 
  409374:	48 c7 83 c0 01 00 00 	movq   $0x0,0x1c0(%rbx)
  40937b:	00 00 00 00 
  40937f:	48 c7 83 b8 01 00 00 	movq   $0x0,0x1b8(%rbx)
  409386:	00 00 00 00 
  40938a:	48 c7 83 b0 01 00 00 	movq   $0x0,0x1b0(%rbx)
  409391:	00 00 00 00 
  409395:	48 c7 83 a8 01 00 00 	movq   $0x0,0x1a8(%rbx)
  40939c:	00 00 00 00 
  4093a0:	48 c7 83 a0 01 00 00 	movq   $0x0,0x1a0(%rbx)
  4093a7:	00 00 00 00 
  4093ab:	48 c7 83 98 01 00 00 	movq   $0x0,0x198(%rbx)
  4093b2:	00 00 00 00 
  4093b6:	48 c7 83 90 01 00 00 	movq   $0x0,0x190(%rbx)
  4093bd:	00 00 00 00 
  4093c1:	48 c7 83 88 01 00 00 	movq   $0x0,0x188(%rbx)
  4093c8:	00 00 00 00 
  4093cc:	48 c7 83 80 01 00 00 	movq   $0x0,0x180(%rbx)
  4093d3:	00 00 00 00 
  4093d7:	48 c7 83 78 01 00 00 	movq   $0x0,0x178(%rbx)
  4093de:	00 00 00 00 
  4093e2:	e8 39 e7 ff ff       	callq  407b20 <httpd_realloc_str>
  4093e7:	48 8d b3 80 01 00 00 	lea    0x180(%rbx),%rsi
  4093ee:	48 8d bb e8 00 00 00 	lea    0xe8(%rbx),%rdi
  4093f5:	ba 01 00 00 00       	mov    $0x1,%edx
  4093fa:	e8 21 e7 ff ff       	callq  407b20 <httpd_realloc_str>
  4093ff:	48 8d b3 88 01 00 00 	lea    0x188(%rbx),%rsi
  409406:	48 8d bb f0 00 00 00 	lea    0xf0(%rbx),%rdi
  40940d:	31 d2                	xor    %edx,%edx
  40940f:	e8 0c e7 ff ff       	callq  407b20 <httpd_realloc_str>
  409414:	48 8d b3 90 01 00 00 	lea    0x190(%rbx),%rsi
  40941b:	48 8d bb f8 00 00 00 	lea    0xf8(%rbx),%rdi
  409422:	31 d2                	xor    %edx,%edx
  409424:	e8 f7 e6 ff ff       	callq  407b20 <httpd_realloc_str>
  409429:	48 8d b3 98 01 00 00 	lea    0x198(%rbx),%rsi
  409430:	48 8d bb 00 01 00 00 	lea    0x100(%rbx),%rdi
  409437:	31 d2                	xor    %edx,%edx
  409439:	e8 e2 e6 ff ff       	callq  407b20 <httpd_realloc_str>
  40943e:	48 8d b3 a0 01 00 00 	lea    0x1a0(%rbx),%rsi
  409445:	48 8d bb 08 01 00 00 	lea    0x108(%rbx),%rdi
  40944c:	31 d2                	xor    %edx,%edx
  40944e:	e8 cd e6 ff ff       	callq  407b20 <httpd_realloc_str>
  409453:	48 8d b3 a8 01 00 00 	lea    0x1a8(%rbx),%rsi
  40945a:	48 8d bb 20 01 00 00 	lea    0x120(%rbx),%rdi
  409461:	31 d2                	xor    %edx,%edx
  409463:	e8 b8 e6 ff ff       	callq  407b20 <httpd_realloc_str>
  409468:	48 8d b3 b0 01 00 00 	lea    0x1b0(%rbx),%rsi
  40946f:	48 8d bb 28 01 00 00 	lea    0x128(%rbx),%rdi
  409476:	31 d2                	xor    %edx,%edx
  409478:	e8 a3 e6 ff ff       	callq  407b20 <httpd_realloc_str>
  40947d:	48 8d b3 b8 01 00 00 	lea    0x1b8(%rbx),%rsi
  409484:	48 8d bb 48 01 00 00 	lea    0x148(%rbx),%rdi
  40948b:	31 d2                	xor    %edx,%edx
  40948d:	e8 8e e6 ff ff       	callq  407b20 <httpd_realloc_str>
  409492:	48 8d b3 c0 01 00 00 	lea    0x1c0(%rbx),%rsi
  409499:	48 8d bb 58 01 00 00 	lea    0x158(%rbx),%rdi
  4094a0:	31 d2                	xor    %edx,%edx
  4094a2:	e8 79 e6 ff ff       	callq  407b20 <httpd_realloc_str>
  4094a7:	48 8d b3 c8 01 00 00 	lea    0x1c8(%rbx),%rsi
  4094ae:	48 8d bb 68 01 00 00 	lea    0x168(%rbx),%rdi
  4094b5:	31 d2                	xor    %edx,%edx
  4094b7:	e8 64 e6 ff ff       	callq  407b20 <httpd_realloc_str>
  4094bc:	48 8d b3 d0 01 00 00 	lea    0x1d0(%rbx),%rsi
  4094c3:	48 8d bb 70 01 00 00 	lea    0x170(%rbx),%rdi
  4094ca:	31 d2                	xor    %edx,%edx
  4094cc:	e8 4f e6 ff ff       	callq  407b20 <httpd_realloc_str>
  4094d1:	c7 03 01 00 00 00    	movl   $0x1,(%rbx)
  4094d7:	e9 a1 fb ff ff       	jmpq   40907d <httpd_get_conn+0x1d>
  4094dc:	0f 1f 40 00          	nopl   0x0(%rax)
  4094e0:	e8 0b 8e ff ff       	callq  4022f0 <__errno_location@plt>
  4094e5:	83 38 0b             	cmpl   $0xb,(%rax)
  4094e8:	bd 02 00 00 00       	mov    $0x2,%ebp
  4094ed:	0f 84 e8 fd ff ff    	je     4092db <httpd_get_conn+0x27b>
  4094f3:	be b1 f1 40 00       	mov    $0x40f1b1,%esi
  4094f8:	bf 03 00 00 00       	mov    $0x3,%edi
  4094fd:	31 c0                	xor    %eax,%eax
  4094ff:	e8 ec 91 ff ff       	callq  4026f0 <syslog@plt>
  409504:	31 ed                	xor    %ebp,%ebp
  409506:	e9 d0 fd ff ff       	jmpq   4092db <httpd_get_conn+0x27b>
  40950b:	0f 1f 44 00 00       	nopl   0x0(%rax,%rax,1)

0000000000409510 <httpd_got_request>:
  409510:	48 8b 87 a8 00 00 00 	mov    0xa8(%rdi),%rax
  409517:	48 8b b7 a0 00 00 00 	mov    0xa0(%rdi),%rsi
  40951e:	48 39 c6             	cmp    %rax,%rsi
  409521:	76 51                	jbe    409574 <httpd_got_request+0x64>
  409523:	4c 8b 87 90 00 00 00 	mov    0x90(%rdi),%r8
  40952a:	83 bf b0 00 00 00 0b 	cmpl   $0xb,0xb0(%rdi)
  409531:	41 0f b6 14 00       	movzbl (%r8,%rax,1),%edx
  409536:	77 2c                	ja     409564 <httpd_got_request+0x54>
  409538:	8b 8f b0 00 00 00    	mov    0xb0(%rdi),%ecx
  40953e:	ff 24 cd 40 11 41 00 	jmpq   *0x411140(,%rcx,8)
  409545:	0f 1f 00             	nopl   (%rax)
  409548:	80 fa 0a             	cmp    $0xa,%dl
  40954b:	0f 84 1f 02 00 00    	je     409770 <httpd_got_request+0x260>
  409551:	80 fa 0d             	cmp    $0xd,%dl
  409554:	0f 84 16 02 00 00    	je     409770 <httpd_got_request+0x260>
  40955a:	c7 87 b0 00 00 00 06 	movl   $0x6,0xb0(%rdi)
  409561:	00 00 00 
  409564:	48 83 c0 01          	add    $0x1,%rax
  409568:	48 39 f0             	cmp    %rsi,%rax
  40956b:	48 89 87 a8 00 00 00 	mov    %rax,0xa8(%rdi)
  409572:	75 b6                	jne    40952a <httpd_got_request+0x1a>
  409574:	31 c0                	xor    %eax,%eax
  409576:	c3                   	retq   
  409577:	66 0f 1f 84 00 00 00 	nopw   0x0(%rax,%rax,1)
  40957e:	00 00 
  409580:	b8 02 00 00 00       	mov    $0x2,%eax
  409585:	c3                   	retq   
  409586:	66 2e 0f 1f 84 00 00 	nopw   %cs:0x0(%rax,%rax,1)
  40958d:	00 00 00 
  409590:	80 fa 0a             	cmp    $0xa,%dl
  409593:	0f 84 d7 01 00 00    	je     409770 <httpd_got_request+0x260>
  409599:	80 fa 0d             	cmp    $0xd,%dl
  40959c:	0f 94 c2             	sete   %dl
  40959f:	48 83 c0 01          	add    $0x1,%rax
  4095a3:	0f b6 d2             	movzbl %dl,%edx
  4095a6:	48 39 f0             	cmp    %rsi,%rax
  4095a9:	48 89 87 a8 00 00 00 	mov    %rax,0xa8(%rdi)
  4095b0:	8d 14 95 06 00 00 00 	lea    0x6(,%rdx,4),%edx
  4095b7:	89 97 b0 00 00 00    	mov    %edx,0xb0(%rdi)
  4095bd:	0f 85 67 ff ff ff    	jne    40952a <httpd_got_request+0x1a>
  4095c3:	eb af                	jmp    409574 <httpd_got_request+0x64>
  4095c5:	0f 1f 00             	nopl   (%rax)
  4095c8:	80 fa 0a             	cmp    $0xa,%dl
  4095cb:	75 84                	jne    409551 <httpd_got_request+0x41>
  4095cd:	c7 87 b0 00 00 00 09 	movl   $0x9,0xb0(%rdi)
  4095d4:	00 00 00 
  4095d7:	eb 8b                	jmp    409564 <httpd_got_request+0x54>
  4095d9:	0f 1f 80 00 00 00 00 	nopl   0x0(%rax)
  4095e0:	80 fa 0a             	cmp    $0xa,%dl
  4095e3:	0f 84 87 01 00 00    	je     409770 <httpd_got_request+0x260>
  4095e9:	80 fa 0d             	cmp    $0xd,%dl
  4095ec:	0f 94 c2             	sete   %dl
  4095ef:	48 83 c0 01          	add    $0x1,%rax
  4095f3:	0f b6 d2             	movzbl %dl,%edx
  4095f6:	48 39 f0             	cmp    %rsi,%rax
  4095f9:	48 89 87 a8 00 00 00 	mov    %rax,0xa8(%rdi)
  409600:	8d 54 12 06          	lea    0x6(%rdx,%rdx,1),%edx
  409604:	89 97 b0 00 00 00    	mov    %edx,0xb0(%rdi)
  40960a:	0f 85 1a ff ff ff    	jne    40952a <httpd_got_request+0x1a>
  409610:	e9 5f ff ff ff       	jmpq   409574 <httpd_got_request+0x64>
  409615:	0f 1f 00             	nopl   (%rax)
  409618:	80 fa 0a             	cmp    $0xa,%dl
  40961b:	0f 84 5f 01 00 00    	je     409780 <httpd_got_request+0x270>
  409621:	80 fa 0d             	cmp    $0xd,%dl
  409624:	0f 85 3a ff ff ff    	jne    409564 <httpd_got_request+0x54>
  40962a:	48 83 c0 01          	add    $0x1,%rax
  40962e:	c7 87 b0 00 00 00 08 	movl   $0x8,0xb0(%rdi)
  409635:	00 00 00 
  409638:	48 39 f0             	cmp    %rsi,%rax
  40963b:	48 89 87 a8 00 00 00 	mov    %rax,0xa8(%rdi)
  409642:	0f 85 e2 fe ff ff    	jne    40952a <httpd_got_request+0x1a>
  409648:	e9 27 ff ff ff       	jmpq   409574 <httpd_got_request+0x64>
  40964d:	0f 1f 00             	nopl   (%rax)
  409650:	80 fa 0a             	cmp    $0xa,%dl
  409653:	0f 84 27 01 00 00    	je     409780 <httpd_got_request+0x270>
  409659:	0f 8e 91 01 00 00    	jle    4097f0 <httpd_got_request+0x2e0>
  40965f:	80 fa 0d             	cmp    $0xd,%dl
  409662:	74 c6                	je     40962a <httpd_got_request+0x11a>
  409664:	80 fa 20             	cmp    $0x20,%dl
  409667:	0f 84 f7 fe ff ff    	je     409564 <httpd_got_request+0x54>
  40966d:	c7 87 b0 00 00 00 0b 	movl   $0xb,0xb0(%rdi)
  409674:	00 00 00 
  409677:	b8 02 00 00 00       	mov    $0x2,%eax
  40967c:	c3                   	retq   
  40967d:	0f 1f 00             	nopl   (%rax)
  409680:	80 fa 0a             	cmp    $0xa,%dl
  409683:	74 e8                	je     40966d <httpd_got_request+0x15d>
  409685:	0f 8e 55 01 00 00    	jle    4097e0 <httpd_got_request+0x2d0>
  40968b:	80 fa 0d             	cmp    $0xd,%dl
  40968e:	74 dd                	je     40966d <httpd_got_request+0x15d>
  409690:	80 fa 20             	cmp    $0x20,%dl
  409693:	0f 84 cb fe ff ff    	je     409564 <httpd_got_request+0x54>
  409699:	c7 87 b0 00 00 00 04 	movl   $0x4,0xb0(%rdi)
  4096a0:	00 00 00 
  4096a3:	e9 bc fe ff ff       	jmpq   409564 <httpd_got_request+0x54>
  4096a8:	0f 1f 84 00 00 00 00 	nopl   0x0(%rax,%rax,1)
  4096af:	00 
  4096b0:	80 fa 0a             	cmp    $0xa,%dl
  4096b3:	0f 84 b7 00 00 00    	je     409770 <httpd_got_request+0x260>
  4096b9:	0f 8e 01 01 00 00    	jle    4097c0 <httpd_got_request+0x2b0>
  4096bf:	80 fa 0d             	cmp    $0xd,%dl
  4096c2:	0f 84 a8 00 00 00    	je     409770 <httpd_got_request+0x260>
  4096c8:	80 fa 20             	cmp    $0x20,%dl
  4096cb:	0f 85 93 fe ff ff    	jne    409564 <httpd_got_request+0x54>
  4096d1:	c7 87 b0 00 00 00 03 	movl   $0x3,0xb0(%rdi)
  4096d8:	00 00 00 
  4096db:	e9 84 fe ff ff       	jmpq   409564 <httpd_got_request+0x54>
  4096e0:	80 fa 0a             	cmp    $0xa,%dl
  4096e3:	74 88                	je     40966d <httpd_got_request+0x15d>
  4096e5:	0f 8e bd 00 00 00    	jle    4097a8 <httpd_got_request+0x298>
  4096eb:	80 fa 0d             	cmp    $0xd,%dl
  4096ee:	0f 84 79 ff ff ff    	je     40966d <httpd_got_request+0x15d>
  4096f4:	80 fa 20             	cmp    $0x20,%dl
  4096f7:	0f 84 67 fe ff ff    	je     409564 <httpd_got_request+0x54>
  4096fd:	c7 87 b0 00 00 00 02 	movl   $0x2,0xb0(%rdi)
  409704:	00 00 00 
  409707:	e9 58 fe ff ff       	jmpq   409564 <httpd_got_request+0x54>
  40970c:	0f 1f 40 00          	nopl   0x0(%rax)
  409710:	80 fa 0a             	cmp    $0xa,%dl
  409713:	0f 84 54 ff ff ff    	je     40966d <httpd_got_request+0x15d>
  409719:	0f 8e b1 00 00 00    	jle    4097d0 <httpd_got_request+0x2c0>
  40971f:	80 fa 0d             	cmp    $0xd,%dl
  409722:	0f 84 45 ff ff ff    	je     40966d <httpd_got_request+0x15d>
  409728:	80 fa 20             	cmp    $0x20,%dl
  40972b:	0f 85 33 fe ff ff    	jne    409564 <httpd_got_request+0x54>
  409731:	c7 87 b0 00 00 00 01 	movl   $0x1,0xb0(%rdi)
  409738:	00 00 00 
  40973b:	e9 24 fe ff ff       	jmpq   409564 <httpd_got_request+0x54>
  409740:	80 fa 0a             	cmp    $0xa,%dl
  409743:	74 3b                	je     409780 <httpd_got_request+0x270>
  409745:	0f 8e b5 00 00 00    	jle    409800 <httpd_got_request+0x2f0>
  40974b:	80 fa 0d             	cmp    $0xd,%dl
  40974e:	0f 84 d6 fe ff ff    	je     40962a <httpd_got_request+0x11a>
  409754:	80 fa 20             	cmp    $0x20,%dl
  409757:	0f 85 07 fe ff ff    	jne    409564 <httpd_got_request+0x54>
  40975d:	c7 87 b0 00 00 00 05 	movl   $0x5,0xb0(%rdi)
  409764:	00 00 00 
  409767:	e9 f8 fd ff ff       	jmpq   409564 <httpd_got_request+0x54>
  40976c:	0f 1f 40 00          	nopl   0x0(%rax)
  409770:	b8 01 00 00 00       	mov    $0x1,%eax
  409775:	c3                   	retq   
  409776:	66 2e 0f 1f 84 00 00 	nopw   %cs:0x0(%rax,%rax,1)
  40977d:	00 00 00 
  409780:	48 83 c0 01          	add    $0x1,%rax
  409784:	c7 87 b0 00 00 00 07 	movl   $0x7,0xb0(%rdi)
  40978b:	00 00 00 
  40978e:	48 39 f0             	cmp    %rsi,%rax
  409791:	48 89 87 a8 00 00 00 	mov    %rax,0xa8(%rdi)
  409798:	0f 85 8c fd ff ff    	jne    40952a <httpd_got_request+0x1a>
  40979e:	e9 d1 fd ff ff       	jmpq   409574 <httpd_got_request+0x64>
  4097a3:	0f 1f 44 00 00       	nopl   0x0(%rax,%rax,1)
  4097a8:	80 fa 09             	cmp    $0x9,%dl
  4097ab:	0f 84 b3 fd ff ff    	je     409564 <httpd_got_request+0x54>
  4097b1:	e9 47 ff ff ff       	jmpq   4096fd <httpd_got_request+0x1ed>
  4097b6:	66 2e 0f 1f 84 00 00 	nopw   %cs:0x0(%rax,%rax,1)
  4097bd:	00 00 00 
  4097c0:	80 fa 09             	cmp    $0x9,%dl
  4097c3:	0f 84 08 ff ff ff    	je     4096d1 <httpd_got_request+0x1c1>
  4097c9:	e9 96 fd ff ff       	jmpq   409564 <httpd_got_request+0x54>
  4097ce:	66 90                	xchg   %ax,%ax
  4097d0:	80 fa 09             	cmp    $0x9,%dl
  4097d3:	0f 84 58 ff ff ff    	je     409731 <httpd_got_request+0x221>
  4097d9:	e9 86 fd ff ff       	jmpq   409564 <httpd_got_request+0x54>
  4097de:	66 90                	xchg   %ax,%ax
  4097e0:	80 fa 09             	cmp    $0x9,%dl
  4097e3:	0f 84 7b fd ff ff    	je     409564 <httpd_got_request+0x54>
  4097e9:	e9 ab fe ff ff       	jmpq   409699 <httpd_got_request+0x189>
  4097ee:	66 90                	xchg   %ax,%ax
  4097f0:	80 fa 09             	cmp    $0x9,%dl
  4097f3:	0f 84 6b fd ff ff    	je     409564 <httpd_got_request+0x54>
  4097f9:	e9 6f fe ff ff       	jmpq   40966d <httpd_got_request+0x15d>
  4097fe:	66 90                	xchg   %ax,%ax
  409800:	80 fa 09             	cmp    $0x9,%dl
  409803:	0f 84 54 ff ff ff    	je     40975d <httpd_got_request+0x24d>
  409809:	e9 56 fd ff ff       	jmpq   409564 <httpd_got_request+0x54>
  40980e:	66 90                	xchg   %ax,%ax

0000000000409810 <httpd_destroy_conn>:
  409810:	8b 07                	mov    (%rdi),%eax
  409812:	85 c0                	test   %eax,%eax
  409814:	75 0a                	jne    409820 <httpd_destroy_conn+0x10>
  409816:	c3                   	retq   
  409817:	66 0f 1f 84 00 00 00 	nopw   0x0(%rax,%rax,1)
  40981e:	00 00 
  409820:	53                   	push   %rbx
  409821:	48 89 fb             	mov    %rdi,%rbx
  409824:	48 8b bf 90 00 00 00 	mov    0x90(%rdi),%rdi
  40982b:	e8 70 8a ff ff       	callq  4022a0 <free@plt>
  409830:	48 8b bb d8 00 00 00 	mov    0xd8(%rbx),%rdi
  409837:	e8 64 8a ff ff       	callq  4022a0 <free@plt>
  40983c:	48 8b bb e8 00 00 00 	mov    0xe8(%rbx),%rdi
  409843:	e8 58 8a ff ff       	callq  4022a0 <free@plt>
  409848:	48 8b bb f0 00 00 00 	mov    0xf0(%rbx),%rdi
  40984f:	e8 4c 8a ff ff       	callq  4022a0 <free@plt>
  409854:	48 8b bb f8 00 00 00 	mov    0xf8(%rbx),%rdi
  40985b:	e8 40 8a ff ff       	callq  4022a0 <free@plt>
  409860:	48 8b bb 00 01 00 00 	mov    0x100(%rbx),%rdi
  409867:	e8 34 8a ff ff       	callq  4022a0 <free@plt>
  40986c:	48 8b bb 08 01 00 00 	mov    0x108(%rbx),%rdi
  409873:	e8 28 8a ff ff       	callq  4022a0 <free@plt>
  409878:	48 8b bb 20 01 00 00 	mov    0x120(%rbx),%rdi
  40987f:	e8 1c 8a ff ff       	callq  4022a0 <free@plt>
  409884:	48 8b bb 28 01 00 00 	mov    0x128(%rbx),%rdi
  40988b:	e8 10 8a ff ff       	callq  4022a0 <free@plt>
  409890:	48 8b bb 48 01 00 00 	mov    0x148(%rbx),%rdi
  409897:	e8 04 8a ff ff       	callq  4022a0 <free@plt>
  40989c:	48 8b bb 58 01 00 00 	mov    0x158(%rbx),%rdi
  4098a3:	e8 f8 89 ff ff       	callq  4022a0 <free@plt>
  4098a8:	48 8b bb 68 01 00 00 	mov    0x168(%rbx),%rdi
  4098af:	e8 ec 89 ff ff       	callq  4022a0 <free@plt>
  4098b4:	48 8b bb 70 01 00 00 	mov    0x170(%rbx),%rdi
  4098bb:	e8 e0 89 ff ff       	callq  4022a0 <free@plt>
  4098c0:	c7 03 00 00 00 00    	movl   $0x0,(%rbx)
  4098c6:	5b                   	pop    %rbx
  4098c7:	c3                   	retq   
  4098c8:	0f 1f 84 00 00 00 00 	nopl   0x0(%rax,%rax,1)
  4098cf:	00 

00000000004098d0 <httpd_ntoa>:
  4098d0:	53                   	push   %rbx
  4098d1:	48 89 fb             	mov    %rdi,%rbx
  4098d4:	0f b7 3f             	movzwl (%rdi),%edi
  4098d7:	e8 84 dc ff ff       	callq  407560 <sockaddr_len.isra.1>
  4098dc:	48 83 ec 08          	sub    $0x8,%rsp
  4098e0:	45 31 c9             	xor    %r9d,%r9d
  4098e3:	45 31 c0             	xor    %r8d,%r8d
  4098e6:	6a 01                	pushq  $0x1
  4098e8:	b9 c8 00 00 00       	mov    $0xc8,%ecx
  4098ed:	89 c6                	mov    %eax,%esi
  4098ef:	ba 60 60 61 00       	mov    $0x616060,%edx
  4098f4:	48 89 df             	mov    %rbx,%rdi
  4098f7:	e8 34 8c ff ff       	callq  402530 <getnameinfo@plt>
  4098fc:	85 c0                	test   %eax,%eax
  4098fe:	59                   	pop    %rcx
  4098ff:	5e                   	pop    %rsi
  409900:	75 26                	jne    409928 <httpd_ntoa+0x58>
  409902:	8b 53 08             	mov    0x8(%rbx),%edx
  409905:	85 d2                	test   %edx,%edx
  409907:	75 11                	jne    40991a <httpd_ntoa+0x4a>
  409909:	8b 43 0c             	mov    0xc(%rbx),%eax
  40990c:	85 c0                	test   %eax,%eax
  40990e:	75 0a                	jne    40991a <httpd_ntoa+0x4a>
  409910:	e8 fb e0 ff ff       	callq  407a10 <__bswap_32.constprop.7>
  409915:	39 43 10             	cmp    %eax,0x10(%rbx)
  409918:	74 26                	je     409940 <httpd_ntoa+0x70>
  40991a:	b8 60 60 61 00       	mov    $0x616060,%eax
  40991f:	5b                   	pop    %rbx
  409920:	c3                   	retq   
  409921:	0f 1f 80 00 00 00 00 	nopl   0x0(%rax)
  409928:	b8 60 60 61 00       	mov    $0x616060,%eax
  40992d:	c6 05 2c c7 20 00 3f 	movb   $0x3f,0x20c72c(%rip)        # 616060 <str.6114>
  409934:	c6 05 26 c7 20 00 00 	movb   $0x0,0x20c726(%rip)        # 616061 <str.6114+0x1>
  40993b:	5b                   	pop    %rbx
  40993c:	c3                   	retq   
  40993d:	0f 1f 00             	nopl   (%rax)
  409940:	be 60 60 61 00       	mov    $0x616060,%esi
  409945:	bf d5 f1 40 00       	mov    $0x40f1d5,%edi
  40994a:	b9 07 00 00 00       	mov    $0x7,%ecx
  40994f:	f3 a6                	repz cmpsb %es:(%rdi),%ds:(%rsi)
  409951:	75 c7                	jne    40991a <httpd_ntoa+0x4a>
  409953:	be 67 60 61 00       	mov    $0x616067,%esi
  409958:	bf 60 60 61 00       	mov    $0x616060,%edi
  40995d:	e8 be 89 ff ff       	callq  402320 <strcpy@plt>
  409962:	b8 60 60 61 00       	mov    $0x616060,%eax
  409967:	5b                   	pop    %rbx
  409968:	c3                   	retq   
  409969:	0f 1f 80 00 00 00 00 	nopl   0x0(%rax)

0000000000409970 <initialize_listen_socket>:
  409970:	55                   	push   %rbp
  409971:	53                   	push   %rbx
  409972:	48 89 fd             	mov    %rdi,%rbp
  409975:	48 83 ec 28          	sub    $0x28,%rsp
  409979:	0f b7 17             	movzwl (%rdi),%edx
  40997c:	89 d7                	mov    %edx,%edi
  40997e:	e8 bd db ff ff       	callq  407540 <sockaddr_check.isra.0>
  409983:	85 c0                	test   %eax,%eax
  409985:	0f 84 e5 00 00 00    	je     409a70 <initialize_listen_socket+0x100>
  40998b:	0f b7 fa             	movzwl %dx,%edi
  40998e:	be 01 00 00 00       	mov    $0x1,%esi
  409993:	31 d2                	xor    %edx,%edx
  409995:	e8 16 90 ff ff       	callq  4029b0 <socket@plt>
  40999a:	85 c0                	test   %eax,%eax
  40999c:	89 c3                	mov    %eax,%ebx
  40999e:	0f 88 14 01 00 00    	js     409ab8 <initialize_listen_socket+0x148>
  4099a4:	89 c7                	mov    %eax,%edi
  4099a6:	ba 01 00 00 00       	mov    $0x1,%edx
  4099ab:	be 02 00 00 00       	mov    $0x2,%esi
  4099b0:	31 c0                	xor    %eax,%eax
  4099b2:	e8 f9 89 ff ff       	callq  4023b0 <fcntl@plt>
  4099b7:	48 8d 4c 24 1c       	lea    0x1c(%rsp),%rcx
  4099bc:	41 b8 04 00 00 00    	mov    $0x4,%r8d
  4099c2:	ba 02 00 00 00       	mov    $0x2,%edx
  4099c7:	be 01 00 00 00       	mov    $0x1,%esi
  4099cc:	89 df                	mov    %ebx,%edi
  4099ce:	c7 44 24 1c 01 00 00 	movl   $0x1,0x1c(%rsp)
  4099d5:	00 
  4099d6:	e8 b5 89 ff ff       	callq  402390 <setsockopt@plt>
  4099db:	85 c0                	test   %eax,%eax
  4099dd:	78 71                	js     409a50 <initialize_listen_socket+0xe0>
  4099df:	0f b7 7d 00          	movzwl 0x0(%rbp),%edi
  4099e3:	e8 78 db ff ff       	callq  407560 <sockaddr_len.isra.1>
  4099e8:	48 89 ee             	mov    %rbp,%rsi
  4099eb:	89 c2                	mov    %eax,%edx
  4099ed:	89 df                	mov    %ebx,%edi
  4099ef:	e8 ac 8d ff ff       	callq  4027a0 <bind@plt>
  4099f4:	85 c0                	test   %eax,%eax
  4099f6:	0f 88 e4 00 00 00    	js     409ae0 <initialize_listen_socket+0x170>
  4099fc:	31 d2                	xor    %edx,%edx
  4099fe:	31 c0                	xor    %eax,%eax
  409a00:	be 03 00 00 00       	mov    $0x3,%esi
  409a05:	89 df                	mov    %ebx,%edi
  409a07:	e8 a4 89 ff ff       	callq  4023b0 <fcntl@plt>
  409a0c:	83 f8 ff             	cmp    $0xffffffff,%eax
  409a0f:	89 c2                	mov    %eax,%edx
  409a11:	74 7d                	je     409a90 <initialize_listen_socket+0x120>
  409a13:	80 ce 08             	or     $0x8,%dh
  409a16:	31 c0                	xor    %eax,%eax
  409a18:	be 04 00 00 00       	mov    $0x4,%esi
  409a1d:	89 df                	mov    %ebx,%edi
  409a1f:	e8 8c 89 ff ff       	callq  4023b0 <fcntl@plt>
  409a24:	85 c0                	test   %eax,%eax
  409a26:	0f 88 e4 00 00 00    	js     409b10 <initialize_listen_socket+0x1a0>
  409a2c:	be 00 04 00 00       	mov    $0x400,%esi
  409a31:	89 df                	mov    %ebx,%edi
  409a33:	e8 c8 8c ff ff       	callq  402700 <listen@plt>
  409a38:	85 c0                	test   %eax,%eax
  409a3a:	0f 88 f2 00 00 00    	js     409b32 <initialize_listen_socket+0x1c2>
  409a40:	48 83 c4 28          	add    $0x28,%rsp
  409a44:	89 d8                	mov    %ebx,%eax
  409a46:	5b                   	pop    %rbx
  409a47:	5d                   	pop    %rbp
  409a48:	c3                   	retq   
  409a49:	0f 1f 80 00 00 00 00 	nopl   0x0(%rax)
  409a50:	be ef f1 40 00       	mov    $0x40f1ef,%esi
  409a55:	bf 02 00 00 00       	mov    $0x2,%edi
  409a5a:	31 c0                	xor    %eax,%eax
  409a5c:	e8 8f 8c ff ff       	callq  4026f0 <syslog@plt>
  409a61:	e9 79 ff ff ff       	jmpq   4099df <initialize_listen_socket+0x6f>
  409a66:	66 2e 0f 1f 84 00 00 	nopw   %cs:0x0(%rax,%rax,1)
  409a6d:	00 00 00 
  409a70:	be 90 04 41 00       	mov    $0x410490,%esi
  409a75:	bf 02 00 00 00       	mov    $0x2,%edi
  409a7a:	bb ff ff ff ff       	mov    $0xffffffff,%ebx
  409a7f:	e8 6c 8c ff ff       	callq  4026f0 <syslog@plt>
  409a84:	eb ba                	jmp    409a40 <initialize_listen_socket+0xd0>
  409a86:	66 2e 0f 1f 84 00 00 	nopw   %cs:0x0(%rax,%rax,1)
  409a8d:	00 00 00 
  409a90:	89 44 24 0c          	mov    %eax,0xc(%rsp)
  409a94:	be 1c f2 40 00       	mov    $0x40f21c,%esi
  409a99:	bf 02 00 00 00       	mov    $0x2,%edi
  409a9e:	31 c0                	xor    %eax,%eax
  409aa0:	e8 4b 8c ff ff       	callq  4026f0 <syslog@plt>
  409aa5:	89 df                	mov    %ebx,%edi
  409aa7:	e8 44 8a ff ff       	callq  4024f0 <close@plt>
  409aac:	8b 54 24 0c          	mov    0xc(%rsp),%edx
  409ab0:	89 d3                	mov    %edx,%ebx
  409ab2:	eb 8c                	jmp    409a40 <initialize_listen_socket+0xd0>
  409ab4:	0f 1f 40 00          	nopl   0x0(%rax)
  409ab8:	48 89 ef             	mov    %rbp,%rdi
  409abb:	bb ff ff ff ff       	mov    $0xffffffff,%ebx
  409ac0:	e8 0b fe ff ff       	callq  4098d0 <httpd_ntoa>
  409ac5:	be dd f1 40 00       	mov    $0x40f1dd,%esi
  409aca:	48 89 c2             	mov    %rax,%rdx
  409acd:	bf 02 00 00 00       	mov    $0x2,%edi
  409ad2:	31 c0                	xor    %eax,%eax
  409ad4:	e8 17 8c ff ff       	callq  4026f0 <syslog@plt>
  409ad9:	e9 62 ff ff ff       	jmpq   409a40 <initialize_listen_socket+0xd0>
  409ade:	66 90                	xchg   %ax,%ax
  409ae0:	48 89 ef             	mov    %rbp,%rdi
  409ae3:	e8 e8 fd ff ff       	callq  4098d0 <httpd_ntoa>
  409ae8:	be 0c f2 40 00       	mov    $0x40f20c,%esi
  409aed:	48 89 c2             	mov    %rax,%rdx
  409af0:	bf 02 00 00 00       	mov    $0x2,%edi
  409af5:	31 c0                	xor    %eax,%eax
  409af7:	e8 f4 8b ff ff       	callq  4026f0 <syslog@plt>
  409afc:	89 df                	mov    %ebx,%edi
  409afe:	bb ff ff ff ff       	mov    $0xffffffff,%ebx
  409b03:	e8 e8 89 ff ff       	callq  4024f0 <close@plt>
  409b08:	e9 33 ff ff ff       	jmpq   409a40 <initialize_listen_socket+0xd0>
  409b0d:	0f 1f 00             	nopl   (%rax)
  409b10:	be 2f f2 40 00       	mov    $0x40f22f,%esi
  409b15:	bf 02 00 00 00       	mov    $0x2,%edi
  409b1a:	31 c0                	xor    %eax,%eax
  409b1c:	e8 cf 8b ff ff       	callq  4026f0 <syslog@plt>
  409b21:	89 df                	mov    %ebx,%edi
  409b23:	bb ff ff ff ff       	mov    $0xffffffff,%ebx
  409b28:	e8 c3 89 ff ff       	callq  4024f0 <close@plt>
  409b2d:	e9 0e ff ff ff       	jmpq   409a40 <initialize_listen_socket+0xd0>
  409b32:	be 43 f2 40 00       	mov    $0x40f243,%esi
  409b37:	eb dc                	jmp    409b15 <initialize_listen_socket+0x1a5>
  409b39:	0f 1f 80 00 00 00 00 	nopl   0x0(%rax)

0000000000409b40 <httpd_initialize>:
  409b40:	41 57                	push   %r15
  409b42:	41 56                	push   %r14
  409b44:	49 89 fe             	mov    %rdi,%r14
  409b47:	41 55                	push   %r13
  409b49:	41 54                	push   %r12
  409b4b:	bf 88 00 00 00       	mov    $0x88,%edi
  409b50:	55                   	push   %rbp
  409b51:	53                   	push   %rbx
  409b52:	48 89 f5             	mov    %rsi,%rbp
  409b55:	49 89 d4             	mov    %rdx,%r12
  409b58:	41 89 cf             	mov    %ecx,%r15d
  409b5b:	4d 89 c5             	mov    %r8,%r13
  409b5e:	48 83 ec 18          	sub    $0x18,%rsp
  409b62:	44 89 4c 24 0c       	mov    %r9d,0xc(%rsp)
  409b67:	e8 34 8b ff ff       	callq  4026a0 <malloc@plt>
  409b6c:	48 85 c0             	test   %rax,%rax
  409b6f:	48 89 c3             	mov    %rax,%rbx
  409b72:	0f 84 bf 02 00 00    	je     409e37 <httpd_initialize+0x2f7>
  409b78:	4d 85 f6             	test   %r14,%r14
  409b7b:	0f 84 27 02 00 00    	je     409da8 <httpd_initialize+0x268>
  409b81:	4c 89 f7             	mov    %r14,%rdi
  409b84:	e8 97 8d ff ff       	callq  402920 <strdup@plt>
  409b89:	48 85 c0             	test   %rax,%rax
  409b8c:	48 89 03             	mov    %rax,(%rbx)
  409b8f:	0f 84 e6 02 00 00    	je     409e7b <httpd_initialize+0x33b>
  409b95:	48 89 43 08          	mov    %rax,0x8(%rbx)
  409b99:	4d 85 ed             	test   %r13,%r13
  409b9c:	66 44 89 7b 10       	mov    %r15w,0x10(%rbx)
  409ba1:	0f 84 49 02 00 00    	je     409df0 <httpd_initialize+0x2b0>
  409ba7:	31 c0                	xor    %eax,%eax
  409ba9:	41 80 7d 00 2f       	cmpb   $0x2f,0x0(%r13)
  409bae:	0f 94 c0             	sete   %al
  409bb1:	49 01 c5             	add    %rax,%r13
  409bb4:	4c 89 ef             	mov    %r13,%rdi
  409bb7:	e8 64 8d ff ff       	callq  402920 <strdup@plt>
  409bbc:	48 85 c0             	test   %rax,%rax
  409bbf:	48 89 c7             	mov    %rax,%rdi
  409bc2:	48 89 43 18          	mov    %rax,0x18(%rbx)
  409bc6:	75 19                	jne    409be1 <httpd_initialize+0xa1>
  409bc8:	e9 96 02 00 00       	jmpq   409e63 <httpd_initialize+0x323>
  409bcd:	0f 1f 00             	nopl   (%rax)
  409bd0:	48 8d 78 01          	lea    0x1(%rax),%rdi
  409bd4:	48 8d 70 02          	lea    0x2(%rax),%rsi
  409bd8:	e8 43 87 ff ff       	callq  402320 <strcpy@plt>
  409bdd:	48 8b 7b 18          	mov    0x18(%rbx),%rdi
  409be1:	be d2 ec 40 00       	mov    $0x40ecd2,%esi
  409be6:	e8 75 8d ff ff       	callq  402960 <strstr@plt>
  409beb:	48 85 c0             	test   %rax,%rax
  409bee:	75 e0                	jne    409bd0 <httpd_initialize+0x90>
  409bf0:	8b 44 24 0c          	mov    0xc(%rsp),%eax
  409bf4:	48 8b 7c 24 50       	mov    0x50(%rsp),%rdi
  409bf9:	c7 43 24 00 00 00 00 	movl   $0x0,0x24(%rbx)
  409c00:	89 43 20             	mov    %eax,0x20(%rbx)
  409c03:	e8 18 8d ff ff       	callq  402920 <strdup@plt>
  409c08:	48 8b 7c 24 58       	mov    0x58(%rsp),%rdi
  409c0d:	48 89 43 28          	mov    %rax,0x28(%rbx)
  409c11:	e8 0a 8d ff ff       	callq  402920 <strdup@plt>
  409c16:	48 89 43 30          	mov    %rax,0x30(%rbx)
  409c1a:	8b 44 24 60          	mov    0x60(%rsp),%eax
  409c1e:	48 8b 7c 24 68       	mov    0x68(%rsp),%rdi
  409c23:	89 43 38             	mov    %eax,0x38(%rbx)
  409c26:	e8 f5 8c ff ff       	callq  402920 <strdup@plt>
  409c2b:	48 85 c0             	test   %rax,%rax
  409c2e:	48 89 43 40          	mov    %rax,0x40(%rbx)
  409c32:	0f 84 15 02 00 00    	je     409e4d <httpd_initialize+0x30d>
  409c38:	48 83 bc 24 98 00 00 	cmpq   $0x0,0x98(%rsp)
  409c3f:	00 00 
  409c41:	0f 84 19 01 00 00    	je     409d60 <httpd_initialize+0x220>
  409c47:	48 8b bc 24 98 00 00 	mov    0x98(%rsp),%rdi
  409c4e:	00 
  409c4f:	e8 cc 8c ff ff       	callq  402920 <strdup@plt>
  409c54:	48 85 c0             	test   %rax,%rax
  409c57:	48 89 43 70          	mov    %rax,0x70(%rbx)
  409c5b:	0f 84 46 02 00 00    	je     409ea7 <httpd_initialize+0x367>
  409c61:	48 83 bc 24 a0 00 00 	cmpq   $0x0,0xa0(%rsp)
  409c68:	00 00 
  409c6a:	0f 84 07 01 00 00    	je     409d77 <httpd_initialize+0x237>
  409c70:	48 8b bc 24 a0 00 00 	mov    0xa0(%rsp),%rdi
  409c77:	00 
  409c78:	e8 a3 8c ff ff       	callq  402920 <strdup@plt>
  409c7d:	48 85 c0             	test   %rax,%rax
  409c80:	48 89 43 78          	mov    %rax,0x78(%rbx)
  409c84:	0f 84 07 02 00 00    	je     409e91 <httpd_initialize+0x351>
  409c8a:	8b 44 24 70          	mov    0x70(%rsp),%eax
  409c8e:	48 8b 74 24 78       	mov    0x78(%rsp),%rsi
  409c93:	48 89 df             	mov    %rbx,%rdi
  409c96:	48 c7 43 58 00 00 00 	movq   $0x0,0x58(%rbx)
  409c9d:	00 
  409c9e:	89 43 50             	mov    %eax,0x50(%rbx)
  409ca1:	e8 7a dd ff ff       	callq  407a20 <httpd_set_logfp>
  409ca6:	8b 84 24 80 00 00 00 	mov    0x80(%rsp),%eax
  409cad:	4d 85 e4             	test   %r12,%r12
  409cb0:	89 43 60             	mov    %eax,0x60(%rbx)
  409cb3:	8b 84 24 88 00 00 00 	mov    0x88(%rsp),%eax
  409cba:	89 43 64             	mov    %eax,0x64(%rbx)
  409cbd:	8b 84 24 90 00 00 00 	mov    0x90(%rsp),%eax
  409cc4:	89 43 68             	mov    %eax,0x68(%rbx)
  409cc7:	8b 84 24 a8 00 00 00 	mov    0xa8(%rsp),%eax
  409cce:	89 83 80 00 00 00    	mov    %eax,0x80(%rbx)
  409cd4:	0f 84 ae 00 00 00    	je     409d88 <httpd_initialize+0x248>
  409cda:	4c 89 e7             	mov    %r12,%rdi
  409cdd:	e8 8e fc ff ff       	callq  409970 <initialize_listen_socket>
  409ce2:	48 85 ed             	test   %rbp,%rbp
  409ce5:	89 43 4c             	mov    %eax,0x4c(%rbx)
  409ce8:	0f 84 aa 00 00 00    	je     409d98 <httpd_initialize+0x258>
  409cee:	48 89 ef             	mov    %rbp,%rdi
  409cf1:	e8 7a fc ff ff       	callq  409970 <initialize_listen_socket>
  409cf6:	89 43 48             	mov    %eax,0x48(%rbx)
  409cf9:	48 83 7b 48 ff       	cmpq   $0xffffffffffffffff,0x48(%rbx)
  409cfe:	0f 84 24 01 00 00    	je     409e28 <httpd_initialize+0x2e8>
  409d04:	e8 87 d3 ff ff       	callq  407090 <init_mime>
  409d09:	48 83 3b 00          	cmpq   $0x0,(%rbx)
  409d0d:	0f 84 ea 00 00 00    	je     409dfd <httpd_initialize+0x2bd>
  409d13:	83 7b 48 ff          	cmpl   $0xffffffff,0x48(%rbx)
  409d17:	44 0f b7 6b 10       	movzwl 0x10(%rbx),%r13d
  409d1c:	49 0f 44 ec          	cmove  %r12,%rbp
  409d20:	48 89 ef             	mov    %rbp,%rdi
  409d23:	e8 a8 fb ff ff       	callq  4098d0 <httpd_ntoa>
  409d28:	45 89 e8             	mov    %r13d,%r8d
  409d2b:	48 89 c1             	mov    %rax,%rcx
  409d2e:	ba 49 ec 40 00       	mov    $0x40ec49,%edx
  409d33:	be 88 05 41 00       	mov    $0x410588,%esi
  409d38:	bf 05 00 00 00       	mov    $0x5,%edi
  409d3d:	31 c0                	xor    %eax,%eax
  409d3f:	e8 ac 89 ff ff       	callq  4026f0 <syslog@plt>
  409d44:	48 83 c4 18          	add    $0x18,%rsp
  409d48:	48 89 d8             	mov    %rbx,%rax
  409d4b:	5b                   	pop    %rbx
  409d4c:	5d                   	pop    %rbp
  409d4d:	41 5c                	pop    %r12
  409d4f:	41 5d                	pop    %r13
  409d51:	41 5e                	pop    %r14
  409d53:	41 5f                	pop    %r15
  409d55:	c3                   	retq   
  409d56:	66 2e 0f 1f 84 00 00 	nopw   %cs:0x0(%rax,%rax,1)
  409d5d:	00 00 00 
  409d60:	48 83 bc 24 a0 00 00 	cmpq   $0x0,0xa0(%rsp)
  409d67:	00 00 
  409d69:	48 c7 43 70 00 00 00 	movq   $0x0,0x70(%rbx)
  409d70:	00 
  409d71:	0f 85 f9 fe ff ff    	jne    409c70 <httpd_initialize+0x130>
  409d77:	48 c7 43 78 00 00 00 	movq   $0x0,0x78(%rbx)
  409d7e:	00 
  409d7f:	e9 06 ff ff ff       	jmpq   409c8a <httpd_initialize+0x14a>
  409d84:	0f 1f 40 00          	nopl   0x0(%rax)
  409d88:	48 85 ed             	test   %rbp,%rbp
  409d8b:	c7 43 4c ff ff ff ff 	movl   $0xffffffff,0x4c(%rbx)
  409d92:	0f 85 56 ff ff ff    	jne    409cee <httpd_initialize+0x1ae>
  409d98:	c7 43 48 ff ff ff ff 	movl   $0xffffffff,0x48(%rbx)
  409d9f:	e9 55 ff ff ff       	jmpq   409cf9 <httpd_initialize+0x1b9>
  409da4:	0f 1f 40 00          	nopl   0x0(%rax)
  409da8:	48 c7 00 00 00 00 00 	movq   $0x0,(%rax)
  409daf:	48 c7 40 08 00 00 00 	movq   $0x0,0x8(%rax)
  409db6:	00 
  409db7:	be 00 01 00 00       	mov    $0x100,%esi
  409dbc:	bf 00 64 61 00       	mov    $0x616400,%edi
  409dc1:	e8 ea 8a ff ff       	callq  4028b0 <gethostname@plt>
  409dc6:	85 c0                	test   %eax,%eax
  409dc8:	78 52                	js     409e1c <httpd_initialize+0x2dc>
  409dca:	48 83 7b 08 00       	cmpq   $0x0,0x8(%rbx)
  409dcf:	0f 85 c4 fd ff ff    	jne    409b99 <httpd_initialize+0x59>
  409dd5:	80 3d 24 c6 20 00 00 	cmpb   $0x0,0x20c624(%rip)        # 616400 <ghnbuf.5411>
  409ddc:	0f 84 b7 fd ff ff    	je     409b99 <httpd_initialize+0x59>
  409de2:	48 c7 43 08 00 64 61 	movq   $0x616400,0x8(%rbx)
  409de9:	00 
  409dea:	e9 aa fd ff ff       	jmpq   409b99 <httpd_initialize+0x59>
  409def:	90                   	nop
  409df0:	48 c7 43 18 00 00 00 	movq   $0x0,0x18(%rbx)
  409df7:	00 
  409df8:	e9 f3 fd ff ff       	jmpq   409bf0 <httpd_initialize+0xb0>
  409dfd:	0f b7 4b 10          	movzwl 0x10(%rbx),%ecx
  409e01:	ba 49 ec 40 00       	mov    $0x40ec49,%edx
  409e06:	be 69 f2 40 00       	mov    $0x40f269,%esi
  409e0b:	bf 05 00 00 00       	mov    $0x5,%edi
  409e10:	31 c0                	xor    %eax,%eax
  409e12:	e8 d9 88 ff ff       	callq  4026f0 <syslog@plt>
  409e17:	e9 28 ff ff ff       	jmpq   409d44 <httpd_initialize+0x204>
  409e1c:	c6 05 dd c5 20 00 00 	movb   $0x0,0x20c5dd(%rip)        # 616400 <ghnbuf.5411>
  409e23:	e9 71 fd ff ff       	jmpq   409b99 <httpd_initialize+0x59>
  409e28:	48 89 df             	mov    %rbx,%rdi
  409e2b:	31 db                	xor    %ebx,%ebx
  409e2d:	e8 ee d1 ff ff       	callq  407020 <free_httpd_server>
  409e32:	e9 0d ff ff ff       	jmpq   409d44 <httpd_initialize+0x204>
  409e37:	be c0 04 41 00       	mov    $0x4104c0,%esi
  409e3c:	bf 02 00 00 00       	mov    $0x2,%edi
  409e41:	31 c0                	xor    %eax,%eax
  409e43:	e8 a8 88 ff ff       	callq  4026f0 <syslog@plt>
  409e48:	e9 f7 fe ff ff       	jmpq   409d44 <httpd_initialize+0x204>
  409e4d:	be 4f f2 40 00       	mov    $0x40f24f,%esi
  409e52:	bf 02 00 00 00       	mov    $0x2,%edi
  409e57:	31 db                	xor    %ebx,%ebx
  409e59:	e8 92 88 ff ff       	callq  4026f0 <syslog@plt>
  409e5e:	e9 e1 fe ff ff       	jmpq   409d44 <httpd_initialize+0x204>
  409e63:	be 10 05 41 00       	mov    $0x410510,%esi
  409e68:	bf 02 00 00 00       	mov    $0x2,%edi
  409e6d:	31 c0                	xor    %eax,%eax
  409e6f:	e8 7c 88 ff ff       	callq  4026f0 <syslog@plt>
  409e74:	31 db                	xor    %ebx,%ebx
  409e76:	e9 c9 fe ff ff       	jmpq   409d44 <httpd_initialize+0x204>
  409e7b:	be f0 04 41 00       	mov    $0x4104f0,%esi
  409e80:	bf 02 00 00 00       	mov    $0x2,%edi
  409e85:	31 db                	xor    %ebx,%ebx
  409e87:	e8 64 88 ff ff       	callq  4026f0 <syslog@plt>
  409e8c:	e9 b3 fe ff ff       	jmpq   409d44 <httpd_initialize+0x204>
  409e91:	be 60 05 41 00       	mov    $0x410560,%esi
  409e96:	bf 02 00 00 00       	mov    $0x2,%edi
  409e9b:	31 db                	xor    %ebx,%ebx
  409e9d:	e8 4e 88 ff ff       	callq  4026f0 <syslog@plt>
  409ea2:	e9 9d fe ff ff       	jmpq   409d44 <httpd_initialize+0x204>
  409ea7:	be 38 05 41 00       	mov    $0x410538,%esi
  409eac:	bf 02 00 00 00       	mov    $0x2,%edi
  409eb1:	31 db                	xor    %ebx,%ebx
  409eb3:	e8 38 88 ff ff       	callq  4026f0 <syslog@plt>
  409eb8:	e9 87 fe ff ff       	jmpq   409d44 <httpd_initialize+0x204>
  409ebd:	0f 1f 00             	nopl   (%rax)

0000000000409ec0 <vhost_map>:
  409ec0:	41 55                	push   %r13
  409ec2:	41 54                	push   %r12
  409ec4:	49 89 fd             	mov    %rdi,%r13
  409ec7:	55                   	push   %rbp
  409ec8:	53                   	push   %rbx
  409ec9:	48 81 ec 98 00 00 00 	sub    $0x98,%rsp
  409ed0:	48 8b af 48 01 00 00 	mov    0x148(%rdi),%rbp
  409ed7:	80 7d 00 00          	cmpb   $0x0,0x0(%rbp)
  409edb:	75 11                	jne    409eee <vhost_map+0x2e>
  409edd:	48 8b af 50 01 00 00 	mov    0x150(%rdi),%rbp
  409ee4:	80 7d 00 00          	cmpb   $0x0,0x0(%rbp)
  409ee8:	0f 84 42 01 00 00    	je     40a030 <vhost_map+0x170>
  409eee:	49 89 ad 00 02 00 00 	mov    %rbp,0x200(%r13)
  409ef5:	48 0f be 5d 00       	movsbq 0x0(%rbp),%rbx
  409efa:	84 db                	test   %bl,%bl
  409efc:	74 38                	je     409f36 <vhost_map+0x76>
  409efe:	e8 8d 8a ff ff       	callq  402990 <__ctype_b_loc@plt>
  409f03:	49 89 c4             	mov    %rax,%r12
  409f06:	66 2e 0f 1f 84 00 00 	nopw   %cs:0x0(%rax,%rax,1)
  409f0d:	00 00 00 
  409f10:	49 8b 04 24          	mov    (%r12),%rax
  409f14:	f6 44 58 01 01       	testb  $0x1,0x1(%rax,%rbx,2)
  409f19:	74 0e                	je     409f29 <vhost_map+0x69>
  409f1b:	e8 60 8a ff ff       	callq  402980 <__ctype_tolower_loc@plt>
  409f20:	48 8b 00             	mov    (%rax),%rax
  409f23:	8b 04 98             	mov    (%rax,%rbx,4),%eax
  409f26:	88 45 00             	mov    %al,0x0(%rbp)
  409f29:	48 83 c5 01          	add    $0x1,%rbp
  409f2d:	48 0f be 5d 00       	movsbq 0x0(%rbp),%rbx
  409f32:	84 db                	test   %bl,%bl
  409f34:	75 da                	jne    409f10 <vhost_map+0x50>
  409f36:	41 8b 8d 14 02 00 00 	mov    0x214(%r13),%ecx
  409f3d:	bb 01 00 00 00       	mov    $0x1,%ebx
  409f42:	85 c9                	test   %ecx,%ecx
  409f44:	0f 85 cc 00 00 00    	jne    40a016 <vhost_map+0x156>
  409f4a:	49 8b bd 00 02 00 00 	mov    0x200(%r13),%rdi
  409f51:	e8 ca 84 ff ff       	callq  402420 <strlen@plt>
  409f56:	49 8d b5 c0 01 00 00 	lea    0x1c0(%r13),%rsi
  409f5d:	49 8d bd 58 01 00 00 	lea    0x158(%r13),%rdi
  409f64:	48 89 c2             	mov    %rax,%rdx
  409f67:	e8 b4 db ff ff       	callq  407b20 <httpd_realloc_str>
  409f6c:	49 8b b5 00 02 00 00 	mov    0x200(%r13),%rsi
  409f73:	49 8b bd 58 01 00 00 	mov    0x158(%r13),%rdi
  409f7a:	e8 a1 83 ff ff       	callq  402320 <strcpy@plt>
  409f7f:	49 8b bd f0 00 00 00 	mov    0xf0(%r13),%rdi
  409f86:	e8 95 84 ff ff       	callq  402420 <strlen@plt>
  409f8b:	48 63 e8             	movslq %eax,%rbp
  409f8e:	be e0 63 61 00       	mov    $0x6163e0,%esi
  409f93:	bf e8 63 61 00       	mov    $0x6163e8,%edi
  409f98:	48 89 ea             	mov    %rbp,%rdx
  409f9b:	e8 80 db ff ff       	callq  407b20 <httpd_realloc_str>
  409fa0:	49 8b b5 f0 00 00 00 	mov    0xf0(%r13),%rsi
  409fa7:	48 8b 3d 3a c4 20 00 	mov    0x20c43a(%rip),%rdi        # 6163e8 <tempfilename.5649>
  409fae:	e8 6d 83 ff ff       	callq  402320 <strcpy@plt>
  409fb3:	49 8b bd 58 01 00 00 	mov    0x158(%r13),%rdi
  409fba:	e8 61 84 ff ff       	callq  402420 <strlen@plt>
  409fbf:	49 8d b5 88 01 00 00 	lea    0x188(%r13),%rsi
  409fc6:	48 8d 54 05 01       	lea    0x1(%rbp,%rax,1),%rdx
  409fcb:	49 8d bd f0 00 00 00 	lea    0xf0(%r13),%rdi
  409fd2:	e8 49 db ff ff       	callq  407b20 <httpd_realloc_str>
  409fd7:	49 8b b5 58 01 00 00 	mov    0x158(%r13),%rsi
  409fde:	49 8b bd f0 00 00 00 	mov    0xf0(%r13),%rdi
  409fe5:	e8 36 83 ff ff       	callq  402320 <strcpy@plt>
  409fea:	49 8b ad f0 00 00 00 	mov    0xf0(%r13),%rbp
  409ff1:	48 89 ef             	mov    %rbp,%rdi
  409ff4:	e8 27 84 ff ff       	callq  402420 <strlen@plt>
  409ff9:	ba 2f 00 00 00       	mov    $0x2f,%edx
  409ffe:	66 89 54 05 00       	mov    %dx,0x0(%rbp,%rax,1)
  40a003:	49 8b bd f0 00 00 00 	mov    0xf0(%r13),%rdi
  40a00a:	48 8b 35 d7 c3 20 00 	mov    0x20c3d7(%rip),%rsi        # 6163e8 <tempfilename.5649>
  40a011:	e8 7a 88 ff ff       	callq  402890 <strcat@plt>
  40a016:	48 81 c4 98 00 00 00 	add    $0x98,%rsp
  40a01d:	89 d8                	mov    %ebx,%eax
  40a01f:	5b                   	pop    %rbx
  40a020:	5d                   	pop    %rbp
  40a021:	41 5c                	pop    %r12
  40a023:	41 5d                	pop    %r13
  40a025:	c3                   	retq   
  40a026:	66 2e 0f 1f 84 00 00 	nopw   %cs:0x0(%rax,%rax,1)
  40a02d:	00 00 00 
  40a030:	8b bf c0 02 00 00    	mov    0x2c0(%rdi),%edi
  40a036:	48 8d 54 24 0c       	lea    0xc(%rsp),%rdx
  40a03b:	48 8d 74 24 10       	lea    0x10(%rsp),%rsi
  40a040:	c7 44 24 0c 80 00 00 	movl   $0x80,0xc(%rsp)
  40a047:	00 
  40a048:	e8 23 88 ff ff       	callq  402870 <getsockname@plt>
  40a04d:	85 c0                	test   %eax,%eax
  40a04f:	78 12                	js     40a063 <vhost_map+0x1a3>
  40a051:	48 8d 7c 24 10       	lea    0x10(%rsp),%rdi
  40a056:	e8 75 f8 ff ff       	callq  4098d0 <httpd_ntoa>
  40a05b:	48 89 c5             	mov    %rax,%rbp
  40a05e:	e9 8b fe ff ff       	jmpq   409eee <vhost_map+0x2e>
  40a063:	be 83 f2 40 00       	mov    $0x40f283,%esi
  40a068:	bf 03 00 00 00       	mov    $0x3,%edi
  40a06d:	31 c0                	xor    %eax,%eax
  40a06f:	e8 7c 86 ff ff       	callq  4026f0 <syslog@plt>
  40a074:	31 db                	xor    %ebx,%ebx
  40a076:	eb 9e                	jmp    40a016 <vhost_map+0x156>
  40a078:	0f 1f 84 00 00 00 00 	nopl   0x0(%rax,%rax,1)
  40a07f:	00 

000000000040a080 <httpd_parse_request>:
  40a080:	41 57                	push   %r15
  40a082:	41 56                	push   %r14
  40a084:	41 55                	push   %r13
  40a086:	41 54                	push   %r12
  40a088:	55                   	push   %rbp
  40a089:	53                   	push   %rbx
  40a08a:	48 89 fb             	mov    %rdi,%rbx
  40a08d:	48 83 ec 28          	sub    $0x28,%rsp
  40a091:	48 c7 87 a8 00 00 00 	movq   $0x0,0xa8(%rdi)
  40a098:	00 00 00 00 
  40a09c:	e8 af ce ff ff       	callq  406f50 <bufgets>
  40a0a1:	be 8b eb 40 00       	mov    $0x40eb8b,%esi
  40a0a6:	48 89 c7             	mov    %rax,%rdi
  40a0a9:	49 89 c5             	mov    %rax,%r13
  40a0ac:	e8 7f 86 ff ff       	callq  402730 <strpbrk@plt>
  40a0b1:	48 85 c0             	test   %rax,%rax
  40a0b4:	0f 84 26 05 00 00    	je     40a5e0 <httpd_parse_request+0x560>
  40a0ba:	48 8d 68 01          	lea    0x1(%rax),%rbp
  40a0be:	be 8b eb 40 00       	mov    $0x40eb8b,%esi
  40a0c3:	c6 00 00             	movb   $0x0,(%rax)
  40a0c6:	48 89 ef             	mov    %rbp,%rdi
  40a0c9:	e8 82 84 ff ff       	callq  402550 <strspn@plt>
  40a0ce:	48 01 c5             	add    %rax,%rbp
  40a0d1:	be 8b eb 40 00       	mov    $0x40eb8b,%esi
  40a0d6:	48 89 ef             	mov    %rbp,%rdi
  40a0d9:	e8 52 86 ff ff       	callq  402730 <strpbrk@plt>
  40a0de:	48 85 c0             	test   %rax,%rax
  40a0e1:	0f 84 11 09 00 00    	je     40a9f8 <httpd_parse_request+0x978>
  40a0e7:	4c 8d 60 01          	lea    0x1(%rax),%r12
  40a0eb:	c6 00 00             	movb   $0x0,(%rax)
  40a0ee:	be 8b eb 40 00       	mov    $0x40eb8b,%esi
  40a0f3:	4c 89 e7             	mov    %r12,%rdi
  40a0f6:	e8 55 84 ff ff       	callq  402550 <strspn@plt>
  40a0fb:	49 01 c4             	add    %rax,%r12
  40a0fe:	41 80 3c 24 00       	cmpb   $0x0,(%r12)
  40a103:	74 30                	je     40a135 <httpd_parse_request+0xb5>
  40a105:	be 8b eb 40 00       	mov    $0x40eb8b,%esi
  40a10a:	4c 89 e7             	mov    %r12,%rdi
  40a10d:	e8 1e 86 ff ff       	callq  402730 <strpbrk@plt>
  40a112:	48 85 c0             	test   %rax,%rax
  40a115:	74 03                	je     40a11a <httpd_parse_request+0x9a>
  40a117:	c6 00 00             	movb   $0x0,(%rax)
  40a11a:	be 9d f2 40 00       	mov    $0x40f29d,%esi
  40a11f:	4c 89 e7             	mov    %r12,%rdi
  40a122:	e8 89 81 ff ff       	callq  4022b0 <strcasecmp@plt>
  40a127:	85 c0                	test   %eax,%eax
  40a129:	74 0a                	je     40a135 <httpd_parse_request+0xb5>
  40a12b:	c7 83 0c 02 00 00 01 	movl   $0x1,0x20c(%rbx)
  40a132:	00 00 00 
  40a135:	4c 89 a3 e0 00 00 00 	mov    %r12,0xe0(%rbx)
  40a13c:	ba 07 00 00 00       	mov    $0x7,%edx
  40a141:	be a6 f2 40 00       	mov    $0x40f2a6,%esi
  40a146:	48 89 ef             	mov    %rbp,%rdi
  40a149:	e8 62 85 ff ff       	callq  4026b0 <strncasecmp@plt>
  40a14e:	85 c0                	test   %eax,%eax
  40a150:	0f 84 52 03 00 00    	je     40a4a8 <httpd_parse_request+0x428>
  40a156:	80 7d 00 2f          	cmpb   $0x2f,0x0(%rbp)
  40a15a:	0f 85 80 04 00 00    	jne    40a5e0 <httpd_parse_request+0x560>
  40a160:	bf 01 00 00 00       	mov    $0x1,%edi
  40a165:	e8 d6 ee ff ff       	callq  409040 <httpd_method_str>
  40a16a:	4c 89 ef             	mov    %r13,%rdi
  40a16d:	48 89 c6             	mov    %rax,%rsi
  40a170:	e8 3b 81 ff ff       	callq  4022b0 <strcasecmp@plt>
  40a175:	85 c0                	test   %eax,%eax
  40a177:	0f 85 c3 05 00 00    	jne    40a740 <httpd_parse_request+0x6c0>
  40a17d:	c7 83 b4 00 00 00 01 	movl   $0x1,0xb4(%rbx)
  40a184:	00 00 00 
  40a187:	48 89 ef             	mov    %rbp,%rdi
  40a18a:	48 89 ab d0 00 00 00 	mov    %rbp,0xd0(%rbx)
  40a191:	e8 8a 82 ff ff       	callq  402420 <strlen@plt>
  40a196:	48 8d b3 78 01 00 00 	lea    0x178(%rbx),%rsi
  40a19d:	48 8d bb d8 00 00 00 	lea    0xd8(%rbx),%rdi
  40a1a4:	48 89 c2             	mov    %rax,%rdx
  40a1a7:	e8 74 d9 ff ff       	callq  407b20 <httpd_realloc_str>
  40a1ac:	48 8b b3 d0 00 00 00 	mov    0xd0(%rbx),%rsi
  40a1b3:	48 8b bb d8 00 00 00 	mov    0xd8(%rbx),%rdi
  40a1ba:	e8 11 d0 ff ff       	callq  4071d0 <strdecode>
  40a1bf:	48 8b bb d8 00 00 00 	mov    0xd8(%rbx),%rdi
  40a1c6:	e8 55 82 ff ff       	callq  402420 <strlen@plt>
  40a1cb:	48 8d b3 80 01 00 00 	lea    0x180(%rbx),%rsi
  40a1d2:	48 8d bb e8 00 00 00 	lea    0xe8(%rbx),%rdi
  40a1d9:	48 89 c2             	mov    %rax,%rdx
  40a1dc:	e8 3f d9 ff ff       	callq  407b20 <httpd_realloc_str>
  40a1e1:	48 8b 83 d8 00 00 00 	mov    0xd8(%rbx),%rax
  40a1e8:	48 8b bb e8 00 00 00 	mov    0xe8(%rbx),%rdi
  40a1ef:	48 8d 70 01          	lea    0x1(%rax),%rsi
  40a1f3:	e8 28 81 ff ff       	callq  402320 <strcpy@plt>
  40a1f8:	48 8b 83 e8 00 00 00 	mov    0xe8(%rbx),%rax
  40a1ff:	80 38 00             	cmpb   $0x0,(%rax)
  40a202:	0f 84 d8 06 00 00    	je     40a8e0 <httpd_parse_request+0x860>
  40a208:	48 8b bb d0 00 00 00 	mov    0xd0(%rbx),%rdi
  40a20f:	be 3f 00 00 00       	mov    $0x3f,%esi
  40a214:	e8 67 82 ff ff       	callq  402480 <strchr@plt>
  40a219:	48 85 c0             	test   %rax,%rax
  40a21c:	74 4d                	je     40a26b <httpd_parse_request+0x1eb>
  40a21e:	48 8d 68 01          	lea    0x1(%rax),%rbp
  40a222:	48 89 ef             	mov    %rbp,%rdi
  40a225:	e8 f6 81 ff ff       	callq  402420 <strlen@plt>
  40a22a:	48 8d b3 a0 01 00 00 	lea    0x1a0(%rbx),%rsi
  40a231:	48 8d bb 08 01 00 00 	lea    0x108(%rbx),%rdi
  40a238:	48 89 c2             	mov    %rax,%rdx
  40a23b:	e8 e0 d8 ff ff       	callq  407b20 <httpd_realloc_str>
  40a240:	48 8b bb 08 01 00 00 	mov    0x108(%rbx),%rdi
  40a247:	48 89 ee             	mov    %rbp,%rsi
  40a24a:	e8 d1 80 ff ff       	callq  402320 <strcpy@plt>
  40a24f:	48 8b ab e8 00 00 00 	mov    0xe8(%rbx),%rbp
  40a256:	be 3f 00 00 00       	mov    $0x3f,%esi
  40a25b:	48 89 ef             	mov    %rbp,%rdi
  40a25e:	e8 1d 82 ff ff       	callq  402480 <strchr@plt>
  40a263:	48 85 c0             	test   %rax,%rax
  40a266:	74 0a                	je     40a272 <httpd_parse_request+0x1f2>
  40a268:	c6 00 00             	movb   $0x0,(%rax)
  40a26b:	48 8b ab e8 00 00 00 	mov    0xe8(%rbx),%rbp
  40a272:	48 89 ef             	mov    %rbp,%rdi
  40a275:	e8 e6 cf ff ff       	callq  407260 <de_dotdot>
  40a27a:	48 8b 93 e8 00 00 00 	mov    0xe8(%rbx),%rdx
  40a281:	0f b6 02             	movzbl (%rdx),%eax
  40a284:	3c 2f                	cmp    $0x2f,%al
  40a286:	0f 84 54 03 00 00    	je     40a5e0 <httpd_parse_request+0x560>
  40a28c:	3c 2e                	cmp    $0x2e,%al
  40a28e:	0f 84 5c 06 00 00    	je     40a8f0 <httpd_parse_request+0x870>
  40a294:	44 8b 8b 08 02 00 00 	mov    0x208(%rbx),%r9d
  40a29b:	45 85 c9             	test   %r9d,%r9d
  40a29e:	0f 84 7c 00 00 00    	je     40a320 <httpd_parse_request+0x2a0>
  40a2a4:	4c 8d 73 14          	lea    0x14(%rbx),%r14
  40a2a8:	4c 8d ab b0 01 00 00 	lea    0x1b0(%rbx),%r13
  40a2af:	4c 8d a3 28 01 00 00 	lea    0x128(%rbx),%r12
  40a2b6:	48 8d 6b 10          	lea    0x10(%rbx),%rbp
  40a2ba:	66 0f 1f 44 00 00    	nopw   0x0(%rax,%rax,1)
  40a2c0:	48 89 df             	mov    %rbx,%rdi
  40a2c3:	e8 88 cc ff ff       	callq  406f50 <bufgets>
  40a2c8:	48 85 c0             	test   %rax,%rax
  40a2cb:	49 89 c7             	mov    %rax,%r15
  40a2ce:	74 50                	je     40a320 <httpd_parse_request+0x2a0>
  40a2d0:	41 80 3f 00          	cmpb   $0x0,(%r15)
  40a2d4:	74 4a                	je     40a320 <httpd_parse_request+0x2a0>
  40a2d6:	ba 08 00 00 00       	mov    $0x8,%edx
  40a2db:	be be f2 40 00       	mov    $0x40f2be,%esi
  40a2e0:	4c 89 ff             	mov    %r15,%rdi
  40a2e3:	e8 c8 83 ff ff       	callq  4026b0 <strncasecmp@plt>
  40a2e8:	85 c0                	test   %eax,%eax
  40a2ea:	0f 85 48 02 00 00    	jne    40a538 <httpd_parse_request+0x4b8>
  40a2f0:	49 83 c7 08          	add    $0x8,%r15
  40a2f4:	be c7 f2 40 00       	mov    $0x40f2c7,%esi
  40a2f9:	4c 89 ff             	mov    %r15,%rdi
  40a2fc:	e8 4f 82 ff ff       	callq  402550 <strspn@plt>
  40a301:	49 8d 0c 07          	lea    (%r15,%rax,1),%rcx
  40a305:	48 89 df             	mov    %rbx,%rdi
  40a308:	48 89 8b 10 01 00 00 	mov    %rcx,0x110(%rbx)
  40a30f:	e8 3c cc ff ff       	callq  406f50 <bufgets>
  40a314:	48 85 c0             	test   %rax,%rax
  40a317:	49 89 c7             	mov    %rax,%r15
  40a31a:	75 b4                	jne    40a2d0 <httpd_parse_request+0x250>
  40a31c:	0f 1f 40 00          	nopl   0x0(%rax)
  40a320:	44 8b 83 0c 02 00 00 	mov    0x20c(%rbx),%r8d
  40a327:	45 85 c0             	test   %r8d,%r8d
  40a32a:	74 30                	je     40a35c <httpd_parse_request+0x2dc>
  40a32c:	48 8b 83 48 01 00 00 	mov    0x148(%rbx),%rax
  40a333:	80 38 00             	cmpb   $0x0,(%rax)
  40a336:	75 10                	jne    40a348 <httpd_parse_request+0x2c8>
  40a338:	48 8b 83 50 01 00 00 	mov    0x150(%rbx),%rax
  40a33f:	80 38 00             	cmpb   $0x0,(%rax)
  40a342:	0f 84 98 02 00 00    	je     40a5e0 <httpd_parse_request+0x560>
  40a348:	8b 8b 28 02 00 00    	mov    0x228(%rbx),%ecx
  40a34e:	85 c9                	test   %ecx,%ecx
  40a350:	74 0a                	je     40a35c <httpd_parse_request+0x2dc>
  40a352:	c7 83 2c 02 00 00 01 	movl   $0x1,0x22c(%rbx)
  40a359:	00 00 00 
  40a35c:	48 8b bb e8 00 00 00 	mov    0xe8(%rbx),%rdi
  40a363:	4c 8d ab 88 01 00 00 	lea    0x188(%rbx),%r13
  40a36a:	4c 8d a3 f0 00 00 00 	lea    0xf0(%rbx),%r12
  40a371:	e8 aa 80 ff ff       	callq  402420 <strlen@plt>
  40a376:	4c 89 ee             	mov    %r13,%rsi
  40a379:	48 89 c2             	mov    %rax,%rdx
  40a37c:	4c 89 e7             	mov    %r12,%rdi
  40a37f:	e8 9c d7 ff ff       	callq  407b20 <httpd_realloc_str>
  40a384:	48 8b b3 e8 00 00 00 	mov    0xe8(%rbx),%rsi
  40a38b:	48 8b bb f0 00 00 00 	mov    0xf0(%rbx),%rdi
  40a392:	e8 89 7f ff ff       	callq  402320 <strcpy@plt>
  40a397:	48 8b 43 08          	mov    0x8(%rbx),%rax
  40a39b:	8b 50 64             	mov    0x64(%rax),%edx
  40a39e:	85 d2                	test   %edx,%edx
  40a3a0:	74 14                	je     40a3b6 <httpd_parse_request+0x336>
  40a3a2:	48 89 df             	mov    %rbx,%rdi
  40a3a5:	e8 16 fb ff ff       	callq  409ec0 <vhost_map>
  40a3aa:	85 c0                	test   %eax,%eax
  40a3ac:	0f 84 89 07 00 00    	je     40ab3b <httpd_parse_request+0xabb>
  40a3b2:	48 8b 43 08          	mov    0x8(%rbx),%rax
  40a3b6:	8b 8b 14 02 00 00    	mov    0x214(%rbx),%ecx
  40a3bc:	8b 50 60             	mov    0x60(%rax),%edx
  40a3bf:	48 8d 74 24 18       	lea    0x18(%rsp),%rsi
  40a3c4:	48 8b bb f0 00 00 00 	mov    0xf0(%rbx),%rdi
  40a3cb:	e8 a0 de ff ff       	callq  408270 <expand_symlinks>
  40a3d0:	48 85 c0             	test   %rax,%rax
  40a3d3:	48 89 c5             	mov    %rax,%rbp
  40a3d6:	0f 84 5f 07 00 00    	je     40ab3b <httpd_parse_request+0xabb>
  40a3dc:	48 89 c7             	mov    %rax,%rdi
  40a3df:	e8 3c 80 ff ff       	callq  402420 <strlen@plt>
  40a3e4:	4c 89 ee             	mov    %r13,%rsi
  40a3e7:	48 89 c2             	mov    %rax,%rdx
  40a3ea:	4c 89 e7             	mov    %r12,%rdi
  40a3ed:	e8 2e d7 ff ff       	callq  407b20 <httpd_realloc_str>
  40a3f2:	48 8b bb f0 00 00 00 	mov    0xf0(%rbx),%rdi
  40a3f9:	48 89 ee             	mov    %rbp,%rsi
  40a3fc:	e8 1f 7f ff ff       	callq  402320 <strcpy@plt>
  40a401:	48 8b 7c 24 18       	mov    0x18(%rsp),%rdi
  40a406:	e8 15 80 ff ff       	callq  402420 <strlen@plt>
  40a40b:	48 8d b3 98 01 00 00 	lea    0x198(%rbx),%rsi
  40a412:	48 8d bb 00 01 00 00 	lea    0x100(%rbx),%rdi
  40a419:	48 89 c2             	mov    %rax,%rdx
  40a41c:	e8 ff d6 ff ff       	callq  407b20 <httpd_realloc_str>
  40a421:	48 8b bb 00 01 00 00 	mov    0x100(%rbx),%rdi
  40a428:	48 8b 74 24 18       	mov    0x18(%rsp),%rsi
  40a42d:	e8 ee 7e ff ff       	callq  402320 <strcpy@plt>
  40a432:	48 8b ab 00 01 00 00 	mov    0x100(%rbx),%rbp
  40a439:	80 7d 00 00          	cmpb   $0x0,0x0(%rbp)
  40a43d:	74 41                	je     40a480 <httpd_parse_request+0x400>
  40a43f:	4c 8b ab e8 00 00 00 	mov    0xe8(%rbx),%r13
  40a446:	4c 89 ef             	mov    %r13,%rdi
  40a449:	e8 d2 7f ff ff       	callq  402420 <strlen@plt>
  40a44e:	48 89 ef             	mov    %rbp,%rdi
  40a451:	49 89 c4             	mov    %rax,%r12
  40a454:	e8 c7 7f ff ff       	callq  402420 <strlen@plt>
  40a459:	41 29 c4             	sub    %eax,%r12d
  40a45c:	48 89 ee             	mov    %rbp,%rsi
  40a45f:	4d 63 f4             	movslq %r12d,%r14
  40a462:	4b 8d 7c 35 00       	lea    0x0(%r13,%r14,1),%rdi
  40a467:	e8 64 81 ff ff       	callq  4025d0 <strcmp@plt>
  40a46c:	85 c0                	test   %eax,%eax
  40a46e:	75 10                	jne    40a480 <httpd_parse_request+0x400>
  40a470:	45 85 e4             	test   %r12d,%r12d
  40a473:	0f 85 1f 05 00 00    	jne    40a998 <httpd_parse_request+0x918>
  40a479:	41 c6 45 00 00       	movb   $0x0,0x0(%r13)
  40a47e:	66 90                	xchg   %ax,%ax
  40a480:	4c 8b a3 f0 00 00 00 	mov    0xf0(%rbx),%r12
  40a487:	31 ed                	xor    %ebp,%ebp
  40a489:	41 80 3c 24 2f       	cmpb   $0x2f,(%r12)
  40a48e:	0f 84 dc 02 00 00    	je     40a770 <httpd_parse_request+0x6f0>
  40a494:	48 83 c4 28          	add    $0x28,%rsp
  40a498:	89 e8                	mov    %ebp,%eax
  40a49a:	5b                   	pop    %rbx
  40a49b:	5d                   	pop    %rbp
  40a49c:	41 5c                	pop    %r12
  40a49e:	41 5d                	pop    %r13
  40a4a0:	41 5e                	pop    %r14
  40a4a2:	41 5f                	pop    %r15
  40a4a4:	c3                   	retq   
  40a4a5:	0f 1f 00             	nopl   (%rax)
  40a4a8:	44 8b 9b 0c 02 00 00 	mov    0x20c(%rbx),%r11d
  40a4af:	45 85 db             	test   %r11d,%r11d
  40a4b2:	0f 84 28 01 00 00    	je     40a5e0 <httpd_parse_request+0x560>
  40a4b8:	4c 8d 75 07          	lea    0x7(%rbp),%r14
  40a4bc:	be 2f 00 00 00       	mov    $0x2f,%esi
  40a4c1:	4c 89 f7             	mov    %r14,%rdi
  40a4c4:	e8 b7 7f ff ff       	callq  402480 <strchr@plt>
  40a4c9:	48 85 c0             	test   %rax,%rax
  40a4cc:	49 89 c4             	mov    %rax,%r12
  40a4cf:	0f 84 0b 01 00 00    	je     40a5e0 <httpd_parse_request+0x560>
  40a4d5:	c6 00 00             	movb   $0x0,(%rax)
  40a4d8:	be 2f 00 00 00       	mov    $0x2f,%esi
  40a4dd:	4c 89 f7             	mov    %r14,%rdi
  40a4e0:	e8 9b 7f ff ff       	callq  402480 <strchr@plt>
  40a4e5:	48 85 c0             	test   %rax,%rax
  40a4e8:	0f 85 f2 00 00 00    	jne    40a5e0 <httpd_parse_request+0x560>
  40a4ee:	80 7d 07 2e          	cmpb   $0x2e,0x7(%rbp)
  40a4f2:	0f 84 e8 00 00 00    	je     40a5e0 <httpd_parse_request+0x560>
  40a4f8:	4c 89 f7             	mov    %r14,%rdi
  40a4fb:	4c 89 e5             	mov    %r12,%rbp
  40a4fe:	e8 1d 7f ff ff       	callq  402420 <strlen@plt>
  40a503:	48 8d b3 b8 01 00 00 	lea    0x1b8(%rbx),%rsi
  40a50a:	48 8d bb 48 01 00 00 	lea    0x148(%rbx),%rdi
  40a511:	48 89 c2             	mov    %rax,%rdx
  40a514:	e8 07 d6 ff ff       	callq  407b20 <httpd_realloc_str>
  40a519:	48 8b bb 48 01 00 00 	mov    0x148(%rbx),%rdi
  40a520:	4c 89 f6             	mov    %r14,%rsi
  40a523:	e8 f8 7d ff ff       	callq  402320 <strcpy@plt>
  40a528:	41 c6 04 24 2f       	movb   $0x2f,(%r12)
  40a52d:	e9 2e fc ff ff       	jmpq   40a160 <httpd_parse_request+0xe0>
  40a532:	66 0f 1f 44 00 00    	nopw   0x0(%rax,%rax,1)
  40a538:	ba 0b 00 00 00       	mov    $0xb,%edx
  40a53d:	be ca f2 40 00       	mov    $0x40f2ca,%esi
  40a542:	4c 89 ff             	mov    %r15,%rdi
  40a545:	e8 66 81 ff ff       	callq  4026b0 <strncasecmp@plt>
  40a54a:	85 c0                	test   %eax,%eax
  40a54c:	75 22                	jne    40a570 <httpd_parse_request+0x4f0>
  40a54e:	49 83 c7 0b          	add    $0xb,%r15
  40a552:	be c7 f2 40 00       	mov    $0x40f2c7,%esi
  40a557:	4c 89 ff             	mov    %r15,%rdi
  40a55a:	e8 f1 7f ff ff       	callq  402550 <strspn@plt>
  40a55f:	49 8d 0c 07          	lea    (%r15,%rax,1),%rcx
  40a563:	48 89 8b 18 01 00 00 	mov    %rcx,0x118(%rbx)
  40a56a:	e9 51 fd ff ff       	jmpq   40a2c0 <httpd_parse_request+0x240>
  40a56f:	90                   	nop
  40a570:	ba 05 00 00 00       	mov    $0x5,%edx
  40a575:	be d6 f2 40 00       	mov    $0x40f2d6,%esi
  40a57a:	4c 89 ff             	mov    %r15,%rdi
  40a57d:	e8 2e 81 ff ff       	callq  4026b0 <strncasecmp@plt>
  40a582:	85 c0                	test   %eax,%eax
  40a584:	0f 85 86 00 00 00    	jne    40a610 <httpd_parse_request+0x590>
  40a58a:	49 83 c7 05          	add    $0x5,%r15
  40a58e:	be c7 f2 40 00       	mov    $0x40f2c7,%esi
  40a593:	4c 89 ff             	mov    %r15,%rdi
  40a596:	e8 b5 7f ff ff       	callq  402550 <strspn@plt>
  40a59b:	49 01 c7             	add    %rax,%r15
  40a59e:	be 3a 00 00 00       	mov    $0x3a,%esi
  40a5a3:	4c 89 bb 50 01 00 00 	mov    %r15,0x150(%rbx)
  40a5aa:	4c 89 ff             	mov    %r15,%rdi
  40a5ad:	e8 ce 7e ff ff       	callq  402480 <strchr@plt>
  40a5b2:	48 85 c0             	test   %rax,%rax
  40a5b5:	74 0a                	je     40a5c1 <httpd_parse_request+0x541>
  40a5b7:	c6 00 00             	movb   $0x0,(%rax)
  40a5ba:	4c 8b bb 50 01 00 00 	mov    0x150(%rbx),%r15
  40a5c1:	be 2f 00 00 00       	mov    $0x2f,%esi
  40a5c6:	4c 89 ff             	mov    %r15,%rdi
  40a5c9:	e8 b2 7e ff ff       	callq  402480 <strchr@plt>
  40a5ce:	48 85 c0             	test   %rax,%rax
  40a5d1:	75 0d                	jne    40a5e0 <httpd_parse_request+0x560>
  40a5d3:	41 80 3f 2e          	cmpb   $0x2e,(%r15)
  40a5d7:	0f 85 e3 fc ff ff    	jne    40a2c0 <httpd_parse_request+0x240>
  40a5dd:	0f 1f 00             	nopl   (%rax)
  40a5e0:	4c 8b 05 99 b6 20 00 	mov    0x20b699(%rip),%r8        # 615c80 <httpd_err400form>
  40a5e7:	48 8b 15 9a b6 20 00 	mov    0x20b69a(%rip),%rdx        # 615c88 <httpd_err400title>
  40a5ee:	41 b9 c9 f2 40 00    	mov    $0x40f2c9,%r9d
  40a5f4:	4c 89 c9             	mov    %r9,%rcx
  40a5f7:	be 90 01 00 00       	mov    $0x190,%esi
  40a5fc:	48 89 df             	mov    %rbx,%rdi
  40a5ff:	bd ff ff ff ff       	mov    $0xffffffff,%ebp
  40a604:	e8 b7 e8 ff ff       	callq  408ec0 <httpd_send_err>
  40a609:	e9 86 fe ff ff       	jmpq   40a494 <httpd_parse_request+0x414>
  40a60e:	66 90                	xchg   %ax,%ax
  40a610:	ba 07 00 00 00       	mov    $0x7,%edx
  40a615:	be dc f2 40 00       	mov    $0x40f2dc,%esi
  40a61a:	4c 89 ff             	mov    %r15,%rdi
  40a61d:	e8 8e 80 ff ff       	callq  4026b0 <strncasecmp@plt>
  40a622:	85 c0                	test   %eax,%eax
  40a624:	0f 85 9e 00 00 00    	jne    40a6c8 <httpd_parse_request+0x648>
  40a62a:	49 83 c7 07          	add    $0x7,%r15
  40a62e:	be c7 f2 40 00       	mov    $0x40f2c7,%esi
  40a633:	4c 89 ff             	mov    %r15,%rdi
  40a636:	e8 15 7f ff ff       	callq  402550 <strspn@plt>
  40a63b:	48 8b bb 20 01 00 00 	mov    0x120(%rbx),%rdi
  40a642:	49 01 c7             	add    %rax,%r15
  40a645:	80 3f 00             	cmpb   $0x0,(%rdi)
  40a648:	0f 84 82 03 00 00    	je     40a9d0 <httpd_parse_request+0x950>
  40a64e:	e8 cd 7d ff ff       	callq  402420 <strlen@plt>
  40a653:	48 3d 88 13 00 00    	cmp    $0x1388,%rax
  40a659:	0f 87 e9 02 00 00    	ja     40a948 <httpd_parse_request+0x8c8>
  40a65f:	4c 89 ff             	mov    %r15,%rdi
  40a662:	48 89 04 24          	mov    %rax,(%rsp)
  40a666:	e8 b5 7d ff ff       	callq  402420 <strlen@plt>
  40a66b:	48 8b 14 24          	mov    (%rsp),%rdx
  40a66f:	48 8d b3 a8 01 00 00 	lea    0x1a8(%rbx),%rsi
  40a676:	48 8d bb 20 01 00 00 	lea    0x120(%rbx),%rdi
  40a67d:	48 8d 54 02 02       	lea    0x2(%rdx,%rax,1),%rdx
  40a682:	e8 99 d4 ff ff       	callq  407b20 <httpd_realloc_str>
  40a687:	48 8b 93 20 01 00 00 	mov    0x120(%rbx),%rdx
  40a68e:	48 89 d7             	mov    %rdx,%rdi
  40a691:	48 89 14 24          	mov    %rdx,(%rsp)
  40a695:	e8 86 7d ff ff       	callq  402420 <strlen@plt>
  40a69a:	48 8b 14 24          	mov    (%rsp),%rdx
  40a69e:	bf 2c 20 00 00       	mov    $0x202c,%edi
  40a6a3:	48 01 c2             	add    %rax,%rdx
  40a6a6:	66 89 3a             	mov    %di,(%rdx)
  40a6a9:	c6 42 02 00          	movb   $0x0,0x2(%rdx)
  40a6ad:	48 8b bb 20 01 00 00 	mov    0x120(%rbx),%rdi
  40a6b4:	4c 89 fe             	mov    %r15,%rsi
  40a6b7:	e8 d4 81 ff ff       	callq  402890 <strcat@plt>
  40a6bc:	e9 ff fb ff ff       	jmpq   40a2c0 <httpd_parse_request+0x240>
  40a6c1:	0f 1f 80 00 00 00 00 	nopl   0x0(%rax)
  40a6c8:	ba 10 00 00 00       	mov    $0x10,%edx
  40a6cd:	be e4 f2 40 00       	mov    $0x40f2e4,%esi
  40a6d2:	4c 89 ff             	mov    %r15,%rdi
  40a6d5:	e8 d6 7f ff ff       	callq  4026b0 <strncasecmp@plt>
  40a6da:	85 c0                	test   %eax,%eax
  40a6dc:	0f 85 ce 00 00 00    	jne    40a7b0 <httpd_parse_request+0x730>
  40a6e2:	49 83 c7 10          	add    $0x10,%r15
  40a6e6:	be c7 f2 40 00       	mov    $0x40f2c7,%esi
  40a6eb:	4c 89 ff             	mov    %r15,%rdi
  40a6ee:	e8 5d 7e ff ff       	callq  402550 <strspn@plt>
  40a6f3:	48 8b bb 28 01 00 00 	mov    0x128(%rbx),%rdi
  40a6fa:	49 01 c7             	add    %rax,%r15
  40a6fd:	80 3f 00             	cmpb   $0x0,(%rdi)
  40a700:	0f 84 9d 02 00 00    	je     40a9a3 <httpd_parse_request+0x923>
  40a706:	e8 15 7d ff ff       	callq  402420 <strlen@plt>
  40a70b:	48 3d 88 13 00 00    	cmp    $0x1388,%rax
  40a711:	0f 86 f9 02 00 00    	jbe    40aa10 <httpd_parse_request+0x990>
  40a717:	48 89 ef             	mov    %rbp,%rdi
  40a71a:	e8 b1 f1 ff ff       	callq  4098d0 <httpd_ntoa>
  40a71f:	be 18 06 41 00       	mov    $0x410618,%esi
  40a724:	48 89 c2             	mov    %rax,%rdx
  40a727:	bf 03 00 00 00       	mov    $0x3,%edi
  40a72c:	31 c0                	xor    %eax,%eax
  40a72e:	e8 bd 7f ff ff       	callq  4026f0 <syslog@plt>
  40a733:	e9 88 fb ff ff       	jmpq   40a2c0 <httpd_parse_request+0x240>
  40a738:	0f 1f 84 00 00 00 00 	nopl   0x0(%rax,%rax,1)
  40a73f:	00 
  40a740:	bf 02 00 00 00       	mov    $0x2,%edi
  40a745:	e8 f6 e8 ff ff       	callq  409040 <httpd_method_str>
  40a74a:	4c 89 ef             	mov    %r13,%rdi
  40a74d:	48 89 c6             	mov    %rax,%rsi
  40a750:	e8 5b 7b ff ff       	callq  4022b0 <strcasecmp@plt>
  40a755:	85 c0                	test   %eax,%eax
  40a757:	0f 85 bb 01 00 00    	jne    40a918 <httpd_parse_request+0x898>
  40a75d:	c7 83 b4 00 00 00 02 	movl   $0x2,0xb4(%rbx)
  40a764:	00 00 00 
  40a767:	e9 1b fa ff ff       	jmpq   40a187 <httpd_parse_request+0x107>
  40a76c:	0f 1f 40 00          	nopl   0x0(%rax)
  40a770:	48 8b 43 08          	mov    0x8(%rbx),%rax
  40a774:	48 8b 68 40          	mov    0x40(%rax),%rbp
  40a778:	48 89 ef             	mov    %rbp,%rdi
  40a77b:	e8 a0 7c ff ff       	callq  402420 <strlen@plt>
  40a780:	48 89 ee             	mov    %rbp,%rsi
  40a783:	48 89 c2             	mov    %rax,%rdx
  40a786:	4c 89 e7             	mov    %r12,%rdi
  40a789:	49 89 c5             	mov    %rax,%r13
  40a78c:	e8 7f 7b ff ff       	callq  402310 <strncmp@plt>
  40a791:	85 c0                	test   %eax,%eax
  40a793:	89 c5                	mov    %eax,%ebp
  40a795:	0f 85 ce 03 00 00    	jne    40ab69 <httpd_parse_request+0xae9>
  40a79b:	4b 8d 34 2c          	lea    (%r12,%r13,1),%rsi
  40a79f:	4c 89 e7             	mov    %r12,%rdi
  40a7a2:	e8 79 7b ff ff       	callq  402320 <strcpy@plt>
  40a7a7:	e9 e8 fc ff ff       	jmpq   40a494 <httpd_parse_request+0x414>
  40a7ac:	0f 1f 40 00          	nopl   0x0(%rax)
  40a7b0:	ba 10 00 00 00       	mov    $0x10,%edx
  40a7b5:	be f5 f2 40 00       	mov    $0x40f2f5,%esi
  40a7ba:	4c 89 ff             	mov    %r15,%rdi
  40a7bd:	e8 ee 7e ff ff       	callq  4026b0 <strncasecmp@plt>
  40a7c2:	85 c0                	test   %eax,%eax
  40a7c4:	0f 84 a6 01 00 00    	je     40a970 <httpd_parse_request+0x8f0>
  40a7ca:	ba 12 00 00 00       	mov    $0x12,%edx
  40a7cf:	be 06 f3 40 00       	mov    $0x40f306,%esi
  40a7d4:	4c 89 ff             	mov    %r15,%rdi
  40a7d7:	e8 d4 7e ff ff       	callq  4026b0 <strncasecmp@plt>
  40a7dc:	85 c0                	test   %eax,%eax
  40a7de:	0f 84 98 02 00 00    	je     40aa7c <httpd_parse_request+0x9fc>
  40a7e4:	ba 07 00 00 00       	mov    $0x7,%edx
  40a7e9:	be 30 f3 40 00       	mov    $0x40f330,%esi
  40a7ee:	4c 89 ff             	mov    %r15,%rdi
  40a7f1:	e8 ba 7e ff ff       	callq  4026b0 <strncasecmp@plt>
  40a7f6:	85 c0                	test   %eax,%eax
  40a7f8:	0f 84 5d 02 00 00    	je     40aa5b <httpd_parse_request+0x9db>
  40a7fe:	ba 06 00 00 00       	mov    $0x6,%edx
  40a803:	be 45 f3 40 00       	mov    $0x40f345,%esi
  40a808:	4c 89 ff             	mov    %r15,%rdi
  40a80b:	e8 a0 7e ff ff       	callq  4026b0 <strncasecmp@plt>
  40a810:	85 c0                	test   %eax,%eax
  40a812:	0f 85 9a 02 00 00    	jne    40aab2 <httpd_parse_request+0xa32>
  40a818:	be 2c 00 00 00       	mov    $0x2c,%esi
  40a81d:	4c 89 ff             	mov    %r15,%rdi
  40a820:	e8 5b 7c ff ff       	callq  402480 <strchr@plt>
  40a825:	48 85 c0             	test   %rax,%rax
  40a828:	48 89 04 24          	mov    %rax,(%rsp)
  40a82c:	0f 85 8e fa ff ff    	jne    40a2c0 <httpd_parse_request+0x240>
  40a832:	be 3d 00 00 00       	mov    $0x3d,%esi
  40a837:	4c 89 ff             	mov    %r15,%rdi
  40a83a:	e8 41 7c ff ff       	callq  402480 <strchr@plt>
  40a83f:	48 85 c0             	test   %rax,%rax
  40a842:	0f 84 78 fa ff ff    	je     40a2c0 <httpd_parse_request+0x240>
  40a848:	48 8d 48 01          	lea    0x1(%rax),%rcx
  40a84c:	be 2d 00 00 00       	mov    $0x2d,%esi
  40a851:	48 89 cf             	mov    %rcx,%rdi
  40a854:	48 89 4c 24 08       	mov    %rcx,0x8(%rsp)
  40a859:	e8 22 7c ff ff       	callq  402480 <strchr@plt>
  40a85e:	48 85 c0             	test   %rax,%rax
  40a861:	49 89 c7             	mov    %rax,%r15
  40a864:	0f 84 56 fa ff ff    	je     40a2c0 <httpd_parse_request+0x240>
  40a86a:	48 8b 4c 24 08       	mov    0x8(%rsp),%rcx
  40a86f:	48 39 c1             	cmp    %rax,%rcx
  40a872:	0f 84 48 fa ff ff    	je     40a2c0 <httpd_parse_request+0x240>
  40a878:	48 89 cf             	mov    %rcx,%rdi
  40a87b:	c6 00 00             	movb   $0x0,(%rax)
  40a87e:	c7 83 10 02 00 00 01 	movl   $0x1,0x210(%rbx)
  40a885:	00 00 00 
  40a888:	e8 33 7d ff ff       	callq  4025c0 <atoll@plt>
  40a88d:	48 85 c0             	test   %rax,%rax
  40a890:	48 0f 48 04 24       	cmovs  (%rsp),%rax
  40a895:	48 89 83 18 02 00 00 	mov    %rax,0x218(%rbx)
  40a89c:	e8 ef 80 ff ff       	callq  402990 <__ctype_b_loc@plt>
  40a8a1:	49 0f be 4f 01       	movsbq 0x1(%r15),%rcx
  40a8a6:	48 8b 00             	mov    (%rax),%rax
  40a8a9:	f6 44 48 01 08       	testb  $0x8,0x1(%rax,%rcx,2)
  40a8ae:	0f 84 0c fa ff ff    	je     40a2c0 <httpd_parse_request+0x240>
  40a8b4:	49 8d 7f 01          	lea    0x1(%r15),%rdi
  40a8b8:	e8 03 7d ff ff       	callq  4025c0 <atoll@plt>
  40a8bd:	48 c7 c2 ff ff ff ff 	mov    $0xffffffffffffffff,%rdx
  40a8c4:	48 85 c0             	test   %rax,%rax
  40a8c7:	48 0f 48 c2          	cmovs  %rdx,%rax
  40a8cb:	48 89 83 20 02 00 00 	mov    %rax,0x220(%rbx)
  40a8d2:	e9 e9 f9 ff ff       	jmpq   40a2c0 <httpd_parse_request+0x240>
  40a8d7:	66 0f 1f 84 00 00 00 	nopw   0x0(%rax,%rax,1)
  40a8de:	00 00 
  40a8e0:	41 ba 2e 00 00 00    	mov    $0x2e,%r10d
  40a8e6:	66 44 89 10          	mov    %r10w,(%rax)
  40a8ea:	e9 19 f9 ff ff       	jmpq   40a208 <httpd_parse_request+0x188>
  40a8ef:	90                   	nop
  40a8f0:	80 7a 01 2e          	cmpb   $0x2e,0x1(%rdx)
  40a8f4:	0f 85 9a f9 ff ff    	jne    40a294 <httpd_parse_request+0x214>
  40a8fa:	0f b6 42 02          	movzbl 0x2(%rdx),%eax
  40a8fe:	84 c0                	test   %al,%al
  40a900:	0f 84 da fc ff ff    	je     40a5e0 <httpd_parse_request+0x560>
  40a906:	3c 2f                	cmp    $0x2f,%al
  40a908:	0f 85 86 f9 ff ff    	jne    40a294 <httpd_parse_request+0x214>
  40a90e:	e9 cd fc ff ff       	jmpq   40a5e0 <httpd_parse_request+0x560>
  40a913:	0f 1f 44 00 00       	nopl   0x0(%rax,%rax,1)
  40a918:	bf 03 00 00 00       	mov    $0x3,%edi
  40a91d:	e8 1e e7 ff ff       	callq  409040 <httpd_method_str>
  40a922:	4c 89 ef             	mov    %r13,%rdi
  40a925:	48 89 c6             	mov    %rax,%rsi
  40a928:	e8 83 79 ff ff       	callq  4022b0 <strcasecmp@plt>
  40a92d:	85 c0                	test   %eax,%eax
  40a92f:	0f 85 b4 02 00 00    	jne    40abe9 <httpd_parse_request+0xb69>
  40a935:	c7 83 b4 00 00 00 03 	movl   $0x3,0xb4(%rbx)
  40a93c:	00 00 00 
  40a93f:	e9 43 f8 ff ff       	jmpq   40a187 <httpd_parse_request+0x107>
  40a944:	0f 1f 40 00          	nopl   0x0(%rax)
  40a948:	48 89 ef             	mov    %rbp,%rdi
  40a94b:	e8 80 ef ff ff       	callq  4098d0 <httpd_ntoa>
  40a950:	be f8 05 41 00       	mov    $0x4105f8,%esi
  40a955:	48 89 c2             	mov    %rax,%rdx
  40a958:	bf 03 00 00 00       	mov    $0x3,%edi
  40a95d:	31 c0                	xor    %eax,%eax
  40a95f:	e8 8c 7d ff ff       	callq  4026f0 <syslog@plt>
  40a964:	e9 57 f9 ff ff       	jmpq   40a2c0 <httpd_parse_request+0x240>
  40a969:	0f 1f 80 00 00 00 00 	nopl   0x0(%rax)
  40a970:	49 83 c7 10          	add    $0x10,%r15
  40a974:	be c7 f2 40 00       	mov    $0x40f2c7,%esi
  40a979:	4c 89 ff             	mov    %r15,%rdi
  40a97c:	e8 cf 7b ff ff       	callq  402550 <strspn@plt>
  40a981:	49 8d 0c 07          	lea    (%r15,%rax,1),%rcx
  40a985:	48 89 8b 30 01 00 00 	mov    %rcx,0x130(%rbx)
  40a98c:	e9 2f f9 ff ff       	jmpq   40a2c0 <httpd_parse_request+0x240>
  40a991:	0f 1f 80 00 00 00 00 	nopl   0x0(%rax)
  40a998:	43 c6 44 35 ff 00    	movb   $0x0,-0x1(%r13,%r14,1)
  40a99e:	e9 dd fa ff ff       	jmpq   40a480 <httpd_parse_request+0x400>
  40a9a3:	4c 89 ff             	mov    %r15,%rdi
  40a9a6:	e8 75 7a ff ff       	callq  402420 <strlen@plt>
  40a9ab:	4c 89 ee             	mov    %r13,%rsi
  40a9ae:	48 89 c2             	mov    %rax,%rdx
  40a9b1:	4c 89 e7             	mov    %r12,%rdi
  40a9b4:	e8 67 d1 ff ff       	callq  407b20 <httpd_realloc_str>
  40a9b9:	48 8b bb 28 01 00 00 	mov    0x128(%rbx),%rdi
  40a9c0:	4c 89 fe             	mov    %r15,%rsi
  40a9c3:	e8 58 79 ff ff       	callq  402320 <strcpy@plt>
  40a9c8:	e9 f3 f8 ff ff       	jmpq   40a2c0 <httpd_parse_request+0x240>
  40a9cd:	0f 1f 00             	nopl   (%rax)
  40a9d0:	4c 89 ff             	mov    %r15,%rdi
  40a9d3:	e8 48 7a ff ff       	callq  402420 <strlen@plt>
  40a9d8:	48 8d b3 a8 01 00 00 	lea    0x1a8(%rbx),%rsi
  40a9df:	48 8d bb 20 01 00 00 	lea    0x120(%rbx),%rdi
  40a9e6:	48 89 c2             	mov    %rax,%rdx
  40a9e9:	e8 32 d1 ff ff       	callq  407b20 <httpd_realloc_str>
  40a9ee:	e9 ba fc ff ff       	jmpq   40a6ad <httpd_parse_request+0x62d>
  40a9f3:	0f 1f 44 00 00       	nopl   0x0(%rax,%rax,1)
  40a9f8:	c7 83 08 02 00 00 00 	movl   $0x0,0x208(%rbx)
  40a9ff:	00 00 00 
  40aa02:	41 bc 94 f2 40 00    	mov    $0x40f294,%r12d
  40aa08:	e9 28 f7 ff ff       	jmpq   40a135 <httpd_parse_request+0xb5>
  40aa0d:	0f 1f 00             	nopl   (%rax)
  40aa10:	4c 89 ff             	mov    %r15,%rdi
  40aa13:	48 89 04 24          	mov    %rax,(%rsp)
  40aa17:	e8 04 7a ff ff       	callq  402420 <strlen@plt>
  40aa1c:	48 8b 14 24          	mov    (%rsp),%rdx
  40aa20:	4c 89 ee             	mov    %r13,%rsi
  40aa23:	4c 89 e7             	mov    %r12,%rdi
  40aa26:	48 8d 54 02 02       	lea    0x2(%rdx,%rax,1),%rdx
  40aa2b:	e8 f0 d0 ff ff       	callq  407b20 <httpd_realloc_str>
  40aa30:	48 8b 93 28 01 00 00 	mov    0x128(%rbx),%rdx
  40aa37:	48 89 d7             	mov    %rdx,%rdi
  40aa3a:	48 89 14 24          	mov    %rdx,(%rsp)
  40aa3e:	e8 dd 79 ff ff       	callq  402420 <strlen@plt>
  40aa43:	48 8b 14 24          	mov    (%rsp),%rdx
  40aa47:	be 2c 20 00 00       	mov    $0x202c,%esi
  40aa4c:	48 01 c2             	add    %rax,%rdx
  40aa4f:	66 89 32             	mov    %si,(%rdx)
  40aa52:	c6 42 02 00          	movb   $0x0,0x2(%rdx)
  40aa56:	e9 5e ff ff ff       	jmpq   40a9b9 <httpd_parse_request+0x939>
  40aa5b:	49 83 c7 07          	add    $0x7,%r15
  40aa5f:	be c7 f2 40 00       	mov    $0x40f2c7,%esi
  40aa64:	4c 89 ff             	mov    %r15,%rdi
  40aa67:	e8 e4 7a ff ff       	callq  402550 <strspn@plt>
  40aa6c:	49 8d 0c 07          	lea    (%r15,%rax,1),%rcx
  40aa70:	48 89 8b 38 01 00 00 	mov    %rcx,0x138(%rbx)
  40aa77:	e9 44 f8 ff ff       	jmpq   40a2c0 <httpd_parse_request+0x240>
  40aa7c:	49 83 c7 12          	add    $0x12,%r15
  40aa80:	4c 89 ff             	mov    %r15,%rdi
  40aa83:	e8 98 33 00 00       	callq  40de20 <tdate_parse>
  40aa88:	48 83 f8 ff          	cmp    $0xffffffffffffffff,%rax
  40aa8c:	48 89 83 e0 01 00 00 	mov    %rax,0x1e0(%rbx)
  40aa93:	0f 85 27 f8 ff ff    	jne    40a2c0 <httpd_parse_request+0x240>
  40aa99:	4c 89 fa             	mov    %r15,%rdx
  40aa9c:	be 19 f3 40 00       	mov    $0x40f319,%esi
  40aaa1:	bf 07 00 00 00       	mov    $0x7,%edi
  40aaa6:	31 c0                	xor    %eax,%eax
  40aaa8:	e8 43 7c ff ff       	callq  4026f0 <syslog@plt>
  40aaad:	e9 0e f8 ff ff       	jmpq   40a2c0 <httpd_parse_request+0x240>
  40aab2:	ba 09 00 00 00       	mov    $0x9,%edx
  40aab7:	be 38 f3 40 00       	mov    $0x40f338,%esi
  40aabc:	4c 89 ff             	mov    %r15,%rdi
  40aabf:	e8 ec 7b ff ff       	callq  4026b0 <strncasecmp@plt>
  40aac4:	85 c0                	test   %eax,%eax
  40aac6:	74 51                	je     40ab19 <httpd_parse_request+0xa99>
  40aac8:	ba 09 00 00 00       	mov    $0x9,%edx
  40aacd:	be 42 f3 40 00       	mov    $0x40f342,%esi
  40aad2:	4c 89 ff             	mov    %r15,%rdi
  40aad5:	e8 d6 7b ff ff       	callq  4026b0 <strncasecmp@plt>
  40aada:	85 c0                	test   %eax,%eax
  40aadc:	74 3b                	je     40ab19 <httpd_parse_request+0xa99>
  40aade:	ba 0d 00 00 00       	mov    $0xd,%edx
  40aae3:	be 4c f3 40 00       	mov    $0x40f34c,%esi
  40aae8:	4c 89 ff             	mov    %r15,%rdi
  40aaeb:	e8 c0 7b ff ff       	callq  4026b0 <strncasecmp@plt>
  40aaf0:	85 c0                	test   %eax,%eax
  40aaf2:	0f 85 c6 00 00 00    	jne    40abbe <httpd_parse_request+0xb3e>
  40aaf8:	49 83 c7 0d          	add    $0xd,%r15
  40aafc:	be c7 f2 40 00       	mov    $0x40f2c7,%esi
  40ab01:	4c 89 ff             	mov    %r15,%rdi
  40ab04:	e8 47 7a ff ff       	callq  402550 <strspn@plt>
  40ab09:	49 8d 0c 07          	lea    (%r15,%rax,1),%rcx
  40ab0d:	48 89 8b 40 01 00 00 	mov    %rcx,0x140(%rbx)
  40ab14:	e9 a7 f7 ff ff       	jmpq   40a2c0 <httpd_parse_request+0x240>
  40ab19:	49 83 c7 09          	add    $0x9,%r15
  40ab1d:	4c 89 ff             	mov    %r15,%rdi
  40ab20:	e8 fb 32 00 00       	callq  40de20 <tdate_parse>
  40ab25:	48 83 f8 ff          	cmp    $0xffffffffffffffff,%rax
  40ab29:	48 89 83 e8 01 00 00 	mov    %rax,0x1e8(%rbx)
  40ab30:	0f 85 8a f7 ff ff    	jne    40a2c0 <httpd_parse_request+0x240>
  40ab36:	e9 5e ff ff ff       	jmpq   40aa99 <httpd_parse_request+0xa19>
  40ab3b:	4c 8b 8b d0 00 00 00 	mov    0xd0(%rbx),%r9
  40ab42:	41 b8 48 06 41 00    	mov    $0x410648,%r8d
  40ab48:	b9 c9 f2 40 00       	mov    $0x40f2c9,%ecx
  40ab4d:	ba a1 f3 40 00       	mov    $0x40f3a1,%edx
  40ab52:	be f4 01 00 00       	mov    $0x1f4,%esi
  40ab57:	48 89 df             	mov    %rbx,%rdi
  40ab5a:	bd ff ff ff ff       	mov    $0xffffffff,%ebp
  40ab5f:	e8 5c e3 ff ff       	callq  408ec0 <httpd_send_err>
  40ab64:	e9 2b f9 ff ff       	jmpq   40a494 <httpd_parse_request+0x414>
  40ab69:	48 8b ab d0 00 00 00 	mov    0xd0(%rbx),%rbp
  40ab70:	48 8d 7b 10          	lea    0x10(%rbx),%rdi
  40ab74:	e8 57 ed ff ff       	callq  4098d0 <httpd_ntoa>
  40ab79:	48 89 e9             	mov    %rbp,%rcx
  40ab7c:	48 89 c2             	mov    %rax,%rdx
  40ab7f:	be 90 06 41 00       	mov    $0x410690,%esi
  40ab84:	bf 05 00 00 00       	mov    $0x5,%edi
  40ab89:	31 c0                	xor    %eax,%eax
  40ab8b:	bd ff ff ff ff       	mov    $0xffffffff,%ebp
  40ab90:	e8 5b 7b ff ff       	callq  4026f0 <syslog@plt>
  40ab95:	4c 8b 8b d0 00 00 00 	mov    0xd0(%rbx),%r9
  40ab9c:	41 b8 c0 06 41 00    	mov    $0x4106c0,%r8d
  40aba2:	b9 c9 f2 40 00       	mov    $0x40f2c9,%ecx
  40aba7:	ba b0 f3 40 00       	mov    $0x40f3b0,%edx
  40abac:	be 93 01 00 00       	mov    $0x193,%esi
  40abb1:	48 89 df             	mov    %rbx,%rdi
  40abb4:	e8 07 e3 ff ff       	callq  408ec0 <httpd_send_err>
  40abb9:	e9 d6 f8 ff ff       	jmpq   40a494 <httpd_parse_request+0x414>
  40abbe:	ba 0f 00 00 00       	mov    $0xf,%edx
  40abc3:	be 5a f3 40 00       	mov    $0x40f35a,%esi
  40abc8:	4c 89 ff             	mov    %r15,%rdi
  40abcb:	e8 e0 7a ff ff       	callq  4026b0 <strncasecmp@plt>
  40abd0:	85 c0                	test   %eax,%eax
  40abd2:	75 3f                	jne    40ac13 <httpd_parse_request+0xb93>
  40abd4:	49 8d 7f 0f          	lea    0xf(%r15),%rdi
  40abd8:	e8 23 7c ff ff       	callq  402800 <atol@plt>
  40abdd:	48 89 83 f0 01 00 00 	mov    %rax,0x1f0(%rbx)
  40abe4:	e9 d7 f6 ff ff       	jmpq   40a2c0 <httpd_parse_request+0x240>
  40abe9:	4d 89 e9             	mov    %r13,%r9
  40abec:	41 b8 b0 05 41 00    	mov    $0x4105b0,%r8d
  40abf2:	b9 c9 f2 40 00       	mov    $0x40f2c9,%ecx
  40abf7:	ba ae f2 40 00       	mov    $0x40f2ae,%edx
  40abfc:	be f5 01 00 00       	mov    $0x1f5,%esi
  40ac01:	48 89 df             	mov    %rbx,%rdi
  40ac04:	e8 b7 e2 ff ff       	callq  408ec0 <httpd_send_err>
  40ac09:	bd ff ff ff ff       	mov    $0xffffffff,%ebp
  40ac0e:	e9 81 f8 ff ff       	jmpq   40a494 <httpd_parse_request+0x414>
  40ac13:	ba 0e 00 00 00       	mov    $0xe,%edx
  40ac18:	be 6a f3 40 00       	mov    $0x40f36a,%esi
  40ac1d:	4c 89 ff             	mov    %r15,%rdi
  40ac20:	e8 8b 7a ff ff       	callq  4026b0 <strncasecmp@plt>
  40ac25:	85 c0                	test   %eax,%eax
  40ac27:	75 21                	jne    40ac4a <httpd_parse_request+0xbca>
  40ac29:	49 83 c7 0e          	add    $0xe,%r15
  40ac2d:	be c7 f2 40 00       	mov    $0x40f2c7,%esi
  40ac32:	4c 89 ff             	mov    %r15,%rdi
  40ac35:	e8 16 79 ff ff       	callq  402550 <strspn@plt>
  40ac3a:	49 8d 0c 07          	lea    (%r15,%rax,1),%rcx
  40ac3e:	48 89 8b 60 01 00 00 	mov    %rcx,0x160(%rbx)
  40ac45:	e9 76 f6 ff ff       	jmpq   40a2c0 <httpd_parse_request+0x240>
  40ac4a:	ba 0b 00 00 00       	mov    $0xb,%edx
  40ac4f:	be 79 f3 40 00       	mov    $0x40f379,%esi
  40ac54:	4c 89 ff             	mov    %r15,%rdi
  40ac57:	e8 54 7a ff ff       	callq  4026b0 <strncasecmp@plt>
  40ac5c:	85 c0                	test   %eax,%eax
  40ac5e:	75 40                	jne    40aca0 <httpd_parse_request+0xc20>
  40ac60:	49 83 c7 0b          	add    $0xb,%r15
  40ac64:	be c7 f2 40 00       	mov    $0x40f2c7,%esi
  40ac69:	4c 89 ff             	mov    %r15,%rdi
  40ac6c:	e8 df 78 ff ff       	callq  402550 <strspn@plt>
  40ac71:	49 8d 3c 07          	lea    (%r15,%rax,1),%rdi
  40ac75:	be 85 f3 40 00       	mov    $0x40f385,%esi
  40ac7a:	e8 31 76 ff ff       	callq  4022b0 <strcasecmp@plt>
  40ac7f:	85 c0                	test   %eax,%eax
  40ac81:	0f 85 39 f6 ff ff    	jne    40a2c0 <httpd_parse_request+0x240>
  40ac87:	c7 83 28 02 00 00 01 	movl   $0x1,0x228(%rbx)
  40ac8e:	00 00 00 
  40ac91:	e9 2a f6 ff ff       	jmpq   40a2c0 <httpd_parse_request+0x240>
  40ac96:	66 2e 0f 1f 84 00 00 	nopw   %cs:0x0(%rax,%rax,1)
  40ac9d:	00 00 00 
  40aca0:	ba 10 00 00 00       	mov    $0x10,%edx
  40aca5:	be 90 f3 40 00       	mov    $0x40f390,%esi
  40acaa:	4c 89 ff             	mov    %r15,%rdi
  40acad:	e8 fe 79 ff ff       	callq  4026b0 <strncasecmp@plt>
  40acb2:	85 c0                	test   %eax,%eax
  40acb4:	0f 85 06 f6 ff ff    	jne    40a2c0 <httpd_parse_request+0x240>
  40acba:	49 83 c7 10          	add    $0x10,%r15
  40acbe:	be c7 f2 40 00       	mov    $0x40f2c7,%esi
  40acc3:	4c 89 ff             	mov    %r15,%rdi
  40acc6:	e8 85 78 ff ff       	callq  402550 <strspn@plt>
  40accb:	49 8d 3c 07          	lea    (%r15,%rax,1),%rdi
  40accf:	4c 89 f6             	mov    %r14,%rsi
  40acd2:	e8 89 79 ff ff       	callq  402660 <inet_aton@plt>
  40acd7:	e9 e4 f5 ff ff       	jmpq   40a2c0 <httpd_parse_request+0x240>
  40acdc:	0f 1f 40 00          	nopl   0x0(%rax)

000000000040ace0 <make_log_entry>:
  40ace0:	48 8b 47 08          	mov    0x8(%rdi),%rax
  40ace4:	44 8b 40 50          	mov    0x50(%rax),%r8d
  40ace8:	45 85 c0             	test   %r8d,%r8d
  40aceb:	0f 85 d8 01 00 00    	jne    40aec9 <make_log_entry+0x1e9>
  40acf1:	41 57                	push   %r15
  40acf3:	41 56                	push   %r14
  40acf5:	ba 59 f6 40 00       	mov    $0x40f659,%edx
  40acfa:	41 55                	push   %r13
  40acfc:	41 54                	push   %r12
  40acfe:	49 89 f6             	mov    %rsi,%r14
  40ad01:	55                   	push   %rbp
  40ad02:	53                   	push   %rbx
  40ad03:	48 89 fb             	mov    %rdi,%rbx
  40ad06:	48 81 ec 88 02 00 00 	sub    $0x288,%rsp
  40ad0d:	48 8b af 68 01 00 00 	mov    0x168(%rdi),%rbp
  40ad14:	8b 48 64             	mov    0x64(%rax),%ecx
  40ad17:	80 7d 00 00          	cmpb   $0x0,0x0(%rbp)
  40ad1b:	48 0f 44 ea          	cmove  %rdx,%rbp
  40ad1f:	85 c9                	test   %ecx,%ecx
  40ad21:	74 0e                	je     40ad31 <make_log_entry+0x51>
  40ad23:	8b 97 14 02 00 00    	mov    0x214(%rdi),%edx
  40ad29:	85 d2                	test   %edx,%edx
  40ad2b:	0f 84 9f 01 00 00    	je     40aed0 <make_log_entry+0x1f0>
  40ad31:	48 8b 8b d0 00 00 00 	mov    0xd0(%rbx),%rcx
  40ad38:	4c 8d a4 24 40 01 00 	lea    0x140(%rsp),%r12
  40ad3f:	00 
  40ad40:	31 c0                	xor    %eax,%eax
  40ad42:	ba c1 f3 40 00       	mov    $0x40f3c1,%edx
  40ad47:	be 31 01 00 00       	mov    $0x131,%esi
  40ad4c:	4c 89 e7             	mov    %r12,%rdi
  40ad4f:	e8 ec c3 ff ff       	callq  407140 <my_snprintf>
  40ad54:	48 8b 8b c8 00 00 00 	mov    0xc8(%rbx),%rcx
  40ad5b:	48 85 c9             	test   %rcx,%rcx
  40ad5e:	0f 88 af 01 00 00    	js     40af13 <make_log_entry+0x233>
  40ad64:	4c 8d 6c 24 30       	lea    0x30(%rsp),%r13
  40ad69:	ba c8 f3 40 00       	mov    $0x40f3c8,%edx
  40ad6e:	be 28 00 00 00       	mov    $0x28,%esi
  40ad73:	31 c0                	xor    %eax,%eax
  40ad75:	4c 89 ef             	mov    %r13,%rdi
  40ad78:	e8 c3 c3 ff ff       	callq  407140 <my_snprintf>
  40ad7d:	48 8b 43 08          	mov    0x8(%rbx),%rax
  40ad81:	48 83 78 58 00       	cmpq   $0x0,0x58(%rax)
  40ad86:	0f 84 b4 01 00 00    	je     40af40 <make_log_entry+0x260>
  40ad8c:	4d 85 f6             	test   %r14,%r14
  40ad8f:	0f 84 2b 02 00 00    	je     40afc0 <make_log_entry+0x2e0>
  40ad95:	49 8b 06             	mov    (%r14),%rax
  40ad98:	48 89 44 24 28       	mov    %rax,0x28(%rsp)
  40ad9d:	48 8d 7c 24 28       	lea    0x28(%rsp),%rdi
  40ada2:	e8 29 75 ff ff       	callq  4022d0 <localtime@plt>
  40ada7:	48 8d 7c 24 60       	lea    0x60(%rsp),%rdi
  40adac:	49 89 c6             	mov    %rax,%r14
  40adaf:	48 89 c1             	mov    %rax,%rcx
  40adb2:	ba cd f3 40 00       	mov    $0x40f3cd,%edx
  40adb7:	be 64 00 00 00       	mov    $0x64,%esi
  40adbc:	e8 ff 79 ff ff       	callq  4027c0 <strftime@plt>
  40adc1:	49 8b 4e 28          	mov    0x28(%r14),%rcx
  40adc5:	48 ba 89 88 88 88 88 	movabs $0x8888888888888889,%rdx
  40adcc:	88 88 88 
  40adcf:	41 b8 2b 00 00 00    	mov    $0x2b,%r8d
  40add5:	48 89 c8             	mov    %rcx,%rax
  40add8:	48 f7 ea             	imul   %rdx
  40addb:	48 01 ca             	add    %rcx,%rdx
  40adde:	48 c1 f9 3f          	sar    $0x3f,%rcx
  40ade2:	48 c1 fa 05          	sar    $0x5,%rdx
  40ade6:	48 29 ca             	sub    %rcx,%rdx
  40ade9:	85 d2                	test   %edx,%edx
  40adeb:	89 d1                	mov    %edx,%ecx
  40aded:	0f 88 3d 01 00 00    	js     40af30 <make_log_entry+0x250>
  40adf3:	89 c8                	mov    %ecx,%eax
  40adf5:	ba 89 88 88 88       	mov    $0x88888889,%edx
  40adfa:	48 8d bc 24 d0 00 00 	lea    0xd0(%rsp),%rdi
  40ae01:	00 
  40ae02:	f7 ea                	imul   %edx
  40ae04:	89 c8                	mov    %ecx,%eax
  40ae06:	be 64 00 00 00       	mov    $0x64,%esi
  40ae0b:	c1 f8 1f             	sar    $0x1f,%eax
  40ae0e:	01 ca                	add    %ecx,%edx
  40ae10:	c1 fa 05             	sar    $0x5,%edx
  40ae13:	29 c2                	sub    %eax,%edx
  40ae15:	31 c0                	xor    %eax,%eax
  40ae17:	6b d2 28             	imul   $0x28,%edx,%edx
  40ae1a:	44 8d 0c 0a          	lea    (%rdx,%rcx,1),%r9d
  40ae1e:	48 8d 4c 24 60       	lea    0x60(%rsp),%rcx
  40ae23:	ba df f3 40 00       	mov    $0x40f3df,%edx
  40ae28:	e8 13 c3 ff ff       	callq  407140 <my_snprintf>
  40ae2d:	48 8b b3 18 01 00 00 	mov    0x118(%rbx),%rsi
  40ae34:	48 8b 8b 10 01 00 00 	mov    0x110(%rbx),%rcx
  40ae3b:	8b bb b4 00 00 00    	mov    0xb4(%rbx),%edi
  40ae41:	44 8b b3 b8 00 00 00 	mov    0xb8(%rbx),%r14d
  40ae48:	4c 8b bb e0 00 00 00 	mov    0xe0(%rbx),%r15
  40ae4f:	48 89 74 24 18       	mov    %rsi,0x18(%rsp)
  40ae54:	48 89 4c 24 10       	mov    %rcx,0x10(%rsp)
  40ae59:	e8 e2 e1 ff ff       	callq  409040 <httpd_method_str>
  40ae5e:	48 8d 7b 10          	lea    0x10(%rbx),%rdi
  40ae62:	48 89 44 24 08       	mov    %rax,0x8(%rsp)
  40ae67:	e8 64 ea ff ff       	callq  4098d0 <httpd_ntoa>
  40ae6c:	48 8b 74 24 18       	mov    0x18(%rsp),%rsi
  40ae71:	48 8b 7b 08          	mov    0x8(%rbx),%rdi
  40ae75:	48 89 c2             	mov    %rax,%rdx
  40ae78:	31 c0                	xor    %eax,%eax
  40ae7a:	48 8b 7f 58          	mov    0x58(%rdi),%rdi
  40ae7e:	56                   	push   %rsi
  40ae7f:	be 20 07 41 00       	mov    $0x410720,%esi
  40ae84:	48 8b 4c 24 18       	mov    0x18(%rsp),%rcx
  40ae89:	51                   	push   %rcx
  40ae8a:	41 55                	push   %r13
  40ae8c:	48 89 e9             	mov    %rbp,%rcx
  40ae8f:	41 56                	push   %r14
  40ae91:	41 57                	push   %r15
  40ae93:	41 54                	push   %r12
  40ae95:	4c 8b 4c 24 38       	mov    0x38(%rsp),%r9
  40ae9a:	4c 8d 84 24 00 01 00 	lea    0x100(%rsp),%r8
  40aea1:	00 
  40aea2:	e8 49 77 ff ff       	callq  4025f0 <fprintf@plt>
  40aea7:	48 8b 43 08          	mov    0x8(%rbx),%rax
  40aeab:	48 83 c4 30          	add    $0x30,%rsp
  40aeaf:	48 8b 78 58          	mov    0x58(%rax),%rdi
  40aeb3:	e8 08 78 ff ff       	callq  4026c0 <fflush@plt>
  40aeb8:	48 81 c4 88 02 00 00 	add    $0x288,%rsp
  40aebf:	5b                   	pop    %rbx
  40aec0:	5d                   	pop    %rbp
  40aec1:	41 5c                	pop    %r12
  40aec3:	41 5d                	pop    %r13
  40aec5:	41 5e                	pop    %r14
  40aec7:	41 5f                	pop    %r15
  40aec9:	f3 c3                	repz retq 
  40aecb:	0f 1f 44 00 00       	nopl   0x0(%rax,%rax,1)
  40aed0:	48 8b 8f 00 02 00 00 	mov    0x200(%rdi),%rcx
  40aed7:	4c 8b 87 d0 00 00 00 	mov    0xd0(%rdi),%r8
  40aede:	48 85 c9             	test   %rcx,%rcx
  40aee1:	0f 84 f1 00 00 00    	je     40afd8 <make_log_entry+0x2f8>
  40aee7:	4c 8d a4 24 40 01 00 	lea    0x140(%rsp),%r12
  40aeee:	00 
  40aeef:	31 c0                	xor    %eax,%eax
  40aef1:	ba ba f3 40 00       	mov    $0x40f3ba,%edx
  40aef6:	be 31 01 00 00       	mov    $0x131,%esi
  40aefb:	4c 89 e7             	mov    %r12,%rdi
  40aefe:	e8 3d c2 ff ff       	callq  407140 <my_snprintf>
  40af03:	48 8b 8b c8 00 00 00 	mov    0xc8(%rbx),%rcx
  40af0a:	48 85 c9             	test   %rcx,%rcx
  40af0d:	0f 89 51 fe ff ff    	jns    40ad64 <make_log_entry+0x84>
  40af13:	b8 2d 00 00 00       	mov    $0x2d,%eax
  40af18:	4c 8d 6c 24 30       	lea    0x30(%rsp),%r13
  40af1d:	66 89 44 24 30       	mov    %ax,0x30(%rsp)
  40af22:	e9 56 fe ff ff       	jmpq   40ad7d <make_log_entry+0x9d>
  40af27:	66 0f 1f 84 00 00 00 	nopw   0x0(%rax,%rax,1)
  40af2e:	00 00 
  40af30:	f7 d9                	neg    %ecx
  40af32:	41 b8 2d 00 00 00    	mov    $0x2d,%r8d
  40af38:	e9 b6 fe ff ff       	jmpq   40adf3 <make_log_entry+0x113>
  40af3d:	0f 1f 00             	nopl   (%rax)
  40af40:	48 8b b3 18 01 00 00 	mov    0x118(%rbx),%rsi
  40af47:	48 8b 8b 10 01 00 00 	mov    0x110(%rbx),%rcx
  40af4e:	8b bb b4 00 00 00    	mov    0xb4(%rbx),%edi
  40af54:	44 8b b3 b8 00 00 00 	mov    0xb8(%rbx),%r14d
  40af5b:	4c 8b bb e0 00 00 00 	mov    0xe0(%rbx),%r15
  40af62:	48 89 74 24 18       	mov    %rsi,0x18(%rsp)
  40af67:	48 89 4c 24 10       	mov    %rcx,0x10(%rsp)
  40af6c:	e8 cf e0 ff ff       	callq  409040 <httpd_method_str>
  40af71:	48 8d 7b 10          	lea    0x10(%rbx),%rdi
  40af75:	48 89 44 24 08       	mov    %rax,0x8(%rsp)
  40af7a:	e8 51 e9 ff ff       	callq  4098d0 <httpd_ntoa>
  40af7f:	48 83 ec 08          	sub    $0x8,%rsp
  40af83:	48 89 c2             	mov    %rax,%rdx
  40af86:	4d 89 e1             	mov    %r12,%r9
  40af89:	48 8b 74 24 20       	mov    0x20(%rsp),%rsi
  40af8e:	bf 06 00 00 00       	mov    $0x6,%edi
  40af93:	31 c0                	xor    %eax,%eax
  40af95:	56                   	push   %rsi
  40af96:	48 8b 4c 24 20       	mov    0x20(%rsp),%rcx
  40af9b:	be 68 07 41 00       	mov    $0x410768,%esi
  40afa0:	51                   	push   %rcx
  40afa1:	41 55                	push   %r13
  40afa3:	48 89 e9             	mov    %rbp,%rcx
  40afa6:	41 56                	push   %r14
  40afa8:	41 57                	push   %r15
  40afaa:	4c 8b 44 24 38       	mov    0x38(%rsp),%r8
  40afaf:	e8 3c 77 ff ff       	callq  4026f0 <syslog@plt>
  40afb4:	48 83 c4 30          	add    $0x30,%rsp
  40afb8:	e9 fb fe ff ff       	jmpq   40aeb8 <make_log_entry+0x1d8>
  40afbd:	0f 1f 00             	nopl   (%rax)
  40afc0:	31 ff                	xor    %edi,%edi
  40afc2:	e8 79 76 ff ff       	callq  402640 <time@plt>
  40afc7:	48 89 44 24 28       	mov    %rax,0x28(%rsp)
  40afcc:	e9 cc fd ff ff       	jmpq   40ad9d <make_log_entry+0xbd>
  40afd1:	0f 1f 80 00 00 00 00 	nopl   0x0(%rax)
  40afd8:	48 8b 48 08          	mov    0x8(%rax),%rcx
  40afdc:	e9 06 ff ff ff       	jmpq   40aee7 <make_log_entry+0x207>
  40afe1:	0f 1f 44 00 00       	nopl   0x0(%rax,%rax,1)
  40afe6:	66 2e 0f 1f 84 00 00 	nopw   %cs:0x0(%rax,%rax,1)
  40afed:	00 00 00 

000000000040aff0 <httpd_close_conn>:
  40aff0:	55                   	push   %rbp
  40aff1:	53                   	push   %rbx
  40aff2:	48 89 fb             	mov    %rdi,%rbx
  40aff5:	48 89 f5             	mov    %rsi,%rbp
  40aff8:	48 83 ec 08          	sub    $0x8,%rsp
  40affc:	e8 df fc ff ff       	callq  40ace0 <make_log_entry>
  40b001:	48 8b bb c8 02 00 00 	mov    0x2c8(%rbx),%rdi
  40b008:	48 85 ff             	test   %rdi,%rdi
  40b00b:	74 1a                	je     40b027 <httpd_close_conn+0x37>
  40b00d:	48 8d b3 30 02 00 00 	lea    0x230(%rbx),%rsi
  40b014:	48 89 ea             	mov    %rbp,%rdx
  40b017:	e8 b4 1f 00 00       	callq  40cfd0 <mmc_unmap>
  40b01c:	48 c7 83 c8 02 00 00 	movq   $0x0,0x2c8(%rbx)
  40b023:	00 00 00 00 
  40b027:	8b bb c0 02 00 00    	mov    0x2c0(%rbx),%edi
  40b02d:	85 ff                	test   %edi,%edi
  40b02f:	78 0f                	js     40b040 <httpd_close_conn+0x50>
  40b031:	e8 ba 74 ff ff       	callq  4024f0 <close@plt>
  40b036:	c7 83 c0 02 00 00 ff 	movl   $0xffffffff,0x2c0(%rbx)
  40b03d:	ff ff ff 
  40b040:	48 83 c4 08          	add    $0x8,%rsp
  40b044:	5b                   	pop    %rbx
  40b045:	5d                   	pop    %rbp
  40b046:	c3                   	retq   
  40b047:	66 0f 1f 84 00 00 00 	nopw   0x0(%rax,%rax,1)
  40b04e:	00 00 

000000000040b050 <auth_check2>:
  40b050:	41 57                	push   %r15
  40b052:	41 56                	push   %r14
  40b054:	49 89 fe             	mov    %rdi,%r14
  40b057:	41 55                	push   %r13
  40b059:	41 54                	push   %r12
  40b05b:	48 89 f7             	mov    %rsi,%rdi
  40b05e:	55                   	push   %rbp
  40b05f:	53                   	push   %rbx
  40b060:	49 89 f5             	mov    %rsi,%r13
  40b063:	48 81 ec a8 04 00 00 	sub    $0x4a8,%rsp
  40b06a:	e8 b1 73 ff ff       	callq  402420 <strlen@plt>
  40b06f:	48 8d 50 0b          	lea    0xb(%rax),%rdx
  40b073:	be 28 63 61 00       	mov    $0x616328,%esi
  40b078:	bf 30 63 61 00       	mov    $0x616330,%edi
  40b07d:	e8 9e ca ff ff       	callq  407b20 <httpd_realloc_str>
  40b082:	48 8b 35 9f b2 20 00 	mov    0x20b29f(%rip),%rsi        # 616328 <maxauthpath.5589>
  40b089:	48 8b 3d a0 b2 20 00 	mov    0x20b2a0(%rip),%rdi        # 616330 <authpath.5588>
  40b090:	41 b8 e9 f3 40 00    	mov    $0x40f3e9,%r8d
  40b096:	4c 89 e9             	mov    %r13,%rcx
  40b099:	ba f3 f3 40 00       	mov    $0x40f3f3,%edx
  40b09e:	31 c0                	xor    %eax,%eax
  40b0a0:	e8 9b c0 ff ff       	callq  407140 <my_snprintf>
  40b0a5:	48 8b 3d 84 b2 20 00 	mov    0x20b284(%rip),%rdi        # 616330 <authpath.5588>
  40b0ac:	48 8d 74 24 10       	lea    0x10(%rsp),%rsi
  40b0b1:	e8 3a 33 00 00       	callq  40e3f0 <__stat>
  40b0b6:	85 c0                	test   %eax,%eax
  40b0b8:	0f 88 b2 03 00 00    	js     40b470 <auth_check2+0x420>
  40b0be:	49 8b 86 60 01 00 00 	mov    0x160(%r14),%rax
  40b0c5:	80 38 00             	cmpb   $0x0,(%rax)
  40b0c8:	0f 84 7a 03 00 00    	je     40b448 <auth_check2+0x3f8>
  40b0ce:	bf f9 f3 40 00       	mov    $0x40f3f9,%edi
  40b0d3:	b9 06 00 00 00       	mov    $0x6,%ecx
  40b0d8:	48 89 c6             	mov    %rax,%rsi
  40b0db:	f3 a6                	repz cmpsb %es:(%rdi),%ds:(%rsi)
  40b0dd:	0f 85 65 03 00 00    	jne    40b448 <auth_check2+0x3f8>
  40b0e3:	4c 8d a4 24 a0 00 00 	lea    0xa0(%rsp),%r12
  40b0ea:	00 
  40b0eb:	48 8d 78 06          	lea    0x6(%rax),%rdi
  40b0ef:	4c 89 e6             	mov    %r12,%rsi
  40b0f2:	e8 89 c4 ff ff       	callq  407580 <b64_decode.constprop.5>
  40b0f7:	be 3a 00 00 00       	mov    $0x3a,%esi
  40b0fc:	48 98                	cltq   
  40b0fe:	4c 89 e7             	mov    %r12,%rdi
  40b101:	c6 84 04 a0 00 00 00 	movb   $0x0,0xa0(%rsp,%rax,1)
  40b108:	00 
  40b109:	e8 72 73 ff ff       	callq  402480 <strchr@plt>
  40b10e:	48 85 c0             	test   %rax,%rax
  40b111:	0f 84 31 03 00 00    	je     40b448 <auth_check2+0x3f8>
  40b117:	48 8d 78 01          	lea    0x1(%rax),%rdi
  40b11b:	c6 00 00             	movb   $0x0,(%rax)
  40b11e:	be 3a 00 00 00       	mov    $0x3a,%esi
  40b123:	48 89 7c 24 08       	mov    %rdi,0x8(%rsp)
  40b128:	e8 53 73 ff ff       	callq  402480 <strchr@plt>
  40b12d:	48 85 c0             	test   %rax,%rax
  40b130:	74 03                	je     40b135 <auth_check2+0xe5>
  40b132:	c6 00 00             	movb   $0x0,(%rax)
  40b135:	48 83 3d e3 b1 20 00 	cmpq   $0x0,0x20b1e3(%rip)        # 616320 <maxprevauthpath.5599>
  40b13c:	00 
  40b13d:	48 8b 1d ec b1 20 00 	mov    0x20b1ec(%rip),%rbx        # 616330 <authpath.5588>
  40b144:	74 17                	je     40b15d <auth_check2+0x10d>
  40b146:	48 8b 35 cb b1 20 00 	mov    0x20b1cb(%rip),%rsi        # 616318 <prevauthpath.5598>
  40b14d:	48 89 df             	mov    %rbx,%rdi
  40b150:	e8 7b 74 ff ff       	callq  4025d0 <strcmp@plt>
  40b155:	85 c0                	test   %eax,%eax
  40b157:	0f 84 23 02 00 00    	je     40b380 <auth_check2+0x330>
  40b15d:	be 6d ec 40 00       	mov    $0x40ec6d,%esi
  40b162:	48 89 df             	mov    %rbx,%rdi
  40b165:	e8 c6 76 ff ff       	callq  402830 <fopen@plt>
  40b16a:	48 85 c0             	test   %rax,%rax
  40b16d:	48 89 c5             	mov    %rax,%rbp
  40b170:	0f 84 fe 02 00 00    	je     40b474 <auth_check2+0x424>
  40b176:	48 8d 9c 24 a0 02 00 	lea    0x2a0(%rsp),%rbx
  40b17d:	00 
  40b17e:	66 90                	xchg   %ax,%ax
  40b180:	48 89 ea             	mov    %rbp,%rdx
  40b183:	be f4 01 00 00       	mov    $0x1f4,%esi
  40b188:	48 89 df             	mov    %rbx,%rdi
  40b18b:	e8 10 74 ff ff       	callq  4025a0 <fgets@plt>
  40b190:	48 85 c0             	test   %rax,%rax
  40b193:	0f 84 a7 02 00 00    	je     40b440 <auth_check2+0x3f0>
  40b199:	48 89 d8             	mov    %rbx,%rax
  40b19c:	8b 08                	mov    (%rax),%ecx
  40b19e:	48 83 c0 04          	add    $0x4,%rax
  40b1a2:	8d 91 ff fe fe fe    	lea    -0x1010101(%rcx),%edx
  40b1a8:	f7 d1                	not    %ecx
  40b1aa:	21 ca                	and    %ecx,%edx
  40b1ac:	81 e2 80 80 80 80    	and    $0x80808080,%edx
  40b1b2:	74 e8                	je     40b19c <auth_check2+0x14c>
  40b1b4:	89 d1                	mov    %edx,%ecx
  40b1b6:	c1 e9 10             	shr    $0x10,%ecx
  40b1b9:	f7 c2 80 80 00 00    	test   $0x8080,%edx
  40b1bf:	0f 44 d1             	cmove  %ecx,%edx
  40b1c2:	48 8d 48 02          	lea    0x2(%rax),%rcx
  40b1c6:	89 d6                	mov    %edx,%esi
  40b1c8:	48 0f 44 c1          	cmove  %rcx,%rax
  40b1cc:	40 00 d6             	add    %dl,%sil
  40b1cf:	48 83 d8 03          	sbb    $0x3,%rax
  40b1d3:	48 29 d8             	sub    %rbx,%rax
  40b1d6:	83 e8 01             	sub    $0x1,%eax
  40b1d9:	48 98                	cltq   
  40b1db:	80 bc 04 a0 02 00 00 	cmpb   $0xa,0x2a0(%rsp,%rax,1)
  40b1e2:	0a 
  40b1e3:	75 08                	jne    40b1ed <auth_check2+0x19d>
  40b1e5:	c6 84 04 a0 02 00 00 	movb   $0x0,0x2a0(%rsp,%rax,1)
  40b1ec:	00 
  40b1ed:	be 3a 00 00 00       	mov    $0x3a,%esi
  40b1f2:	48 89 df             	mov    %rbx,%rdi
  40b1f5:	e8 86 72 ff ff       	callq  402480 <strchr@plt>
  40b1fa:	48 85 c0             	test   %rax,%rax
  40b1fd:	49 89 c7             	mov    %rax,%r15
  40b200:	0f 84 7a ff ff ff    	je     40b180 <auth_check2+0x130>
  40b206:	c6 00 00             	movb   $0x0,(%rax)
  40b209:	4c 89 e6             	mov    %r12,%rsi
  40b20c:	48 89 df             	mov    %rbx,%rdi
  40b20f:	e8 bc 73 ff ff       	callq  4025d0 <strcmp@plt>
  40b214:	85 c0                	test   %eax,%eax
  40b216:	0f 85 64 ff ff ff    	jne    40b180 <auth_check2+0x130>
  40b21c:	49 8d 47 01          	lea    0x1(%r15),%rax
  40b220:	48 89 ef             	mov    %rbp,%rdi
  40b223:	49 89 c7             	mov    %rax,%r15
  40b226:	e8 b5 71 ff ff       	callq  4023e0 <fclose@plt>
  40b22b:	48 8b 7c 24 08       	mov    0x8(%rsp),%rdi
  40b230:	4c 89 fe             	mov    %r15,%rsi
  40b233:	e8 d8 72 ff ff       	callq  402510 <crypt@plt>
  40b238:	48 85 c0             	test   %rax,%rax
  40b23b:	0f 84 12 02 00 00    	je     40b453 <auth_check2+0x403>
  40b241:	4c 89 fe             	mov    %r15,%rsi
  40b244:	48 89 c7             	mov    %rax,%rdi
  40b247:	e8 84 73 ff ff       	callq  4025d0 <strcmp@plt>
  40b24c:	85 c0                	test   %eax,%eax
  40b24e:	0f 85 f4 01 00 00    	jne    40b448 <auth_check2+0x3f8>
  40b254:	48 89 da             	mov    %rbx,%rdx
  40b257:	8b 0a                	mov    (%rdx),%ecx
  40b259:	48 83 c2 04          	add    $0x4,%rdx
  40b25d:	8d 81 ff fe fe fe    	lea    -0x1010101(%rcx),%eax
  40b263:	f7 d1                	not    %ecx
  40b265:	21 c8                	and    %ecx,%eax
  40b267:	25 80 80 80 80       	and    $0x80808080,%eax
  40b26c:	74 e9                	je     40b257 <auth_check2+0x207>
  40b26e:	89 c1                	mov    %eax,%ecx
  40b270:	49 8d b6 c8 01 00 00 	lea    0x1c8(%r14),%rsi
  40b277:	c1 e9 10             	shr    $0x10,%ecx
  40b27a:	a9 80 80 00 00       	test   $0x8080,%eax
  40b27f:	0f 44 c1             	cmove  %ecx,%eax
  40b282:	48 8d 4a 02          	lea    0x2(%rdx),%rcx
  40b286:	89 c7                	mov    %eax,%edi
  40b288:	48 0f 44 d1          	cmove  %rcx,%rdx
  40b28c:	40 00 c7             	add    %al,%dil
  40b28f:	49 8d be 68 01 00 00 	lea    0x168(%r14),%rdi
  40b296:	48 83 da 03          	sbb    $0x3,%rdx
  40b29a:	48 29 da             	sub    %rbx,%rdx
  40b29d:	e8 7e c8 ff ff       	callq  407b20 <httpd_realloc_str>
  40b2a2:	49 8b be 68 01 00 00 	mov    0x168(%r14),%rdi
  40b2a9:	48 89 de             	mov    %rbx,%rsi
  40b2ac:	e8 6f 70 ff ff       	callq  402320 <strcpy@plt>
  40b2b1:	48 8b 3d 78 b0 20 00 	mov    0x20b078(%rip),%rdi        # 616330 <authpath.5588>
  40b2b8:	e8 63 71 ff ff       	callq  402420 <strlen@plt>
  40b2bd:	be 20 63 61 00       	mov    $0x616320,%esi
  40b2c2:	48 89 c2             	mov    %rax,%rdx
  40b2c5:	bf 18 63 61 00       	mov    $0x616318,%edi
  40b2ca:	e8 51 c8 ff ff       	callq  407b20 <httpd_realloc_str>
  40b2cf:	48 8b 35 5a b0 20 00 	mov    0x20b05a(%rip),%rsi        # 616330 <authpath.5588>
  40b2d6:	48 8b 3d 3b b0 20 00 	mov    0x20b03b(%rip),%rdi        # 616318 <prevauthpath.5598>
  40b2dd:	e8 3e 70 ff ff       	callq  402320 <strcpy@plt>
  40b2e2:	48 8b 44 24 68       	mov    0x68(%rsp),%rax
  40b2e7:	4c 89 e2             	mov    %r12,%rdx
  40b2ea:	48 89 05 1f b0 20 00 	mov    %rax,0x20b01f(%rip)        # 616310 <prevmtime.5600>
  40b2f1:	8b 0a                	mov    (%rdx),%ecx
  40b2f3:	48 83 c2 04          	add    $0x4,%rdx
  40b2f7:	8d 81 ff fe fe fe    	lea    -0x1010101(%rcx),%eax
  40b2fd:	f7 d1                	not    %ecx
  40b2ff:	21 c8                	and    %ecx,%eax
  40b301:	25 80 80 80 80       	and    $0x80808080,%eax
  40b306:	74 e9                	je     40b2f1 <auth_check2+0x2a1>
  40b308:	89 c1                	mov    %eax,%ecx
  40b30a:	be f8 62 61 00       	mov    $0x6162f8,%esi
  40b30f:	bf 08 63 61 00       	mov    $0x616308,%edi
  40b314:	c1 e9 10             	shr    $0x10,%ecx
  40b317:	a9 80 80 00 00       	test   $0x8080,%eax
  40b31c:	0f 44 c1             	cmove  %ecx,%eax
  40b31f:	48 8d 4a 02          	lea    0x2(%rdx),%rcx
  40b323:	89 c3                	mov    %eax,%ebx
  40b325:	48 0f 44 d1          	cmove  %rcx,%rdx
  40b329:	00 c3                	add    %al,%bl
  40b32b:	48 83 da 03          	sbb    $0x3,%rdx
  40b32f:	4c 29 e2             	sub    %r12,%rdx
  40b332:	e8 e9 c7 ff ff       	callq  407b20 <httpd_realloc_str>
  40b337:	48 8b 3d ca af 20 00 	mov    0x20afca(%rip),%rdi        # 616308 <prevuser.5601>
  40b33e:	4c 89 e6             	mov    %r12,%rsi
  40b341:	e8 da 6f ff ff       	callq  402320 <strcpy@plt>
  40b346:	4c 89 ff             	mov    %r15,%rdi
  40b349:	e8 d2 70 ff ff       	callq  402420 <strlen@plt>
  40b34e:	be f0 62 61 00       	mov    $0x6162f0,%esi
  40b353:	48 89 c2             	mov    %rax,%rdx
  40b356:	bf 00 63 61 00       	mov    $0x616300,%edi
  40b35b:	e8 c0 c7 ff ff       	callq  407b20 <httpd_realloc_str>
  40b360:	48 8b 3d 99 af 20 00 	mov    0x20af99(%rip),%rdi        # 616300 <prevcryp.5603>
  40b367:	4c 89 fe             	mov    %r15,%rsi
  40b36a:	e8 b1 6f ff ff       	callq  402320 <strcpy@plt>
  40b36f:	b8 01 00 00 00       	mov    $0x1,%eax
  40b374:	e9 df 00 00 00       	jmpq   40b458 <auth_check2+0x408>
  40b379:	0f 1f 80 00 00 00 00 	nopl   0x0(%rax)
  40b380:	48 8b 05 89 af 20 00 	mov    0x20af89(%rip),%rax        # 616310 <prevmtime.5600>
  40b387:	48 39 44 24 68       	cmp    %rax,0x68(%rsp)
  40b38c:	0f 85 cb fd ff ff    	jne    40b15d <auth_check2+0x10d>
  40b392:	48 8b 35 6f af 20 00 	mov    0x20af6f(%rip),%rsi        # 616308 <prevuser.5601>
  40b399:	4c 89 e7             	mov    %r12,%rdi
  40b39c:	e8 2f 72 ff ff       	callq  4025d0 <strcmp@plt>
  40b3a1:	85 c0                	test   %eax,%eax
  40b3a3:	0f 85 b4 fd ff ff    	jne    40b15d <auth_check2+0x10d>
  40b3a9:	48 8b 35 50 af 20 00 	mov    0x20af50(%rip),%rsi        # 616300 <prevcryp.5603>
  40b3b0:	48 8b 7c 24 08       	mov    0x8(%rsp),%rdi
  40b3b5:	e8 56 71 ff ff       	callq  402510 <crypt@plt>
  40b3ba:	48 85 c0             	test   %rax,%rax
  40b3bd:	0f 84 90 00 00 00    	je     40b453 <auth_check2+0x403>
  40b3c3:	48 8b 35 36 af 20 00 	mov    0x20af36(%rip),%rsi        # 616300 <prevcryp.5603>
  40b3ca:	48 89 c7             	mov    %rax,%rdi
  40b3cd:	e8 fe 71 ff ff       	callq  4025d0 <strcmp@plt>
  40b3d2:	85 c0                	test   %eax,%eax
  40b3d4:	75 72                	jne    40b448 <auth_check2+0x3f8>
  40b3d6:	4c 89 e2             	mov    %r12,%rdx
  40b3d9:	8b 0a                	mov    (%rdx),%ecx
  40b3db:	48 83 c2 04          	add    $0x4,%rdx
  40b3df:	8d 81 ff fe fe fe    	lea    -0x1010101(%rcx),%eax
  40b3e5:	f7 d1                	not    %ecx
  40b3e7:	21 c8                	and    %ecx,%eax
  40b3e9:	25 80 80 80 80       	and    $0x80808080,%eax
  40b3ee:	74 e9                	je     40b3d9 <auth_check2+0x389>
  40b3f0:	89 c1                	mov    %eax,%ecx
  40b3f2:	49 8d b6 c8 01 00 00 	lea    0x1c8(%r14),%rsi
  40b3f9:	49 8d be 68 01 00 00 	lea    0x168(%r14),%rdi
  40b400:	c1 e9 10             	shr    $0x10,%ecx
  40b403:	a9 80 80 00 00       	test   $0x8080,%eax
  40b408:	0f 44 c1             	cmove  %ecx,%eax
  40b40b:	48 8d 4a 02          	lea    0x2(%rdx),%rcx
  40b40f:	89 c3                	mov    %eax,%ebx
  40b411:	48 0f 44 d1          	cmove  %rcx,%rdx
  40b415:	00 c3                	add    %al,%bl
  40b417:	48 83 da 03          	sbb    $0x3,%rdx
  40b41b:	4c 29 e2             	sub    %r12,%rdx
  40b41e:	e8 fd c6 ff ff       	callq  407b20 <httpd_realloc_str>
  40b423:	49 8b be 68 01 00 00 	mov    0x168(%r14),%rdi
  40b42a:	4c 89 e6             	mov    %r12,%rsi
  40b42d:	e8 ee 6e ff ff       	callq  402320 <strcpy@plt>
  40b432:	b8 01 00 00 00       	mov    $0x1,%eax
  40b437:	eb 1f                	jmp    40b458 <auth_check2+0x408>
  40b439:	0f 1f 80 00 00 00 00 	nopl   0x0(%rax)
  40b440:	48 89 ef             	mov    %rbp,%rdi
  40b443:	e8 98 6f ff ff       	callq  4023e0 <fclose@plt>
  40b448:	4c 89 ee             	mov    %r13,%rsi
  40b44b:	4c 89 f7             	mov    %r14,%rdi
  40b44e:	e8 5d db ff ff       	callq  408fb0 <send_authenticate>
  40b453:	b8 ff ff ff ff       	mov    $0xffffffff,%eax
  40b458:	48 81 c4 a8 04 00 00 	add    $0x4a8,%rsp
  40b45f:	5b                   	pop    %rbx
  40b460:	5d                   	pop    %rbp
  40b461:	41 5c                	pop    %r12
  40b463:	41 5d                	pop    %r13
  40b465:	41 5e                	pop    %r14
  40b467:	41 5f                	pop    %r15
  40b469:	c3                   	retq   
  40b46a:	66 0f 1f 44 00 00    	nopw   0x0(%rax,%rax,1)
  40b470:	31 c0                	xor    %eax,%eax
  40b472:	eb e4                	jmp    40b458 <auth_check2+0x408>
  40b474:	48 8b 1d b5 ae 20 00 	mov    0x20aeb5(%rip),%rbx        # 616330 <authpath.5588>
  40b47b:	49 8d 7e 10          	lea    0x10(%r14),%rdi
  40b47f:	e8 4c e4 ff ff       	callq  4098d0 <httpd_ntoa>
  40b484:	48 89 d9             	mov    %rbx,%rcx
  40b487:	48 89 c2             	mov    %rax,%rdx
  40b48a:	be a8 07 41 00       	mov    $0x4107a8,%esi
  40b48f:	31 c0                	xor    %eax,%eax
  40b491:	bf 03 00 00 00       	mov    $0x3,%edi
  40b496:	e8 55 72 ff ff       	callq  4026f0 <syslog@plt>
  40b49b:	4d 8b 8e d0 00 00 00 	mov    0xd0(%r14),%r9
  40b4a2:	41 b8 d8 07 41 00    	mov    $0x4107d8,%r8d
  40b4a8:	b9 c9 f2 40 00       	mov    $0x40f2c9,%ecx
  40b4ad:	ba b0 f3 40 00       	mov    $0x40f3b0,%edx
  40b4b2:	be 93 01 00 00       	mov    $0x193,%esi
  40b4b7:	4c 89 f7             	mov    %r14,%rdi
  40b4ba:	e8 01 da ff ff       	callq  408ec0 <httpd_send_err>
  40b4bf:	b8 ff ff ff ff       	mov    $0xffffffff,%eax
  40b4c4:	eb 92                	jmp    40b458 <auth_check2+0x408>
  40b4c6:	66 2e 0f 1f 84 00 00 	nopw   %cs:0x0(%rax,%rax,1)
  40b4cd:	00 00 00 

000000000040b4d0 <auth_check>:
  40b4d0:	55                   	push   %rbp
  40b4d1:	53                   	push   %rbx
  40b4d2:	48 89 f5             	mov    %rsi,%rbp
  40b4d5:	48 89 fb             	mov    %rdi,%rbx
  40b4d8:	48 83 ec 08          	sub    $0x8,%rsp
  40b4dc:	48 8b 47 08          	mov    0x8(%rdi),%rax
  40b4e0:	8b 50 68             	mov    0x68(%rax),%edx
  40b4e3:	85 d2                	test   %edx,%edx
  40b4e5:	74 39                	je     40b520 <auth_check+0x50>
  40b4e7:	8b 40 64             	mov    0x64(%rax),%eax
  40b4ea:	be 1b f0 40 00       	mov    $0x40f01b,%esi
  40b4ef:	85 c0                	test   %eax,%eax
  40b4f1:	74 13                	je     40b506 <auth_check+0x36>
  40b4f3:	48 8b b7 58 01 00 00 	mov    0x158(%rdi),%rsi
  40b4fa:	b8 1b f0 40 00       	mov    $0x40f01b,%eax
  40b4ff:	80 3e 00             	cmpb   $0x0,(%rsi)
  40b502:	48 0f 44 f0          	cmove  %rax,%rsi
  40b506:	48 89 df             	mov    %rbx,%rdi
  40b509:	e8 42 fb ff ff       	callq  40b050 <auth_check2>
  40b50e:	83 f8 ff             	cmp    $0xffffffff,%eax
  40b511:	74 05                	je     40b518 <auth_check+0x48>
  40b513:	83 f8 01             	cmp    $0x1,%eax
  40b516:	75 08                	jne    40b520 <auth_check+0x50>
  40b518:	48 83 c4 08          	add    $0x8,%rsp
  40b51c:	5b                   	pop    %rbx
  40b51d:	5d                   	pop    %rbp
  40b51e:	c3                   	retq   
  40b51f:	90                   	nop
  40b520:	48 83 c4 08          	add    $0x8,%rsp
  40b524:	48 89 ee             	mov    %rbp,%rsi
  40b527:	48 89 df             	mov    %rbx,%rdi
  40b52a:	5b                   	pop    %rbx
  40b52b:	5d                   	pop    %rbp
  40b52c:	e9 1f fb ff ff       	jmpq   40b050 <auth_check2>
  40b531:	0f 1f 44 00 00       	nopl   0x0(%rax,%rax,1)
  40b536:	66 2e 0f 1f 84 00 00 	nopw   %cs:0x0(%rax,%rax,1)
  40b53d:	00 00 00 

000000000040b540 <check_referer>:
  40b540:	41 56                	push   %r14
  40b542:	41 55                	push   %r13
  40b544:	41 54                	push   %r12
  40b546:	55                   	push   %rbp
  40b547:	bd 01 00 00 00       	mov    $0x1,%ebp
  40b54c:	53                   	push   %rbx
  40b54d:	48 8b 47 08          	mov    0x8(%rdi),%rax
  40b551:	48 83 78 70 00       	cmpq   $0x0,0x70(%rax)
  40b556:	74 7d                	je     40b5d5 <check_referer+0x95>
  40b558:	48 89 fb             	mov    %rdi,%rbx
  40b55b:	e8 f0 d4 ff ff       	callq  408a50 <really_check_referer>
  40b560:	85 c0                	test   %eax,%eax
  40b562:	89 c5                	mov    %eax,%ebp
  40b564:	75 6f                	jne    40b5d5 <check_referer+0x95>
  40b566:	48 8b 43 08          	mov    0x8(%rbx),%rax
  40b56a:	8b 50 64             	mov    0x64(%rax),%edx
  40b56d:	85 d2                	test   %edx,%edx
  40b56f:	74 6f                	je     40b5e0 <check_referer+0xa0>
  40b571:	4c 8b a3 00 02 00 00 	mov    0x200(%rbx),%r12
  40b578:	4d 85 e4             	test   %r12,%r12
  40b57b:	74 63                	je     40b5e0 <check_referer+0xa0>
  40b57d:	4c 8b b3 10 01 00 00 	mov    0x110(%rbx),%r14
  40b584:	4c 8b ab d0 00 00 00 	mov    0xd0(%rbx),%r13
  40b58b:	48 8d 7b 10          	lea    0x10(%rbx),%rdi
  40b58f:	e8 3c e3 ff ff       	callq  4098d0 <httpd_ntoa>
  40b594:	4d 89 f1             	mov    %r14,%r9
  40b597:	48 89 c2             	mov    %rax,%rdx
  40b59a:	4d 89 e8             	mov    %r13,%r8
  40b59d:	4c 89 e1             	mov    %r12,%rcx
  40b5a0:	be 50 08 41 00       	mov    $0x410850,%esi
  40b5a5:	bf 06 00 00 00       	mov    $0x6,%edi
  40b5aa:	31 c0                	xor    %eax,%eax
  40b5ac:	e8 3f 71 ff ff       	callq  4026f0 <syslog@plt>
  40b5b1:	4c 8b 8b d0 00 00 00 	mov    0xd0(%rbx),%r9
  40b5b8:	41 b8 80 08 41 00    	mov    $0x410880,%r8d
  40b5be:	b9 c9 f2 40 00       	mov    $0x40f2c9,%ecx
  40b5c3:	ba b0 f3 40 00       	mov    $0x40f3b0,%edx
  40b5c8:	be 93 01 00 00       	mov    $0x193,%esi
  40b5cd:	48 89 df             	mov    %rbx,%rdi
  40b5d0:	e8 eb d8 ff ff       	callq  408ec0 <httpd_send_err>
  40b5d5:	5b                   	pop    %rbx
  40b5d6:	89 e8                	mov    %ebp,%eax
  40b5d8:	5d                   	pop    %rbp
  40b5d9:	41 5c                	pop    %r12
  40b5db:	41 5d                	pop    %r13
  40b5dd:	41 5e                	pop    %r14
  40b5df:	c3                   	retq   
  40b5e0:	4c 8b 60 08          	mov    0x8(%rax),%r12
  40b5e4:	b8 c9 f2 40 00       	mov    $0x40f2c9,%eax
  40b5e9:	4d 85 e4             	test   %r12,%r12
  40b5ec:	4c 0f 44 e0          	cmove  %rax,%r12
  40b5f0:	eb 8b                	jmp    40b57d <check_referer+0x3d>
  40b5f2:	0f 1f 40 00          	nopl   0x0(%rax)
  40b5f6:	66 2e 0f 1f 84 00 00 	nopw   %cs:0x0(%rax,%rax,1)
  40b5fd:	00 00 00 

000000000040b600 <httpd_read_fully>:
  40b600:	41 57                	push   %r15
  40b602:	41 56                	push   %r14
  40b604:	41 89 fe             	mov    %edi,%r14d
  40b607:	41 55                	push   %r13
  40b609:	41 54                	push   %r12
  40b60b:	49 89 f5             	mov    %rsi,%r13
  40b60e:	55                   	push   %rbp
  40b60f:	53                   	push   %rbx
  40b610:	49 89 d4             	mov    %rdx,%r12
  40b613:	31 ed                	xor    %ebp,%ebp
  40b615:	31 db                	xor    %ebx,%ebx
  40b617:	48 83 ec 08          	sub    $0x8,%rsp
  40b61b:	eb 0a                	jmp    40b627 <httpd_read_fully+0x27>
  40b61d:	0f 1f 00             	nopl   (%rax)
  40b620:	74 5e                	je     40b680 <httpd_read_fully+0x80>
  40b622:	01 c5                	add    %eax,%ebp
  40b624:	48 63 dd             	movslq %ebp,%rbx
  40b627:	4c 39 e3             	cmp    %r12,%rbx
  40b62a:	73 54                	jae    40b680 <httpd_read_fully+0x80>
  40b62c:	4c 89 e2             	mov    %r12,%rdx
  40b62f:	49 8d 74 1d 00       	lea    0x0(%r13,%rbx,1),%rsi
  40b634:	44 89 f7             	mov    %r14d,%edi
  40b637:	48 29 da             	sub    %rbx,%rdx
  40b63a:	e8 41 6f ff ff       	callq  402580 <read@plt>
  40b63f:	85 c0                	test   %eax,%eax
  40b641:	41 89 c7             	mov    %eax,%r15d
  40b644:	79 da                	jns    40b620 <httpd_read_fully+0x20>
  40b646:	e8 a5 6c ff ff       	callq  4022f0 <__errno_location@plt>
  40b64b:	8b 00                	mov    (%rax),%eax
  40b64d:	83 f8 04             	cmp    $0x4,%eax
  40b650:	74 1e                	je     40b670 <httpd_read_fully+0x70>
  40b652:	83 f8 0b             	cmp    $0xb,%eax
  40b655:	74 19                	je     40b670 <httpd_read_fully+0x70>
  40b657:	48 83 c4 08          	add    $0x8,%rsp
  40b65b:	44 89 f8             	mov    %r15d,%eax
  40b65e:	5b                   	pop    %rbx
  40b65f:	5d                   	pop    %rbp
  40b660:	41 5c                	pop    %r12
  40b662:	41 5d                	pop    %r13
  40b664:	41 5e                	pop    %r14
  40b666:	41 5f                	pop    %r15
  40b668:	c3                   	retq   
  40b669:	0f 1f 80 00 00 00 00 	nopl   0x0(%rax)
  40b670:	bf 01 00 00 00       	mov    $0x1,%edi
  40b675:	e8 c6 72 ff ff       	callq  402940 <sleep@plt>
  40b67a:	4c 39 e3             	cmp    %r12,%rbx
  40b67d:	72 ad                	jb     40b62c <httpd_read_fully+0x2c>
  40b67f:	90                   	nop
  40b680:	41 89 ef             	mov    %ebp,%r15d
  40b683:	eb d2                	jmp    40b657 <httpd_read_fully+0x57>
  40b685:	90                   	nop
  40b686:	66 2e 0f 1f 84 00 00 	nopw   %cs:0x0(%rax,%rax,1)
  40b68d:	00 00 00 

000000000040b690 <httpd_write_fully>:
  40b690:	41 57                	push   %r15
  40b692:	41 56                	push   %r14
  40b694:	41 89 fe             	mov    %edi,%r14d
  40b697:	41 55                	push   %r13
  40b699:	41 54                	push   %r12
  40b69b:	49 89 f5             	mov    %rsi,%r13
  40b69e:	55                   	push   %rbp
  40b69f:	53                   	push   %rbx
  40b6a0:	49 89 d4             	mov    %rdx,%r12
  40b6a3:	31 ed                	xor    %ebp,%ebp
  40b6a5:	31 db                	xor    %ebx,%ebx
  40b6a7:	48 83 ec 08          	sub    $0x8,%rsp
  40b6ab:	eb 0a                	jmp    40b6b7 <httpd_write_fully+0x27>
  40b6ad:	0f 1f 00             	nopl   (%rax)
  40b6b0:	74 5e                	je     40b710 <httpd_write_fully+0x80>
  40b6b2:	01 c5                	add    %eax,%ebp
  40b6b4:	48 63 dd             	movslq %ebp,%rbx
  40b6b7:	4c 39 e3             	cmp    %r12,%rbx
  40b6ba:	73 54                	jae    40b710 <httpd_write_fully+0x80>
  40b6bc:	4c 89 e2             	mov    %r12,%rdx
  40b6bf:	49 8d 74 1d 00       	lea    0x0(%r13,%rbx,1),%rsi
  40b6c4:	44 89 f7             	mov    %r14d,%edi
  40b6c7:	48 29 da             	sub    %rbx,%rdx
  40b6ca:	e8 f1 6c ff ff       	callq  4023c0 <write@plt>
  40b6cf:	85 c0                	test   %eax,%eax
  40b6d1:	41 89 c7             	mov    %eax,%r15d
  40b6d4:	79 da                	jns    40b6b0 <httpd_write_fully+0x20>
  40b6d6:	e8 15 6c ff ff       	callq  4022f0 <__errno_location@plt>
  40b6db:	8b 00                	mov    (%rax),%eax
  40b6dd:	83 f8 04             	cmp    $0x4,%eax
  40b6e0:	74 1e                	je     40b700 <httpd_write_fully+0x70>
  40b6e2:	83 f8 0b             	cmp    $0xb,%eax
  40b6e5:	74 19                	je     40b700 <httpd_write_fully+0x70>
  40b6e7:	48 83 c4 08          	add    $0x8,%rsp
  40b6eb:	44 89 f8             	mov    %r15d,%eax
  40b6ee:	5b                   	pop    %rbx
  40b6ef:	5d                   	pop    %rbp
  40b6f0:	41 5c                	pop    %r12
  40b6f2:	41 5d                	pop    %r13
  40b6f4:	41 5e                	pop    %r14
  40b6f6:	41 5f                	pop    %r15
  40b6f8:	c3                   	retq   
  40b6f9:	0f 1f 80 00 00 00 00 	nopl   0x0(%rax)
  40b700:	bf 01 00 00 00       	mov    $0x1,%edi
  40b705:	e8 36 72 ff ff       	callq  402940 <sleep@plt>
  40b70a:	4c 39 e3             	cmp    %r12,%rbx
  40b70d:	72 ad                	jb     40b6bc <httpd_write_fully+0x2c>
  40b70f:	90                   	nop
  40b710:	41 89 ef             	mov    %ebp,%r15d
  40b713:	eb d2                	jmp    40b6e7 <httpd_write_fully+0x57>
  40b715:	90                   	nop
  40b716:	66 2e 0f 1f 84 00 00 	nopw   %cs:0x0(%rax,%rax,1)
  40b71d:	00 00 00 

000000000040b720 <httpd_write_response>:
  40b720:	8b 05 e6 ad 20 00    	mov    0x20ade6(%rip),%eax        # 61650c <sub_process>
  40b726:	53                   	push   %rbx
  40b727:	48 89 fb             	mov    %rdi,%rbx
  40b72a:	85 c0                	test   %eax,%eax
  40b72c:	75 32                	jne    40b760 <httpd_write_response+0x40>
  40b72e:	48 8b 93 d8 01 00 00 	mov    0x1d8(%rbx),%rdx
  40b735:	48 85 d2             	test   %rdx,%rdx
  40b738:	75 06                	jne    40b740 <httpd_write_response+0x20>
  40b73a:	5b                   	pop    %rbx
  40b73b:	c3                   	retq   
  40b73c:	0f 1f 40 00          	nopl   0x0(%rax)
  40b740:	48 8b b3 70 01 00 00 	mov    0x170(%rbx),%rsi
  40b747:	8b bb c0 02 00 00    	mov    0x2c0(%rbx),%edi
  40b74d:	e8 3e ff ff ff       	callq  40b690 <httpd_write_fully>
  40b752:	48 c7 83 d8 01 00 00 	movq   $0x0,0x1d8(%rbx)
  40b759:	00 00 00 00 
  40b75d:	5b                   	pop    %rbx
  40b75e:	c3                   	retq   
  40b75f:	90                   	nop
  40b760:	8b bf c0 02 00 00    	mov    0x2c0(%rdi),%edi
  40b766:	e8 75 c3 ff ff       	callq  407ae0 <httpd_clear_ndelay>
  40b76b:	eb c1                	jmp    40b72e <httpd_write_response+0xe>
  40b76d:	0f 1f 00             	nopl   (%rax)

000000000040b770 <ls>:
  40b770:	41 57                	push   %r15
  40b772:	41 56                	push   %r14
  40b774:	41 55                	push   %r13
  40b776:	41 54                	push   %r12
  40b778:	55                   	push   %rbp
  40b779:	53                   	push   %rbx
  40b77a:	48 81 ec 78 11 00 00 	sub    $0x1178,%rsp
  40b781:	48 89 7c 24 08       	mov    %rdi,0x8(%rsp)
  40b786:	48 8b bf f0 00 00 00 	mov    0xf0(%rdi),%rdi
  40b78d:	e8 5e 6c ff ff       	callq  4023f0 <opendir@plt>
  40b792:	48 85 c0             	test   %rax,%rax
  40b795:	0f 84 4b 07 00 00    	je     40bee6 <ls+0x776>
  40b79b:	48 89 c5             	mov    %rax,%rbp
  40b79e:	48 8b 44 24 08       	mov    0x8(%rsp),%rax
  40b7a3:	8b 80 b4 00 00 00    	mov    0xb4(%rax),%eax
  40b7a9:	83 f8 02             	cmp    $0x2,%eax
  40b7ac:	0f 84 52 09 00 00    	je     40c104 <ls+0x994>
  40b7b2:	83 f8 01             	cmp    $0x1,%eax
  40b7b5:	0f 85 07 09 00 00    	jne    40c0c2 <ls+0x952>
  40b7bb:	48 8b 44 24 08       	mov    0x8(%rsp),%rax
  40b7c0:	48 8b 50 08          	mov    0x8(%rax),%rdx
  40b7c4:	8b 4a 20             	mov    0x20(%rdx),%ecx
  40b7c7:	8b 42 24             	mov    0x24(%rdx),%eax
  40b7ca:	85 c9                	test   %ecx,%ecx
  40b7cc:	74 08                	je     40b7d6 <ls+0x66>
  40b7ce:	39 c1                	cmp    %eax,%ecx
  40b7d0:	0f 8e ae 08 00 00    	jle    40c084 <ls+0x914>
  40b7d6:	83 c0 01             	add    $0x1,%eax
  40b7d9:	89 42 24             	mov    %eax,0x24(%rdx)
  40b7dc:	e8 6f 71 ff ff       	callq  402950 <fork@plt>
  40b7e1:	85 c0                	test   %eax,%eax
  40b7e3:	89 c3                	mov    %eax,%ebx
  40b7e5:	0f 88 4d 08 00 00    	js     40c038 <ls+0x8c8>
  40b7eb:	0f 85 7f 05 00 00    	jne    40bd70 <ls+0x600>
  40b7f1:	48 8b 5c 24 08       	mov    0x8(%rsp),%rbx
  40b7f6:	c7 05 0c ad 20 00 01 	movl   $0x1,0x20ad0c(%rip)        # 61650c <sub_process>
  40b7fd:	00 00 00 
  40b800:	48 8b 7b 08          	mov    0x8(%rbx),%rdi
  40b804:	e8 47 c2 ff ff       	callq  407a50 <httpd_unlisten>
  40b809:	ff b3 88 02 00 00    	pushq  0x288(%rbx)
  40b80f:	41 b8 c9 f2 40 00    	mov    $0x40f2c9,%r8d
  40b815:	6a ff                	pushq  $0xffffffffffffffff
  40b817:	4c 89 c1             	mov    %r8,%rcx
  40b81a:	ba d4 f5 40 00       	mov    $0x40f5d4,%edx
  40b81f:	41 b9 dc f0 40 00    	mov    $0x40f0dc,%r9d
  40b825:	be c8 00 00 00       	mov    $0xc8,%esi
  40b82a:	48 89 df             	mov    %rbx,%rdi
  40b82d:	e8 1e c4 ff ff       	callq  407c50 <send_mime>
  40b832:	48 89 df             	mov    %rbx,%rdi
  40b835:	e8 e6 fe ff ff       	callq  40b720 <httpd_write_response>
  40b83a:	bf 0a 00 00 00       	mov    $0xa,%edi
  40b83f:	e8 8c 6e ff ff       	callq  4026d0 <nice@plt>
  40b844:	8b bb c0 02 00 00    	mov    0x2c0(%rbx),%edi
  40b84a:	be c4 fe 40 00       	mov    $0x40fec4,%esi
  40b84f:	e8 0c 6f ff ff       	callq  402760 <fdopen@plt>
  40b854:	48 85 c0             	test   %rax,%rax
  40b857:	48 89 44 24 20       	mov    %rax,0x20(%rsp)
  40b85c:	5a                   	pop    %rdx
  40b85d:	59                   	pop    %rcx
  40b85e:	0f 84 82 07 00 00    	je     40bfe6 <ls+0x876>
  40b864:	48 8b 44 24 08       	mov    0x8(%rsp),%rax
  40b869:	48 8b 7c 24 10       	mov    0x10(%rsp),%rdi
  40b86e:	be 30 09 41 00       	mov    $0x410930,%esi
  40b873:	31 db                	xor    %ebx,%ebx
  40b875:	48 8b 90 d0 00 00 00 	mov    0xd0(%rax),%rdx
  40b87c:	31 c0                	xor    %eax,%eax
  40b87e:	48 89 d1             	mov    %rdx,%rcx
  40b881:	e8 6a 6d ff ff       	callq  4025f0 <fprintf@plt>
  40b886:	48 89 ef             	mov    %rbp,%rdi
  40b889:	e8 f2 6d ff ff       	callq  402680 <readdir@plt>
  40b88e:	48 85 c0             	test   %rax,%rax
  40b891:	49 89 c7             	mov    %rax,%r15
  40b894:	0f 84 d9 00 00 00    	je     40b973 <ls+0x203>
  40b89a:	66 0f 1f 44 00 00    	nopw   0x0(%rax,%rax,1)
  40b8a0:	8b 05 d2 aa 20 00    	mov    0x20aad2(%rip),%eax        # 616378 <maxnames.5911>
  40b8a6:	4c 8b 25 bb aa 20 00 	mov    0x20aabb(%rip),%r12        # 616368 <nameptrs.5914>
  40b8ad:	39 c3                	cmp    %eax,%ebx
  40b8af:	0f 8c 7d 00 00 00    	jl     40b932 <ls+0x1c2>
  40b8b5:	85 c0                	test   %eax,%eax
  40b8b7:	0f 85 0b 04 00 00    	jne    40bcc8 <ls+0x558>
  40b8bd:	bf 64 40 06 00       	mov    $0x64064,%edi
  40b8c2:	c7 05 ac aa 20 00 64 	movl   $0x64,0x20aaac(%rip)        # 616378 <maxnames.5911>
  40b8c9:	00 00 00 
  40b8cc:	e8 cf 6d ff ff       	callq  4026a0 <malloc@plt>
  40b8d1:	bf 20 03 00 00       	mov    $0x320,%edi
  40b8d6:	49 89 c6             	mov    %rax,%r14
  40b8d9:	48 89 05 90 aa 20 00 	mov    %rax,0x20aa90(%rip)        # 616370 <names.5913>
  40b8e0:	e8 bb 6d ff ff       	callq  4026a0 <malloc@plt>
  40b8e5:	48 89 05 7c aa 20 00 	mov    %rax,0x20aa7c(%rip)        # 616368 <nameptrs.5914>
  40b8ec:	4c 89 f0             	mov    %r14,%rax
  40b8ef:	48 85 c0             	test   %rax,%rax
  40b8f2:	0f 84 25 04 00 00    	je     40bd1d <ls+0x5ad>
  40b8f8:	4c 8b 25 69 aa 20 00 	mov    0x20aa69(%rip),%r12        # 616368 <nameptrs.5914>
  40b8ff:	4d 85 e4             	test   %r12,%r12
  40b902:	0f 84 15 04 00 00    	je     40bd1d <ls+0x5ad>
  40b908:	8b 0d 6a aa 20 00    	mov    0x20aa6a(%rip),%ecx        # 616378 <maxnames.5911>
  40b90e:	85 c9                	test   %ecx,%ecx
  40b910:	7e 20                	jle    40b932 <ls+0x1c2>
  40b912:	83 e9 01             	sub    $0x1,%ecx
  40b915:	4c 89 e2             	mov    %r12,%rdx
  40b918:	49 8d 4c cc 08       	lea    0x8(%r12,%rcx,8),%rcx
  40b91d:	0f 1f 00             	nopl   (%rax)
  40b920:	48 89 02             	mov    %rax,(%rdx)
  40b923:	48 83 c2 08          	add    $0x8,%rdx
  40b927:	48 05 01 10 00 00    	add    $0x1001,%rax
  40b92d:	48 39 d1             	cmp    %rdx,%rcx
  40b930:	75 ee                	jne    40b920 <ls+0x1b0>
  40b932:	4d 8d 6f 13          	lea    0x13(%r15),%r13
  40b936:	4d 8d 3c dc          	lea    (%r12,%rbx,8),%r15
  40b93a:	48 83 c3 01          	add    $0x1,%rbx
  40b93e:	4c 89 ef             	mov    %r13,%rdi
  40b941:	e8 da 6a ff ff       	callq  402420 <strlen@plt>
  40b946:	49 8b 3f             	mov    (%r15),%rdi
  40b949:	4c 63 f0             	movslq %eax,%r14
  40b94c:	4c 89 ee             	mov    %r13,%rsi
  40b94f:	4c 89 f2             	mov    %r14,%rdx
  40b952:	e8 a9 69 ff ff       	callq  402300 <strncpy@plt>
  40b957:	49 8b 07             	mov    (%r15),%rax
  40b95a:	48 89 ef             	mov    %rbp,%rdi
  40b95d:	42 c6 04 30 00       	movb   $0x0,(%rax,%r14,1)
  40b962:	e8 19 6d ff ff       	callq  402680 <readdir@plt>
  40b967:	48 85 c0             	test   %rax,%rax
  40b96a:	49 89 c7             	mov    %rax,%r15
  40b96d:	0f 85 2d ff ff ff    	jne    40b8a0 <ls+0x130>
  40b973:	48 89 ef             	mov    %rbp,%rdi
  40b976:	e8 e5 6b ff ff       	callq  402560 <closedir@plt>
  40b97b:	48 8b 3d e6 a9 20 00 	mov    0x20a9e6(%rip),%rdi        # 616368 <nameptrs.5914>
  40b982:	48 63 f3             	movslq %ebx,%rsi
  40b985:	b9 30 71 40 00       	mov    $0x407130,%ecx
  40b98a:	ba 08 00 00 00       	mov    $0x8,%edx
  40b98f:	e8 cc 69 ff ff       	callq  402360 <qsort@plt>
  40b994:	85 db                	test   %ebx,%ebx
  40b996:	0f 84 fe 02 00 00    	je     40bc9a <ls+0x52a>
  40b99c:	8d 43 ff             	lea    -0x1(%rbx),%eax
  40b99f:	4c 8d b4 24 28 01 00 	lea    0x128(%rsp),%r14
  40b9a6:	00 
  40b9a7:	48 8d ac 24 60 01 00 	lea    0x160(%rsp),%rbp
  40b9ae:	00 
  40b9af:	31 db                	xor    %ebx,%ebx
  40b9b1:	4c 8d 24 c5 08 00 00 	lea    0x8(,%rax,8),%r12
  40b9b8:	00 
  40b9b9:	4c 8b 6c 24 08       	mov    0x8(%rsp),%r13
  40b9be:	49 8b bd f0 00 00 00 	mov    0xf0(%r13),%rdi
  40b9c5:	e8 56 6a ff ff       	callq  402420 <strlen@plt>
  40b9ca:	49 89 c7             	mov    %rax,%r15
  40b9cd:	48 8b 05 94 a9 20 00 	mov    0x20a994(%rip),%rax        # 616368 <nameptrs.5914>
  40b9d4:	48 8b 3c 18          	mov    (%rax,%rbx,1),%rdi
  40b9d8:	e8 43 6a ff ff       	callq  402420 <strlen@plt>
  40b9dd:	49 8d 54 07 01       	lea    0x1(%r15,%rax,1),%rdx
  40b9e2:	be 58 63 61 00       	mov    $0x616358,%esi
  40b9e7:	bf 60 63 61 00       	mov    $0x616360,%edi
  40b9ec:	e8 2f c1 ff ff       	callq  407b20 <httpd_realloc_str>
  40b9f1:	49 8b bd e8 00 00 00 	mov    0xe8(%r13),%rdi
  40b9f8:	e8 23 6a ff ff       	callq  402420 <strlen@plt>
  40b9fd:	49 89 c7             	mov    %rax,%r15
  40ba00:	48 8b 05 61 a9 20 00 	mov    0x20a961(%rip),%rax        # 616368 <nameptrs.5914>
  40ba07:	48 8b 3c 18          	mov    (%rax,%rbx,1),%rdi
  40ba0b:	e8 10 6a ff ff       	callq  402420 <strlen@plt>
  40ba10:	49 8d 54 07 01       	lea    0x1(%r15,%rax,1),%rdx
  40ba15:	be 48 63 61 00       	mov    $0x616348,%esi
  40ba1a:	bf 50 63 61 00       	mov    $0x616350,%edi
  40ba1f:	e8 fc c0 ff ff       	callq  407b20 <httpd_realloc_str>
  40ba24:	49 8b 85 f0 00 00 00 	mov    0xf0(%r13),%rax
  40ba2b:	80 38 00             	cmpb   $0x0,(%rax)
  40ba2e:	74 19                	je     40ba49 <ls+0x2d9>
  40ba30:	41 bf 1b f0 40 00    	mov    $0x40f01b,%r15d
  40ba36:	b9 02 00 00 00       	mov    $0x2,%ecx
  40ba3b:	48 89 c6             	mov    %rax,%rsi
  40ba3e:	4c 89 ff             	mov    %r15,%rdi
  40ba41:	f3 a6                	repz cmpsb %es:(%rdi),%ds:(%rsi)
  40ba43:	0f 85 a5 03 00 00    	jne    40bdee <ls+0x67e>
  40ba49:	49 89 df             	mov    %rbx,%r15
  40ba4c:	4c 03 3d 15 a9 20 00 	add    0x20a915(%rip),%r15        # 616368 <nameptrs.5914>
  40ba53:	48 8b 3d 06 a9 20 00 	mov    0x20a906(%rip),%rdi        # 616360 <name.5915>
  40ba5a:	49 8b 37             	mov    (%r15),%rsi
  40ba5d:	e8 be 68 ff ff       	callq  402320 <strcpy@plt>
  40ba62:	49 8b 37             	mov    (%r15),%rsi
  40ba65:	48 8b 3d e4 a8 20 00 	mov    0x20a8e4(%rip),%rdi        # 616350 <rname.5917>
  40ba6c:	e8 af 68 ff ff       	callq  402320 <strcpy@plt>
  40ba71:	48 8b 3d d8 a8 20 00 	mov    0x20a8d8(%rip),%rdi        # 616350 <rname.5917>
  40ba78:	e8 a3 69 ff ff       	callq  402420 <strlen@plt>
  40ba7d:	48 8d 54 40 01       	lea    0x1(%rax,%rax,2),%rdx
  40ba82:	be 38 63 61 00       	mov    $0x616338,%esi
  40ba87:	bf 40 63 61 00       	mov    $0x616340,%edi
  40ba8c:	e8 8f c0 ff ff       	callq  407b20 <httpd_realloc_str>
  40ba91:	48 8b 15 b8 a8 20 00 	mov    0x20a8b8(%rip),%rdx        # 616350 <rname.5917>
  40ba98:	8b 35 9a a8 20 00    	mov    0x20a89a(%rip),%esi        # 616338 <maxencrname.5920>
  40ba9e:	48 8b 3d 9b a8 20 00 	mov    0x20a89b(%rip),%rdi        # 616340 <encrname.5919>
  40baa5:	e8 e6 b9 ff ff       	callq  407490 <strencode>
  40baaa:	48 8b 3d af a8 20 00 	mov    0x20a8af(%rip),%rdi        # 616360 <name.5915>
  40bab1:	48 8d 74 24 40       	lea    0x40(%rsp),%rsi
  40bab6:	e8 35 29 00 00       	callq  40e3f0 <__stat>
  40babb:	85 c0                	test   %eax,%eax
  40babd:	0f 88 ca 01 00 00    	js     40bc8d <ls+0x51d>
  40bac3:	48 8b 3d 96 a8 20 00 	mov    0x20a896(%rip),%rdi        # 616360 <name.5915>
  40baca:	48 8d b4 24 d0 00 00 	lea    0xd0(%rsp),%rsi
  40bad1:	00 
  40bad2:	e8 29 29 00 00       	callq  40e400 <__lstat>
  40bad7:	85 c0                	test   %eax,%eax
  40bad9:	0f 88 ae 01 00 00    	js     40bc8d <ls+0x51d>
  40badf:	8b 84 24 e8 00 00 00 	mov    0xe8(%rsp),%eax
  40bae6:	c6 84 24 60 01 00 00 	movb   $0x0,0x160(%rsp)
  40baed:	00 
  40baee:	89 c2                	mov    %eax,%edx
  40baf0:	81 e2 00 f0 00 00    	and    $0xf000,%edx
  40baf6:	81 fa 00 60 00 00    	cmp    $0x6000,%edx
  40bafc:	0f 84 d4 04 00 00    	je     40bfd6 <ls+0x866>
  40bb02:	0f 87 30 02 00 00    	ja     40bd38 <ls+0x5c8>
  40bb08:	81 fa 00 20 00 00    	cmp    $0x2000,%edx
  40bb0e:	0f 84 b2 04 00 00    	je     40bfc6 <ls+0x856>
  40bb14:	81 fa 00 40 00 00    	cmp    $0x4000,%edx
  40bb1a:	0f 84 96 04 00 00    	je     40bfb6 <ls+0x846>
  40bb20:	81 fa 00 10 00 00    	cmp    $0x1000,%edx
  40bb26:	0f 84 68 04 00 00    	je     40bf94 <ls+0x824>
  40bb2c:	c6 44 24 20 3f       	movb   $0x3f,0x20(%rsp)
  40bb31:	41 bf c9 f2 40 00    	mov    $0x40f2c9,%r15d
  40bb37:	89 c1                	mov    %eax,%ecx
  40bb39:	c6 44 24 24 00       	movb   $0x0,0x24(%rsp)
  40bb3e:	83 e1 04             	and    $0x4,%ecx
  40bb41:	83 f9 01             	cmp    $0x1,%ecx
  40bb44:	19 c9                	sbb    %ecx,%ecx
  40bb46:	83 e1 bb             	and    $0xffffffbb,%ecx
  40bb49:	83 c1 72             	add    $0x72,%ecx
  40bb4c:	88 4c 24 21          	mov    %cl,0x21(%rsp)
  40bb50:	89 c1                	mov    %eax,%ecx
  40bb52:	83 e1 02             	and    $0x2,%ecx
  40bb55:	83 f9 01             	cmp    $0x1,%ecx
  40bb58:	19 c9                	sbb    %ecx,%ecx
  40bb5a:	83 e0 01             	and    $0x1,%eax
  40bb5d:	83 e1 b6             	and    $0xffffffb6,%ecx
  40bb60:	83 c1 77             	add    $0x77,%ecx
  40bb63:	83 f8 01             	cmp    $0x1,%eax
  40bb66:	19 c0                	sbb    %eax,%eax
  40bb68:	31 ff                	xor    %edi,%edi
  40bb6a:	88 4c 24 22          	mov    %cl,0x22(%rsp)
  40bb6e:	83 e0 b5             	and    $0xffffffb5,%eax
  40bb71:	83 c0 78             	add    $0x78,%eax
  40bb74:	88 44 24 23          	mov    %al,0x23(%rsp)
  40bb78:	e8 c3 6a ff ff       	callq  402640 <time@plt>
  40bb7d:	4c 89 f7             	mov    %r14,%rdi
  40bb80:	48 89 44 24 18       	mov    %rax,0x18(%rsp)
  40bb85:	e8 76 68 ff ff       	callq  402400 <ctime@plt>
  40bb8a:	49 89 c1             	mov    %rax,%r9
  40bb8d:	0f b6 40 04          	movzbl 0x4(%rax),%eax
  40bb91:	48 8b 4c 24 18       	mov    0x18(%rsp),%rcx
  40bb96:	41 c6 41 03 20       	movb   $0x20,0x3(%r9)
  40bb9b:	41 88 01             	mov    %al,(%r9)
  40bb9e:	41 0f b6 41 05       	movzbl 0x5(%r9),%eax
  40bba3:	41 88 41 01          	mov    %al,0x1(%r9)
  40bba7:	41 0f b6 41 06       	movzbl 0x6(%r9),%eax
  40bbac:	41 c6 41 06 20       	movb   $0x20,0x6(%r9)
  40bbb1:	41 88 41 02          	mov    %al,0x2(%r9)
  40bbb5:	41 0f b6 41 08       	movzbl 0x8(%r9),%eax
  40bbba:	41 88 41 04          	mov    %al,0x4(%r9)
  40bbbe:	41 0f b6 41 09       	movzbl 0x9(%r9),%eax
  40bbc3:	41 88 41 05          	mov    %al,0x5(%r9)
  40bbc7:	48 2b 8c 24 28 01 00 	sub    0x128(%rsp),%rcx
  40bbce:	00 
  40bbcf:	48 81 f9 00 f1 ef 00 	cmp    $0xeff100,%rcx
  40bbd6:	0f 8e a5 02 00 00    	jle    40be81 <ls+0x711>
  40bbdc:	41 0f b6 41 14       	movzbl 0x14(%r9),%eax
  40bbe1:	41 c6 41 07 20       	movb   $0x20,0x7(%r9)
  40bbe6:	41 88 41 08          	mov    %al,0x8(%r9)
  40bbea:	41 0f b6 41 15       	movzbl 0x15(%r9),%eax
  40bbef:	41 88 41 09          	mov    %al,0x9(%r9)
  40bbf3:	41 0f b6 41 16       	movzbl 0x16(%r9),%eax
  40bbf8:	41 88 41 0a          	mov    %al,0xa(%r9)
  40bbfc:	41 0f b6 41 17       	movzbl 0x17(%r9),%eax
  40bc01:	41 88 41 0b          	mov    %al,0xb(%r9)
  40bc05:	41 c6 41 0c 00       	movb   $0x0,0xc(%r9)
  40bc0a:	8b 4c 24 58          	mov    0x58(%rsp),%ecx
  40bc0e:	89 c8                	mov    %ecx,%eax
  40bc10:	25 00 f0 00 00       	and    $0xf000,%eax
  40bc15:	3d 00 a0 00 00       	cmp    $0xa000,%eax
  40bc1a:	0f 84 57 02 00 00    	je     40be77 <ls+0x707>
  40bc20:	3d 00 c0 00 00       	cmp    $0xc000,%eax
  40bc25:	0f 84 84 02 00 00    	je     40beaf <ls+0x73f>
  40bc2b:	3d 00 40 00 00       	cmp    $0x4000,%eax
  40bc30:	0f 84 29 02 00 00    	je     40be5f <ls+0x6ef>
  40bc36:	83 e1 01             	and    $0x1,%ecx
  40bc39:	b8 c9 f2 40 00       	mov    $0x40f2c9,%eax
  40bc3e:	b9 f9 f0 40 00       	mov    $0x40f0f9,%ecx
  40bc43:	48 0f 45 c1          	cmovne %rcx,%rax
  40bc47:	48 8b 0d 1a a7 20 00 	mov    0x20a71a(%rip),%rcx        # 616368 <nameptrs.5914>
  40bc4e:	48 8b 34 19          	mov    (%rcx,%rbx,1),%rsi
  40bc52:	b9 c9 f2 40 00       	mov    $0x40f2c9,%ecx
  40bc57:	50                   	push   %rax
  40bc58:	55                   	push   %rbp
  40bc59:	31 c0                	xor    %eax,%eax
  40bc5b:	41 57                	push   %r15
  40bc5d:	56                   	push   %rsi
  40bc5e:	be 28 0a 41 00       	mov    $0x410a28,%esi
  40bc63:	51                   	push   %rcx
  40bc64:	ff 35 d6 a6 20 00    	pushq  0x20a6d6(%rip)        # 616340 <encrname.5919>
  40bc6a:	4c 8b 84 24 30 01 00 	mov    0x130(%rsp),%r8
  40bc71:	00 
  40bc72:	48 8b 8c 24 10 01 00 	mov    0x110(%rsp),%rcx
  40bc79:	00 
  40bc7a:	48 8b 7c 24 40       	mov    0x40(%rsp),%rdi
  40bc7f:	48 8d 54 24 50       	lea    0x50(%rsp),%rdx
  40bc84:	e8 67 69 ff ff       	callq  4025f0 <fprintf@plt>
  40bc89:	48 83 c4 30          	add    $0x30,%rsp
  40bc8d:	48 83 c3 08          	add    $0x8,%rbx
  40bc91:	49 39 dc             	cmp    %rbx,%r12
  40bc94:	0f 85 1f fd ff ff    	jne    40b9b9 <ls+0x249>
  40bc9a:	48 8b 5c 24 10       	mov    0x10(%rsp),%rbx
  40bc9f:	ba 16 00 00 00       	mov    $0x16,%edx
  40bca4:	be 01 00 00 00       	mov    $0x1,%esi
  40bca9:	bf ed f5 40 00       	mov    $0x40f5ed,%edi
  40bcae:	48 89 d9             	mov    %rbx,%rcx
  40bcb1:	e8 2a 6c ff ff       	callq  4028e0 <fwrite@plt>
  40bcb6:	48 89 df             	mov    %rbx,%rdi
  40bcb9:	e8 22 67 ff ff       	callq  4023e0 <fclose@plt>
  40bcbe:	31 ff                	xor    %edi,%edi
  40bcc0:	e8 0b 6c ff ff       	callq  4028d0 <exit@plt>
  40bcc5:	0f 1f 00             	nopl   (%rax)
  40bcc8:	44 8d 24 00          	lea    (%rax,%rax,1),%r12d
  40bccc:	c1 e0 0d             	shl    $0xd,%eax
  40bccf:	48 8b 3d 9a a6 20 00 	mov    0x20a69a(%rip),%rdi        # 616370 <names.5913>
  40bcd6:	42 8d 34 20          	lea    (%rax,%r12,1),%esi
  40bcda:	44 89 25 97 a6 20 00 	mov    %r12d,0x20a697(%rip)        # 616378 <maxnames.5911>
  40bce1:	48 63 f6             	movslq %esi,%rsi
  40bce4:	e8 67 6a ff ff       	callq  402750 <realloc@plt>
  40bce9:	49 63 d4             	movslq %r12d,%rdx
  40bcec:	48 8b 3d 75 a6 20 00 	mov    0x20a675(%rip),%rdi        # 616368 <nameptrs.5914>
  40bcf3:	49 89 c6             	mov    %rax,%r14
  40bcf6:	48 8d 34 d5 00 00 00 	lea    0x0(,%rdx,8),%rsi
  40bcfd:	00 
  40bcfe:	48 89 05 6b a6 20 00 	mov    %rax,0x20a66b(%rip)        # 616370 <names.5913>
  40bd05:	e8 46 6a ff ff       	callq  402750 <realloc@plt>
  40bd0a:	48 89 05 57 a6 20 00 	mov    %rax,0x20a657(%rip)        # 616368 <nameptrs.5914>
  40bd11:	4c 89 f0             	mov    %r14,%rax
  40bd14:	48 85 c0             	test   %rax,%rax
  40bd17:	0f 85 db fb ff ff    	jne    40b8f8 <ls+0x188>
  40bd1d:	bf 03 00 00 00       	mov    $0x3,%edi
  40bd22:	be f8 09 41 00       	mov    $0x4109f8,%esi
  40bd27:	31 c0                	xor    %eax,%eax
  40bd29:	e8 c2 69 ff ff       	callq  4026f0 <syslog@plt>
  40bd2e:	bf 01 00 00 00       	mov    $0x1,%edi
  40bd33:	e8 98 6b ff ff       	callq  4028d0 <exit@plt>
  40bd38:	81 fa 00 a0 00 00    	cmp    $0xa000,%edx
  40bd3e:	0f 84 16 02 00 00    	je     40bf5a <ls+0x7ea>
  40bd44:	81 fa 00 c0 00 00    	cmp    $0xc000,%edx
  40bd4a:	0f 84 fa 01 00 00    	je     40bf4a <ls+0x7da>
  40bd50:	81 fa 00 80 00 00    	cmp    $0x8000,%edx
  40bd56:	0f 85 d0 fd ff ff    	jne    40bb2c <ls+0x3bc>
  40bd5c:	c6 44 24 20 2d       	movb   $0x2d,0x20(%rsp)
  40bd61:	41 bf c9 f2 40 00    	mov    $0x40f2c9,%r15d
  40bd67:	e9 cb fd ff ff       	jmpq   40bb37 <ls+0x3c7>
  40bd6c:	0f 1f 40 00          	nopl   0x0(%rax)
  40bd70:	48 89 ef             	mov    %rbp,%rdi
  40bd73:	e8 e8 67 ff ff       	callq  402560 <closedir@plt>
  40bd78:	48 8b 44 24 08       	mov    0x8(%rsp),%rax
  40bd7d:	89 da                	mov    %ebx,%edx
  40bd7f:	be 68 0a 41 00       	mov    $0x410a68,%esi
  40bd84:	bf 06 00 00 00       	mov    $0x6,%edi
  40bd89:	48 8b 88 f0 00 00 00 	mov    0xf0(%rax),%rcx
  40bd90:	31 c0                	xor    %eax,%eax
  40bd92:	e8 59 69 ff ff       	callq  4026f0 <syslog@plt>
  40bd97:	45 31 c0             	xor    %r8d,%r8d
  40bd9a:	31 ff                	xor    %edi,%edi
  40bd9c:	89 da                	mov    %ebx,%edx
  40bd9e:	b9 30 75 00 00       	mov    $0x7530,%ecx
  40bda3:	be f0 73 40 00       	mov    $0x4073f0,%esi
  40bda8:	e8 83 1c 00 00       	callq  40da30 <tmr_create>
  40bdad:	48 85 c0             	test   %rax,%rax
  40bdb0:	0f 84 7b 01 00 00    	je     40bf31 <ls+0x7c1>
  40bdb6:	48 8b 44 24 08       	mov    0x8(%rsp),%rax
  40bdbb:	c7 80 b8 00 00 00 c8 	movl   $0xc8,0xb8(%rax)
  40bdc2:	00 00 00 
  40bdc5:	48 c7 80 c8 00 00 00 	movq   $0x61a8,0xc8(%rax)
  40bdcc:	a8 61 00 00 
  40bdd0:	c7 80 2c 02 00 00 00 	movl   $0x0,0x22c(%rax)
  40bdd7:	00 00 00 
  40bdda:	31 c0                	xor    %eax,%eax
  40bddc:	48 81 c4 78 11 00 00 	add    $0x1178,%rsp
  40bde3:	5b                   	pop    %rbx
  40bde4:	5d                   	pop    %rbp
  40bde5:	41 5c                	pop    %r12
  40bde7:	41 5d                	pop    %r13
  40bde9:	41 5e                	pop    %r14
  40bdeb:	41 5f                	pop    %r15
  40bded:	c3                   	retq   
  40bdee:	48 8b 15 73 a5 20 00 	mov    0x20a573(%rip),%rdx        # 616368 <nameptrs.5914>
  40bdf5:	48 8b 35 5c a5 20 00 	mov    0x20a55c(%rip),%rsi        # 616358 <maxname.5916>
  40bdfc:	48 89 c1             	mov    %rax,%rcx
  40bdff:	48 8b 3d 5a a5 20 00 	mov    0x20a55a(%rip),%rdi        # 616360 <name.5915>
  40be06:	31 c0                	xor    %eax,%eax
  40be08:	4c 8b 04 1a          	mov    (%rdx,%rbx,1),%r8
  40be0c:	ba f3 f3 40 00       	mov    $0x40f3f3,%edx
  40be11:	e8 2a b3 ff ff       	callq  407140 <my_snprintf>
  40be16:	48 8b 44 24 08       	mov    0x8(%rsp),%rax
  40be1b:	b9 02 00 00 00       	mov    $0x2,%ecx
  40be20:	4c 89 ff             	mov    %r15,%rdi
  40be23:	48 8b 80 e8 00 00 00 	mov    0xe8(%rax),%rax
  40be2a:	48 89 c6             	mov    %rax,%rsi
  40be2d:	f3 a6                	repz cmpsb %es:(%rdi),%ds:(%rsi)
  40be2f:	0f 85 84 00 00 00    	jne    40beb9 <ls+0x749>
  40be35:	48 8b 05 2c a5 20 00 	mov    0x20a52c(%rip),%rax        # 616368 <nameptrs.5914>
  40be3c:	48 8b 35 05 a5 20 00 	mov    0x20a505(%rip),%rsi        # 616348 <maxrname.5918>
  40be43:	ba ab f4 40 00       	mov    $0x40f4ab,%edx
  40be48:	48 8b 3d 01 a5 20 00 	mov    0x20a501(%rip),%rdi        # 616350 <rname.5917>
  40be4f:	48 8b 0c 18          	mov    (%rax,%rbx,1),%rcx
  40be53:	31 c0                	xor    %eax,%eax
  40be55:	e8 e6 b2 ff ff       	callq  407140 <my_snprintf>
  40be5a:	e9 12 fc ff ff       	jmpq   40ba71 <ls+0x301>
  40be5f:	48 8b 05 02 a5 20 00 	mov    0x20a502(%rip),%rax        # 616368 <nameptrs.5914>
  40be66:	48 8b 34 18          	mov    (%rax,%rbx,1),%rsi
  40be6a:	b8 17 f0 40 00       	mov    $0x40f017,%eax
  40be6f:	48 89 c1             	mov    %rax,%rcx
  40be72:	e9 e0 fd ff ff       	jmpq   40bc57 <ls+0x4e7>
  40be77:	b8 b3 f5 40 00       	mov    $0x40f5b3,%eax
  40be7c:	e9 c6 fd ff ff       	jmpq   40bc47 <ls+0x4d7>
  40be81:	41 0f b6 41 0b       	movzbl 0xb(%r9),%eax
  40be86:	41 c6 41 09 3a       	movb   $0x3a,0x9(%r9)
  40be8b:	41 88 41 07          	mov    %al,0x7(%r9)
  40be8f:	41 0f b6 41 0c       	movzbl 0xc(%r9),%eax
  40be94:	41 88 41 08          	mov    %al,0x8(%r9)
  40be98:	41 0f b6 41 0e       	movzbl 0xe(%r9),%eax
  40be9d:	41 88 41 0a          	mov    %al,0xa(%r9)
  40bea1:	41 0f b6 41 0f       	movzbl 0xf(%r9),%eax
  40bea6:	41 88 41 0b          	mov    %al,0xb(%r9)
  40beaa:	e9 56 fd ff ff       	jmpq   40bc05 <ls+0x495>
  40beaf:	b8 b5 f5 40 00       	mov    $0x40f5b5,%eax
  40beb4:	e9 8e fd ff ff       	jmpq   40bc47 <ls+0x4d7>
  40beb9:	48 8b 15 a8 a4 20 00 	mov    0x20a4a8(%rip),%rdx        # 616368 <nameptrs.5914>
  40bec0:	48 8b 35 81 a4 20 00 	mov    0x20a481(%rip),%rsi        # 616348 <maxrname.5918>
  40bec7:	48 89 c1             	mov    %rax,%rcx
  40beca:	48 8b 3d 7f a4 20 00 	mov    0x20a47f(%rip),%rdi        # 616350 <rname.5917>
  40bed1:	31 c0                	xor    %eax,%eax
  40bed3:	4c 8b 04 1a          	mov    (%rdx,%rbx,1),%r8
  40bed7:	ba 86 f4 40 00       	mov    $0x40f486,%edx
  40bedc:	e8 5f b2 ff ff       	callq  407140 <my_snprintf>
  40bee1:	e9 8b fb ff ff       	jmpq   40ba71 <ls+0x301>
  40bee6:	48 8b 5c 24 08       	mov    0x8(%rsp),%rbx
  40beeb:	31 c0                	xor    %eax,%eax
  40beed:	be b7 f5 40 00       	mov    $0x40f5b7,%esi
  40bef2:	bf 03 00 00 00       	mov    $0x3,%edi
  40bef7:	48 8b 93 f0 00 00 00 	mov    0xf0(%rbx),%rdx
  40befe:	e8 ed 67 ff ff       	callq  4026f0 <syslog@plt>
  40bf03:	4c 8b 8b d0 00 00 00 	mov    0xd0(%rbx),%r9
  40bf0a:	41 b8 f0 08 41 00    	mov    $0x4108f0,%r8d
  40bf10:	b9 c9 f2 40 00       	mov    $0x40f2c9,%ecx
  40bf15:	ba ca f5 40 00       	mov    $0x40f5ca,%edx
  40bf1a:	be 94 01 00 00       	mov    $0x194,%esi
  40bf1f:	48 89 df             	mov    %rbx,%rdi
  40bf22:	e8 99 cf ff ff       	callq  408ec0 <httpd_send_err>
  40bf27:	b8 ff ff ff ff       	mov    $0xffffffff,%eax
  40bf2c:	e9 ab fe ff ff       	jmpq   40bddc <ls+0x66c>
  40bf31:	bf 02 00 00 00       	mov    $0x2,%edi
  40bf36:	be a0 0a 41 00       	mov    $0x410aa0,%esi
  40bf3b:	e8 b0 67 ff ff       	callq  4026f0 <syslog@plt>
  40bf40:	bf 01 00 00 00       	mov    $0x1,%edi
  40bf45:	e8 86 69 ff ff       	callq  4028d0 <exit@plt>
  40bf4a:	c6 44 24 20 73       	movb   $0x73,0x20(%rsp)
  40bf4f:	41 bf c9 f2 40 00    	mov    $0x40f2c9,%r15d
  40bf55:	e9 dd fb ff ff       	jmpq   40bb37 <ls+0x3c7>
  40bf5a:	48 8b 3d ff a3 20 00 	mov    0x20a3ff(%rip),%rdi        # 616360 <name.5915>
  40bf61:	ba 00 10 00 00       	mov    $0x1000,%edx
  40bf66:	48 89 ee             	mov    %rbp,%rsi
  40bf69:	c6 44 24 20 6c       	movb   $0x6c,0x20(%rsp)
  40bf6e:	e8 2d 64 ff ff       	callq  4023a0 <readlink@plt>
  40bf73:	83 f8 ff             	cmp    $0xffffffff,%eax
  40bf76:	74 2c                	je     40bfa4 <ls+0x834>
  40bf78:	48 98                	cltq   
  40bf7a:	41 bf ab f5 40 00    	mov    $0x40f5ab,%r15d
  40bf80:	c6 84 04 60 01 00 00 	movb   $0x0,0x160(%rsp,%rax,1)
  40bf87:	00 
  40bf88:	8b 84 24 e8 00 00 00 	mov    0xe8(%rsp),%eax
  40bf8f:	e9 a3 fb ff ff       	jmpq   40bb37 <ls+0x3c7>
  40bf94:	c6 44 24 20 70       	movb   $0x70,0x20(%rsp)
  40bf99:	41 bf c9 f2 40 00    	mov    $0x40f2c9,%r15d
  40bf9f:	e9 93 fb ff ff       	jmpq   40bb37 <ls+0x3c7>
  40bfa4:	8b 84 24 e8 00 00 00 	mov    0xe8(%rsp),%eax
  40bfab:	41 bf c9 f2 40 00    	mov    $0x40f2c9,%r15d
  40bfb1:	e9 81 fb ff ff       	jmpq   40bb37 <ls+0x3c7>
  40bfb6:	c6 44 24 20 64       	movb   $0x64,0x20(%rsp)
  40bfbb:	41 bf c9 f2 40 00    	mov    $0x40f2c9,%r15d
  40bfc1:	e9 71 fb ff ff       	jmpq   40bb37 <ls+0x3c7>
  40bfc6:	c6 44 24 20 63       	movb   $0x63,0x20(%rsp)
  40bfcb:	41 bf c9 f2 40 00    	mov    $0x40f2c9,%r15d
  40bfd1:	e9 61 fb ff ff       	jmpq   40bb37 <ls+0x3c7>
  40bfd6:	c6 44 24 20 62       	movb   $0x62,0x20(%rsp)
  40bfdb:	41 bf c9 f2 40 00    	mov    $0x40f2c9,%r15d
  40bfe1:	e9 51 fb ff ff       	jmpq   40bb37 <ls+0x3c7>
  40bfe6:	be e1 f5 40 00       	mov    $0x40f5e1,%esi
  40bfeb:	bf 03 00 00 00       	mov    $0x3,%edi
  40bff0:	e8 fb 66 ff ff       	callq  4026f0 <syslog@plt>
  40bff5:	48 8b 5c 24 08       	mov    0x8(%rsp),%rbx
  40bffa:	41 b8 48 06 41 00    	mov    $0x410648,%r8d
  40c000:	b9 c9 f2 40 00       	mov    $0x40f2c9,%ecx
  40c005:	ba a1 f3 40 00       	mov    $0x40f3a1,%edx
  40c00a:	be f4 01 00 00       	mov    $0x1f4,%esi
  40c00f:	4c 8b 8b d0 00 00 00 	mov    0xd0(%rbx),%r9
  40c016:	48 89 df             	mov    %rbx,%rdi
  40c019:	e8 a2 ce ff ff       	callq  408ec0 <httpd_send_err>
  40c01e:	48 89 df             	mov    %rbx,%rdi
  40c021:	e8 fa f6 ff ff       	callq  40b720 <httpd_write_response>
  40c026:	48 89 ef             	mov    %rbp,%rdi
  40c029:	e8 32 65 ff ff       	callq  402560 <closedir@plt>
  40c02e:	bf 01 00 00 00       	mov    $0x1,%edi
  40c033:	e8 98 68 ff ff       	callq  4028d0 <exit@plt>
  40c038:	be d7 f5 40 00       	mov    $0x40f5d7,%esi
  40c03d:	bf 03 00 00 00       	mov    $0x3,%edi
  40c042:	31 c0                	xor    %eax,%eax
  40c044:	e8 a7 66 ff ff       	callq  4026f0 <syslog@plt>
  40c049:	48 89 ef             	mov    %rbp,%rdi
  40c04c:	e8 0f 65 ff ff       	callq  402560 <closedir@plt>
  40c051:	48 8b 44 24 08       	mov    0x8(%rsp),%rax
  40c056:	41 b8 48 06 41 00    	mov    $0x410648,%r8d
  40c05c:	b9 c9 f2 40 00       	mov    $0x40f2c9,%ecx
  40c061:	ba a1 f3 40 00       	mov    $0x40f3a1,%edx
  40c066:	be f4 01 00 00       	mov    $0x1f4,%esi
  40c06b:	4c 8b 88 d0 00 00 00 	mov    0xd0(%rax),%r9
  40c072:	48 89 c7             	mov    %rax,%rdi
  40c075:	e8 46 ce ff ff       	callq  408ec0 <httpd_send_err>
  40c07a:	b8 ff ff ff ff       	mov    $0xffffffff,%eax
  40c07f:	e9 58 fd ff ff       	jmpq   40bddc <ls+0x66c>
  40c084:	48 89 ef             	mov    %rbp,%rdi
  40c087:	e8 d4 64 ff ff       	callq  402560 <closedir@plt>
  40c08c:	48 8b 44 24 08       	mov    0x8(%rsp),%rax
  40c091:	4c 8b 05 c8 9b 20 00 	mov    0x209bc8(%rip),%r8        # 615c60 <httpd_err503form>
  40c098:	b9 c9 f2 40 00       	mov    $0x40f2c9,%ecx
  40c09d:	48 8b 15 c4 9b 20 00 	mov    0x209bc4(%rip),%rdx        # 615c68 <httpd_err503title>
  40c0a4:	be f7 01 00 00       	mov    $0x1f7,%esi
  40c0a9:	4c 8b 88 d0 00 00 00 	mov    0xd0(%rax),%r9
  40c0b0:	48 89 c7             	mov    %rax,%rdi
  40c0b3:	e8 08 ce ff ff       	callq  408ec0 <httpd_send_err>
  40c0b8:	b8 ff ff ff ff       	mov    $0xffffffff,%eax
  40c0bd:	e9 1a fd ff ff       	jmpq   40bddc <ls+0x66c>
  40c0c2:	48 89 ef             	mov    %rbp,%rdi
  40c0c5:	e8 96 64 ff ff       	callq  402560 <closedir@plt>
  40c0ca:	48 8b 5c 24 08       	mov    0x8(%rsp),%rbx
  40c0cf:	8b bb b4 00 00 00    	mov    0xb4(%rbx),%edi
  40c0d5:	e8 66 cf ff ff       	callq  409040 <httpd_method_str>
  40c0da:	41 b8 b0 05 41 00    	mov    $0x4105b0,%r8d
  40c0e0:	49 89 c1             	mov    %rax,%r9
  40c0e3:	b9 c9 f2 40 00       	mov    $0x40f2c9,%ecx
  40c0e8:	ba ae f2 40 00       	mov    $0x40f2ae,%edx
  40c0ed:	be f5 01 00 00       	mov    $0x1f5,%esi
  40c0f2:	48 89 df             	mov    %rbx,%rdi
  40c0f5:	e8 c6 cd ff ff       	callq  408ec0 <httpd_send_err>
  40c0fa:	b8 ff ff ff ff       	mov    $0xffffffff,%eax
  40c0ff:	e9 d8 fc ff ff       	jmpq   40bddc <ls+0x66c>
  40c104:	48 89 ef             	mov    %rbp,%rdi
  40c107:	e8 54 64 ff ff       	callq  402560 <closedir@plt>
  40c10c:	48 8b 44 24 08       	mov    0x8(%rsp),%rax
  40c111:	41 b8 c9 f2 40 00    	mov    $0x40f2c9,%r8d
  40c117:	be c8 00 00 00       	mov    $0xc8,%esi
  40c11c:	41 b9 dc f0 40 00    	mov    $0x40f0dc,%r9d
  40c122:	4c 89 c1             	mov    %r8,%rcx
  40c125:	ba d4 f5 40 00       	mov    $0x40f5d4,%edx
  40c12a:	ff b0 88 02 00 00    	pushq  0x288(%rax)
  40c130:	6a ff                	pushq  $0xffffffffffffffff
  40c132:	48 89 c7             	mov    %rax,%rdi
  40c135:	e8 16 bb ff ff       	callq  407c50 <send_mime>
  40c13a:	5e                   	pop    %rsi
  40c13b:	31 c0                	xor    %eax,%eax
  40c13d:	5f                   	pop    %rdi
  40c13e:	e9 99 fc ff ff       	jmpq   40bddc <ls+0x66c>
  40c143:	0f 1f 00             	nopl   (%rax)
  40c146:	66 2e 0f 1f 84 00 00 	nopw   %cs:0x0(%rax,%rax,1)
  40c14d:	00 00 00 

000000000040c150 <cgi>:
  40c150:	55                   	push   %rbp
  40c151:	53                   	push   %rbx
  40c152:	48 89 fb             	mov    %rdi,%rbx
  40c155:	48 83 ec 08          	sub    $0x8,%rsp
  40c159:	8b bf b4 00 00 00    	mov    0xb4(%rdi),%edi
  40c15f:	89 f8                	mov    %edi,%eax
  40c161:	83 e0 fd             	and    $0xfffffffd,%eax
  40c164:	83 f8 01             	cmp    $0x1,%eax
  40c167:	0f 85 a3 00 00 00    	jne    40c210 <cgi+0xc0>
  40c16d:	48 8b 53 08          	mov    0x8(%rbx),%rdx
  40c171:	8b 4a 20             	mov    0x20(%rdx),%ecx
  40c174:	8b 42 24             	mov    0x24(%rdx),%eax
  40c177:	85 c9                	test   %ecx,%ecx
  40c179:	74 08                	je     40c183 <cgi+0x33>
  40c17b:	39 c1                	cmp    %eax,%ecx
  40c17d:	0f 8e bd 00 00 00    	jle    40c240 <cgi+0xf0>
  40c183:	8b bb c0 02 00 00    	mov    0x2c0(%rbx),%edi
  40c189:	83 c0 01             	add    $0x1,%eax
  40c18c:	89 42 24             	mov    %eax,0x24(%rdx)
  40c18f:	e8 4c b9 ff ff       	callq  407ae0 <httpd_clear_ndelay>
  40c194:	e8 b7 67 ff ff       	callq  402950 <fork@plt>
  40c199:	85 c0                	test   %eax,%eax
  40c19b:	89 c5                	mov    %eax,%ebp
  40c19d:	0f 88 cb 00 00 00    	js     40c26e <cgi+0x11e>
  40c1a3:	0f 84 1d 01 00 00    	je     40c2c6 <cgi+0x176>
  40c1a9:	48 8b 8b f0 00 00 00 	mov    0xf0(%rbx),%rcx
  40c1b0:	89 c2                	mov    %eax,%edx
  40c1b2:	be c0 0a 41 00       	mov    $0x410ac0,%esi
  40c1b7:	31 c0                	xor    %eax,%eax
  40c1b9:	bf 06 00 00 00       	mov    $0x6,%edi
  40c1be:	e8 2d 65 ff ff       	callq  4026f0 <syslog@plt>
  40c1c3:	45 31 c0             	xor    %r8d,%r8d
  40c1c6:	31 ff                	xor    %edi,%edi
  40c1c8:	89 ea                	mov    %ebp,%edx
  40c1ca:	b9 30 75 00 00       	mov    $0x7530,%ecx
  40c1cf:	be f0 73 40 00       	mov    $0x4073f0,%esi
  40c1d4:	e8 57 18 00 00       	callq  40da30 <tmr_create>
  40c1d9:	48 85 c0             	test   %rax,%rax
  40c1dc:	0f 84 cb 00 00 00    	je     40c2ad <cgi+0x15d>
  40c1e2:	c7 83 b8 00 00 00 c8 	movl   $0xc8,0xb8(%rbx)
  40c1e9:	00 00 00 
  40c1ec:	48 c7 83 c8 00 00 00 	movq   $0x61a8,0xc8(%rbx)
  40c1f3:	a8 61 00 00 
  40c1f7:	31 c0                	xor    %eax,%eax
  40c1f9:	c7 83 2c 02 00 00 00 	movl   $0x0,0x22c(%rbx)
  40c200:	00 00 00 
  40c203:	48 83 c4 08          	add    $0x8,%rsp
  40c207:	5b                   	pop    %rbx
  40c208:	5d                   	pop    %rbp
  40c209:	c3                   	retq   
  40c20a:	66 0f 1f 44 00 00    	nopw   0x0(%rax,%rax,1)
  40c210:	e8 2b ce ff ff       	callq  409040 <httpd_method_str>
  40c215:	41 b8 b0 05 41 00    	mov    $0x4105b0,%r8d
  40c21b:	49 89 c1             	mov    %rax,%r9
  40c21e:	b9 c9 f2 40 00       	mov    $0x40f2c9,%ecx
  40c223:	ba ae f2 40 00       	mov    $0x40f2ae,%edx
  40c228:	be f5 01 00 00       	mov    $0x1f5,%esi
  40c22d:	48 89 df             	mov    %rbx,%rdi
  40c230:	e8 8b cc ff ff       	callq  408ec0 <httpd_send_err>
  40c235:	b8 ff ff ff ff       	mov    $0xffffffff,%eax
  40c23a:	eb c7                	jmp    40c203 <cgi+0xb3>
  40c23c:	0f 1f 40 00          	nopl   0x0(%rax)
  40c240:	4c 8b 8b d0 00 00 00 	mov    0xd0(%rbx),%r9
  40c247:	4c 8b 05 12 9a 20 00 	mov    0x209a12(%rip),%r8        # 615c60 <httpd_err503form>
  40c24e:	b9 c9 f2 40 00       	mov    $0x40f2c9,%ecx
  40c253:	48 8b 15 0e 9a 20 00 	mov    0x209a0e(%rip),%rdx        # 615c68 <httpd_err503title>
  40c25a:	be f7 01 00 00       	mov    $0x1f7,%esi
  40c25f:	48 89 df             	mov    %rbx,%rdi
  40c262:	e8 59 cc ff ff       	callq  408ec0 <httpd_send_err>
  40c267:	b8 ff ff ff ff       	mov    $0xffffffff,%eax
  40c26c:	eb 95                	jmp    40c203 <cgi+0xb3>
  40c26e:	31 c0                	xor    %eax,%eax
  40c270:	be d7 f5 40 00       	mov    $0x40f5d7,%esi
  40c275:	bf 03 00 00 00       	mov    $0x3,%edi
  40c27a:	e8 71 64 ff ff       	callq  4026f0 <syslog@plt>
  40c27f:	4c 8b 8b d0 00 00 00 	mov    0xd0(%rbx),%r9
  40c286:	41 b8 48 06 41 00    	mov    $0x410648,%r8d
  40c28c:	b9 c9 f2 40 00       	mov    $0x40f2c9,%ecx
  40c291:	ba a1 f3 40 00       	mov    $0x40f3a1,%edx
  40c296:	be f4 01 00 00       	mov    $0x1f4,%esi
  40c29b:	48 89 df             	mov    %rbx,%rdi
  40c29e:	e8 1d cc ff ff       	callq  408ec0 <httpd_send_err>
  40c2a3:	b8 ff ff ff ff       	mov    $0xffffffff,%eax
  40c2a8:	e9 56 ff ff ff       	jmpq   40c203 <cgi+0xb3>
  40c2ad:	bf 02 00 00 00       	mov    $0x2,%edi
  40c2b2:	be f0 0a 41 00       	mov    $0x410af0,%esi
  40c2b7:	e8 34 64 ff ff       	callq  4026f0 <syslog@plt>
  40c2bc:	bf 01 00 00 00       	mov    $0x1,%edi
  40c2c1:	e8 0a 66 ff ff       	callq  4028d0 <exit@plt>
  40c2c6:	48 8b 7b 08          	mov    0x8(%rbx),%rdi
  40c2ca:	c7 05 38 a2 20 00 01 	movl   $0x1,0x20a238(%rip)        # 61650c <sub_process>
  40c2d1:	00 00 00 
  40c2d4:	e8 77 b7 ff ff       	callq  407a50 <httpd_unlisten>
  40c2d9:	48 89 df             	mov    %rbx,%rdi
  40c2dc:	e8 26 71 ff ff       	callq  403407 <cgi_child>
  40c2e1:	0f 1f 44 00 00       	nopl   0x0(%rax,%rax,1)
  40c2e6:	66 2e 0f 1f 84 00 00 	nopw   %cs:0x0(%rax,%rax,1)
  40c2ed:	00 00 00 

000000000040c2f0 <really_start_request>:
  40c2f0:	41 57                	push   %r15
  40c2f2:	41 56                	push   %r14
  40c2f4:	41 55                	push   %r13
  40c2f6:	41 54                	push   %r12
  40c2f8:	55                   	push   %rbp
  40c2f9:	53                   	push   %rbx
  40c2fa:	48 89 fb             	mov    %rdi,%rbx
  40c2fd:	48 83 ec 28          	sub    $0x28,%rsp
  40c301:	4c 8b a7 f0 00 00 00 	mov    0xf0(%rdi),%r12
  40c308:	48 89 74 24 08       	mov    %rsi,0x8(%rsp)
  40c30d:	4c 89 e7             	mov    %r12,%rdi
  40c310:	e8 0b 61 ff ff       	callq  402420 <strlen@plt>
  40c315:	8b bb b4 00 00 00    	mov    0xb4(%rbx),%edi
  40c31b:	49 89 c5             	mov    %rax,%r13
  40c31e:	48 89 c5             	mov    %rax,%rbp
  40c321:	8d 47 ff             	lea    -0x1(%rdi),%eax
  40c324:	83 f8 02             	cmp    $0x2,%eax
  40c327:	0f 87 63 05 00 00    	ja     40c890 <really_start_request+0x5a0>
  40c32d:	4c 8d b3 30 02 00 00 	lea    0x230(%rbx),%r14
  40c334:	4c 89 e7             	mov    %r12,%rdi
  40c337:	4c 89 f6             	mov    %r14,%rsi
  40c33a:	e8 b1 20 00 00       	callq  40e3f0 <__stat>
  40c33f:	85 c0                	test   %eax,%eax
  40c341:	0f 88 c9 04 00 00    	js     40c810 <really_start_request+0x520>
  40c347:	8b 83 48 02 00 00    	mov    0x248(%rbx),%eax
  40c34d:	a8 05                	test   $0x5,%al
  40c34f:	0f 84 7b 05 00 00    	je     40c8d0 <really_start_request+0x5e0>
  40c355:	25 00 f0 00 00       	and    $0xf000,%eax
  40c35a:	3d 00 40 00 00       	cmp    $0x4000,%eax
  40c35f:	0f 84 93 01 00 00    	je     40c4f8 <really_start_request+0x208>
  40c365:	48 89 ea             	mov    %rbp,%rdx
  40c368:	be a0 63 61 00       	mov    $0x6163a0,%esi
  40c36d:	bf a8 63 61 00       	mov    $0x6163a8,%edi
  40c372:	e8 a9 b7 ff ff       	callq  407b20 <httpd_realloc_str>
  40c377:	48 8b b3 f0 00 00 00 	mov    0xf0(%rbx),%rsi
  40c37e:	48 8b 3d 23 a0 20 00 	mov    0x20a023(%rip),%rdi        # 6163a8 <dirname.6057>
  40c385:	e8 96 5f ff ff       	callq  402320 <strcpy@plt>
  40c38a:	4c 8b 25 17 a0 20 00 	mov    0x20a017(%rip),%r12        # 6163a8 <dirname.6057>
  40c391:	be 2f 00 00 00       	mov    $0x2f,%esi
  40c396:	4c 89 e7             	mov    %r12,%rdi
  40c399:	e8 12 61 ff ff       	callq  4024b0 <strrchr@plt>
  40c39e:	48 85 c0             	test   %rax,%rax
  40c3a1:	0f 84 19 05 00 00    	je     40c8c0 <really_start_request+0x5d0>
  40c3a7:	c6 00 00             	movb   $0x0,(%rax)
  40c3aa:	48 8b 35 f7 9f 20 00 	mov    0x209ff7(%rip),%rsi        # 6163a8 <dirname.6057>
  40c3b1:	48 89 df             	mov    %rbx,%rdi
  40c3b4:	e8 17 f1 ff ff       	callq  40b4d0 <auth_check>
  40c3b9:	83 f8 ff             	cmp    $0xffffffff,%eax
  40c3bc:	0f 84 76 04 00 00    	je     40c838 <really_start_request+0x548>
  40c3c2:	48 83 fd 09          	cmp    $0x9,%rbp
  40c3c6:	0f 84 84 02 00 00    	je     40c650 <really_start_request+0x360>
  40c3cc:	76 22                	jbe    40c3f0 <really_start_request+0x100>
  40c3ce:	48 8b 83 f0 00 00 00 	mov    0xf0(%rbx),%rax
  40c3d5:	bf e9 f3 40 00       	mov    $0x40f3e9,%edi
  40c3da:	b9 0a 00 00 00       	mov    $0xa,%ecx
  40c3df:	48 8d 74 28 f7       	lea    -0x9(%rax,%rbp,1),%rsi
  40c3e4:	f3 a6                	repz cmpsb %es:(%rdi),%ds:(%rsi)
  40c3e6:	0f 84 e4 02 00 00    	je     40c6d0 <really_start_request+0x3e0>
  40c3ec:	0f 1f 40 00          	nopl   0x0(%rax)
  40c3f0:	48 89 df             	mov    %rbx,%rdi
  40c3f3:	e8 48 f1 ff ff       	callq  40b540 <check_referer>
  40c3f8:	85 c0                	test   %eax,%eax
  40c3fa:	0f 84 38 04 00 00    	je     40c838 <really_start_request+0x548>
  40c400:	48 8b 43 08          	mov    0x8(%rbx),%rax
  40c404:	48 8b 78 18          	mov    0x18(%rax),%rdi
  40c408:	48 85 ff             	test   %rdi,%rdi
  40c40b:	0f 84 e3 02 00 00    	je     40c6f4 <really_start_request+0x404>
  40c411:	f6 83 48 02 00 00 01 	testb  $0x1,0x248(%rbx)
  40c418:	0f 85 c2 02 00 00    	jne    40c6e0 <really_start_request+0x3f0>
  40c41e:	48 8b 83 00 01 00 00 	mov    0x100(%rbx),%rax
  40c425:	80 38 00             	cmpb   $0x0,(%rax)
  40c428:	0f 85 14 05 00 00    	jne    40c942 <really_start_request+0x652>
  40c42e:	8b bb 10 02 00 00    	mov    0x210(%rbx),%edi
  40c434:	85 ff                	test   %edi,%edi
  40c436:	74 24                	je     40c45c <really_start_request+0x16c>
  40c438:	48 8b 93 20 02 00 00 	mov    0x220(%rbx),%rdx
  40c43f:	48 8b 83 60 02 00 00 	mov    0x260(%rbx),%rax
  40c446:	48 83 fa ff          	cmp    $0xffffffffffffffff,%rdx
  40c44a:	74 05                	je     40c451 <really_start_request+0x161>
  40c44c:	48 39 c2             	cmp    %rax,%rdx
  40c44f:	7c 0b                	jl     40c45c <really_start_request+0x16c>
  40c451:	48 83 e8 01          	sub    $0x1,%rax
  40c455:	48 89 83 20 02 00 00 	mov    %rax,0x220(%rbx)
  40c45c:	48 89 df             	mov    %rbx,%rdi
  40c45f:	e8 fc c7 ff ff       	callq  408c60 <figure_mime>
  40c464:	83 bb b4 00 00 00 02 	cmpl   $0x2,0xb4(%rbx)
  40c46b:	74 41                	je     40c4ae <really_start_request+0x1be>
  40c46d:	48 8b 83 e0 01 00 00 	mov    0x1e0(%rbx),%rax
  40c474:	48 83 f8 ff          	cmp    $0xffffffffffffffff,%rax
  40c478:	74 10                	je     40c48a <really_start_request+0x19a>
  40c47a:	48 8b 93 88 02 00 00 	mov    0x288(%rbx),%rdx
  40c481:	48 39 d0             	cmp    %rdx,%rax
  40c484:	0f 8d be 03 00 00    	jge    40c848 <really_start_request+0x558>
  40c48a:	48 8b bb f0 00 00 00 	mov    0xf0(%rbx),%rdi
  40c491:	48 8b 54 24 08       	mov    0x8(%rsp),%rdx
  40c496:	4c 89 f6             	mov    %r14,%rsi
  40c499:	e8 62 08 00 00       	callq  40cd00 <mmc_map>
  40c49e:	48 85 c0             	test   %rax,%rax
  40c4a1:	48 89 83 c8 02 00 00 	mov    %rax,0x2c8(%rbx)
  40c4a8:	0f 84 62 03 00 00    	je     40c810 <really_start_request+0x520>
  40c4ae:	48 8b 8b f8 00 00 00 	mov    0xf8(%rbx),%rcx
  40c4b5:	4c 8b 8b f8 01 00 00 	mov    0x1f8(%rbx),%r9
  40c4bc:	ba d4 f5 40 00       	mov    $0x40f5d4,%edx
  40c4c1:	ff b3 88 02 00 00    	pushq  0x288(%rbx)
  40c4c7:	ff b3 60 02 00 00    	pushq  0x260(%rbx)
  40c4cd:	48 89 df             	mov    %rbx,%rdi
  40c4d0:	41 b8 c9 f2 40 00    	mov    $0x40f2c9,%r8d
  40c4d6:	be c8 00 00 00       	mov    $0xc8,%esi
  40c4db:	e8 70 b7 ff ff       	callq  407c50 <send_mime>
  40c4e0:	58                   	pop    %rax
  40c4e1:	5a                   	pop    %rdx
  40c4e2:	31 c0                	xor    %eax,%eax
  40c4e4:	48 83 c4 28          	add    $0x28,%rsp
  40c4e8:	5b                   	pop    %rbx
  40c4e9:	5d                   	pop    %rbp
  40c4ea:	41 5c                	pop    %r12
  40c4ec:	41 5d                	pop    %r13
  40c4ee:	41 5e                	pop    %r14
  40c4f0:	41 5f                	pop    %r15
  40c4f2:	c3                   	retq   
  40c4f3:	0f 1f 44 00 00       	nopl   0x0(%rax,%rax,1)
  40c4f8:	48 8b 83 00 01 00 00 	mov    0x100(%rbx),%rax
  40c4ff:	80 38 00             	cmpb   $0x0,(%rax)
  40c502:	0f 85 73 04 00 00    	jne    40c97b <really_start_request+0x68b>
  40c508:	48 8b ab e8 00 00 00 	mov    0xe8(%rbx),%rbp
  40c50f:	80 7d 00 00          	cmpb   $0x0,0x0(%rbp)
  40c513:	74 15                	je     40c52a <really_start_request+0x23a>
  40c515:	bf 1b f0 40 00       	mov    $0x40f01b,%edi
  40c51a:	b9 02 00 00 00       	mov    $0x2,%ecx
  40c51f:	48 89 ee             	mov    %rbp,%rsi
  40c522:	f3 a6                	repz cmpsb %es:(%rdi),%ds:(%rsi)
  40c524:	0f 85 7e 01 00 00    	jne    40c6a8 <really_start_request+0x3b8>
  40c52a:	49 8d 45 01          	lea    0x1(%r13),%rax
  40c52e:	bd c8 11 41 00       	mov    $0x4111c8,%ebp
  40c533:	41 bf f0 11 41 00    	mov    $0x4111f0,%r15d
  40c539:	41 bc 6d f6 40 00    	mov    $0x40f66d,%r12d
  40c53f:	48 89 04 24          	mov    %rax,(%rsp)
  40c543:	b8 0a 00 00 00       	mov    $0xa,%eax
  40c548:	eb 16                	jmp    40c560 <really_start_request+0x270>
  40c54a:	66 0f 1f 44 00 00    	nopw   0x0(%rax,%rax,1)
  40c550:	4c 8b 65 00          	mov    0x0(%rbp),%r12
  40c554:	48 83 c5 08          	add    $0x8,%rbp
  40c558:	4c 89 e7             	mov    %r12,%rdi
  40c55b:	e8 c0 5e ff ff       	callq  402420 <strlen@plt>
  40c560:	48 8b 14 24          	mov    (%rsp),%rdx
  40c564:	be b0 63 61 00       	mov    $0x6163b0,%esi
  40c569:	bf b8 63 61 00       	mov    $0x6163b8,%edi
  40c56e:	48 01 c2             	add    %rax,%rdx
  40c571:	e8 aa b5 ff ff       	callq  407b20 <httpd_realloc_str>
  40c576:	48 8b b3 f0 00 00 00 	mov    0xf0(%rbx),%rsi
  40c57d:	48 8b 3d 34 9e 20 00 	mov    0x209e34(%rip),%rdi        # 6163b8 <indexname.6053>
  40c584:	e8 97 5d ff ff       	callq  402320 <strcpy@plt>
  40c589:	4c 8b 2d 28 9e 20 00 	mov    0x209e28(%rip),%r13        # 6163b8 <indexname.6053>
  40c590:	4c 89 ef             	mov    %r13,%rdi
  40c593:	e8 88 5e ff ff       	callq  402420 <strlen@plt>
  40c598:	48 85 c0             	test   %rax,%rax
  40c59b:	74 08                	je     40c5a5 <really_start_request+0x2b5>
  40c59d:	41 80 7c 05 ff 2f    	cmpb   $0x2f,-0x1(%r13,%rax,1)
  40c5a3:	74 13                	je     40c5b8 <really_start_request+0x2c8>
  40c5a5:	41 b9 2f 00 00 00    	mov    $0x2f,%r9d
  40c5ab:	66 45 89 4c 05 00    	mov    %r9w,0x0(%r13,%rax,1)
  40c5b1:	4c 8b 2d 00 9e 20 00 	mov    0x209e00(%rip),%r13        # 6163b8 <indexname.6053>
  40c5b8:	b9 03 00 00 00       	mov    $0x3,%ecx
  40c5bd:	4c 89 ee             	mov    %r13,%rsi
  40c5c0:	bf 16 f0 40 00       	mov    $0x40f016,%edi
  40c5c5:	f3 a6                	repz cmpsb %es:(%rdi),%ds:(%rsi)
  40c5c7:	75 0c                	jne    40c5d5 <really_start_request+0x2e5>
  40c5c9:	41 c6 45 00 00       	movb   $0x0,0x0(%r13)
  40c5ce:	4c 8b 2d e3 9d 20 00 	mov    0x209de3(%rip),%r13        # 6163b8 <indexname.6053>
  40c5d5:	4c 89 e6             	mov    %r12,%rsi
  40c5d8:	4c 89 ef             	mov    %r13,%rdi
  40c5db:	e8 b0 62 ff ff       	callq  402890 <strcat@plt>
  40c5e0:	48 8b 3d d1 9d 20 00 	mov    0x209dd1(%rip),%rdi        # 6163b8 <indexname.6053>
  40c5e7:	4c 89 f6             	mov    %r14,%rsi
  40c5ea:	e8 01 1e 00 00       	callq  40e3f0 <__stat>
  40c5ef:	85 c0                	test   %eax,%eax
  40c5f1:	0f 89 69 01 00 00    	jns    40c760 <really_start_request+0x470>
  40c5f7:	49 39 ef             	cmp    %rbp,%r15
  40c5fa:	0f 85 50 ff ff ff    	jne    40c550 <really_start_request+0x260>
  40c600:	f6 83 48 02 00 00 04 	testb  $0x4,0x248(%rbx)
  40c607:	0f 84 fc 02 00 00    	je     40c909 <really_start_request+0x619>
  40c60d:	48 8b b3 f0 00 00 00 	mov    0xf0(%rbx),%rsi
  40c614:	48 89 df             	mov    %rbx,%rdi
  40c617:	e8 b4 ee ff ff       	callq  40b4d0 <auth_check>
  40c61c:	83 f8 ff             	cmp    $0xffffffff,%eax
  40c61f:	0f 84 13 02 00 00    	je     40c838 <really_start_request+0x548>
  40c625:	48 89 df             	mov    %rbx,%rdi
  40c628:	e8 13 ef ff ff       	callq  40b540 <check_referer>
  40c62d:	85 c0                	test   %eax,%eax
  40c62f:	0f 84 03 02 00 00    	je     40c838 <really_start_request+0x548>
  40c635:	48 89 df             	mov    %rbx,%rdi
  40c638:	e8 33 f1 ff ff       	callq  40b770 <ls>
  40c63d:	48 83 c4 28          	add    $0x28,%rsp
  40c641:	5b                   	pop    %rbx
  40c642:	5d                   	pop    %rbp
  40c643:	41 5c                	pop    %r12
  40c645:	41 5d                	pop    %r13
  40c647:	41 5e                	pop    %r14
  40c649:	41 5f                	pop    %r15
  40c64b:	c3                   	retq   
  40c64c:	0f 1f 40 00          	nopl   0x0(%rax)
  40c650:	48 8b b3 f0 00 00 00 	mov    0xf0(%rbx),%rsi
  40c657:	bf e9 f3 40 00       	mov    $0x40f3e9,%edi
  40c65c:	b9 0a 00 00 00       	mov    $0xa,%ecx
  40c661:	f3 a6                	repz cmpsb %es:(%rdi),%ds:(%rsi)
  40c663:	0f 85 87 fd ff ff    	jne    40c3f0 <really_start_request+0x100>
  40c669:	48 8b ab d0 00 00 00 	mov    0xd0(%rbx),%rbp
  40c670:	48 8d 7b 10          	lea    0x10(%rbx),%rdi
  40c674:	e8 57 d2 ff ff       	callq  4098d0 <httpd_ntoa>
  40c679:	48 89 e9             	mov    %rbp,%rcx
  40c67c:	48 89 c2             	mov    %rax,%rdx
  40c67f:	be d0 0c 41 00       	mov    $0x410cd0,%esi
  40c684:	bf 05 00 00 00       	mov    $0x5,%edi
  40c689:	31 c0                	xor    %eax,%eax
  40c68b:	e8 60 60 ff ff       	callq  4026f0 <syslog@plt>
  40c690:	4c 8b 8b d0 00 00 00 	mov    0xd0(%rbx),%r9
  40c697:	41 b8 08 0d 41 00    	mov    $0x410d08,%r8d
  40c69d:	e9 96 00 00 00       	jmpq   40c738 <really_start_request+0x448>
  40c6a2:	66 0f 1f 44 00 00    	nopw   0x0(%rax,%rax,1)
  40c6a8:	48 89 ef             	mov    %rbp,%rdi
  40c6ab:	e8 70 5d ff ff       	callq  402420 <strlen@plt>
  40c6b0:	80 7c 05 ff 2f       	cmpb   $0x2f,-0x1(%rbp,%rax,1)
  40c6b5:	0f 84 6f fe ff ff    	je     40c52a <really_start_request+0x23a>
  40c6bb:	48 89 df             	mov    %rbx,%rdi
  40c6be:	e8 3d c2 ff ff       	callq  408900 <send_dirredirect>
  40c6c3:	b8 ff ff ff ff       	mov    $0xffffffff,%eax
  40c6c8:	e9 70 ff ff ff       	jmpq   40c63d <really_start_request+0x34d>
  40c6cd:	0f 1f 00             	nopl   (%rax)
  40c6d0:	80 7c 28 f6 2f       	cmpb   $0x2f,-0xa(%rax,%rbp,1)
  40c6d5:	0f 85 15 fd ff ff    	jne    40c3f0 <really_start_request+0x100>
  40c6db:	eb 8c                	jmp    40c669 <really_start_request+0x379>
  40c6dd:	0f 1f 00             	nopl   (%rax)
  40c6e0:	48 8b b3 f0 00 00 00 	mov    0xf0(%rbx),%rsi
  40c6e7:	e8 14 1c 00 00       	callq  40e300 <match>
  40c6ec:	85 c0                	test   %eax,%eax
  40c6ee:	0f 85 8c 01 00 00    	jne    40c880 <really_start_request+0x590>
  40c6f4:	f6 83 48 02 00 00 01 	testb  $0x1,0x248(%rbx)
  40c6fb:	0f 84 1d fd ff ff    	je     40c41e <really_start_request+0x12e>
  40c701:	48 8b ab d0 00 00 00 	mov    0xd0(%rbx),%rbp
  40c708:	48 8d 7b 10          	lea    0x10(%rbx),%rdi
  40c70c:	e8 bf d1 ff ff       	callq  4098d0 <httpd_ntoa>
  40c711:	48 89 e9             	mov    %rbp,%rcx
  40c714:	48 89 c2             	mov    %rax,%rdx
  40c717:	be 60 0d 41 00       	mov    $0x410d60,%esi
  40c71c:	bf 05 00 00 00       	mov    $0x5,%edi
  40c721:	31 c0                	xor    %eax,%eax
  40c723:	e8 c8 5f ff ff       	callq  4026f0 <syslog@plt>
  40c728:	4c 8b 8b d0 00 00 00 	mov    0xd0(%rbx),%r9
  40c72f:	41 b8 90 0d 41 00    	mov    $0x410d90,%r8d
  40c735:	0f 1f 00             	nopl   (%rax)
  40c738:	b9 c9 f2 40 00       	mov    $0x40f2c9,%ecx
  40c73d:	ba b0 f3 40 00       	mov    $0x40f3b0,%edx
  40c742:	be 93 01 00 00       	mov    $0x193,%esi
  40c747:	48 89 df             	mov    %rbx,%rdi
  40c74a:	e8 71 c7 ff ff       	callq  408ec0 <httpd_send_err>
  40c74f:	b8 ff ff ff ff       	mov    $0xffffffff,%eax
  40c754:	e9 e4 fe ff ff       	jmpq   40c63d <really_start_request+0x34d>
  40c759:	0f 1f 80 00 00 00 00 	nopl   0x0(%rax)
  40c760:	48 8b 43 08          	mov    0x8(%rbx),%rax
  40c764:	8b 8b 14 02 00 00    	mov    0x214(%rbx),%ecx
  40c76a:	48 8d 74 24 18       	lea    0x18(%rsp),%rsi
  40c76f:	48 8b 3d 42 9c 20 00 	mov    0x209c42(%rip),%rdi        # 6163b8 <indexname.6053>
  40c776:	8b 50 60             	mov    0x60(%rax),%edx
  40c779:	e8 f2 ba ff ff       	callq  408270 <expand_symlinks>
  40c77e:	48 85 c0             	test   %rax,%rax
  40c781:	49 89 c4             	mov    %rax,%r12
  40c784:	0f 84 86 00 00 00    	je     40c810 <really_start_request+0x520>
  40c78a:	48 8b 44 24 18       	mov    0x18(%rsp),%rax
  40c78f:	80 38 00             	cmpb   $0x0,(%rax)
  40c792:	75 7c                	jne    40c810 <really_start_request+0x520>
  40c794:	4c 89 e7             	mov    %r12,%rdi
  40c797:	e8 84 5c ff ff       	callq  402420 <strlen@plt>
  40c79c:	48 8d b3 88 01 00 00 	lea    0x188(%rbx),%rsi
  40c7a3:	48 8d bb f0 00 00 00 	lea    0xf0(%rbx),%rdi
  40c7aa:	48 89 c2             	mov    %rax,%rdx
  40c7ad:	48 89 c5             	mov    %rax,%rbp
  40c7b0:	e8 6b b3 ff ff       	callq  407b20 <httpd_realloc_str>
  40c7b5:	48 8b bb f0 00 00 00 	mov    0xf0(%rbx),%rdi
  40c7bc:	4c 89 e6             	mov    %r12,%rsi
  40c7bf:	e8 5c 5b ff ff       	callq  402320 <strcpy@plt>
  40c7c4:	f6 83 48 02 00 00 05 	testb  $0x5,0x248(%rbx)
  40c7cb:	0f 85 94 fb ff ff    	jne    40c365 <really_start_request+0x75>
  40c7d1:	48 8b ab d0 00 00 00 	mov    0xd0(%rbx),%rbp
  40c7d8:	48 8d 7b 10          	lea    0x10(%rbx),%rdi
  40c7dc:	e8 ef d0 ff ff       	callq  4098d0 <httpd_ntoa>
  40c7e1:	48 89 e9             	mov    %rbp,%rcx
  40c7e4:	48 89 c2             	mov    %rax,%rdx
  40c7e7:	be 38 0c 41 00       	mov    $0x410c38,%esi
  40c7ec:	bf 06 00 00 00       	mov    $0x6,%edi
  40c7f1:	31 c0                	xor    %eax,%eax
  40c7f3:	e8 f8 5e ff ff       	callq  4026f0 <syslog@plt>
  40c7f8:	4c 8b 8b d0 00 00 00 	mov    0xd0(%rbx),%r9
  40c7ff:	41 b8 78 0c 41 00    	mov    $0x410c78,%r8d
  40c805:	e9 2e ff ff ff       	jmpq   40c738 <really_start_request+0x448>
  40c80a:	66 0f 1f 44 00 00    	nopw   0x0(%rax,%rax,1)
  40c810:	4c 8b 8b d0 00 00 00 	mov    0xd0(%rbx),%r9
  40c817:	41 b8 48 06 41 00    	mov    $0x410648,%r8d
  40c81d:	b9 c9 f2 40 00       	mov    $0x40f2c9,%ecx
  40c822:	ba a1 f3 40 00       	mov    $0x40f3a1,%edx
  40c827:	be f4 01 00 00       	mov    $0x1f4,%esi
  40c82c:	48 89 df             	mov    %rbx,%rdi
  40c82f:	e8 8c c6 ff ff       	callq  408ec0 <httpd_send_err>
  40c834:	0f 1f 40 00          	nopl   0x0(%rax)
  40c838:	b8 ff ff ff ff       	mov    $0xffffffff,%eax
  40c83d:	e9 fb fd ff ff       	jmpq   40c63d <really_start_request+0x34d>
  40c842:	66 0f 1f 44 00 00    	nopw   0x0(%rax,%rax,1)
  40c848:	48 8b 8b f8 00 00 00 	mov    0xf8(%rbx),%rcx
  40c84f:	4c 8b 8b f8 01 00 00 	mov    0x1f8(%rbx),%r9
  40c856:	be 30 01 00 00       	mov    $0x130,%esi
  40c85b:	52                   	push   %rdx
  40c85c:	6a ff                	pushq  $0xffffffffffffffff
  40c85e:	41 b8 c9 f2 40 00    	mov    $0x40f2c9,%r8d
  40c864:	ba 0e f6 40 00       	mov    $0x40f60e,%edx
  40c869:	48 89 df             	mov    %rbx,%rdi
  40c86c:	e8 df b3 ff ff       	callq  407c50 <send_mime>
  40c871:	59                   	pop    %rcx
  40c872:	31 c0                	xor    %eax,%eax
  40c874:	5e                   	pop    %rsi
  40c875:	e9 c3 fd ff ff       	jmpq   40c63d <really_start_request+0x34d>
  40c87a:	66 0f 1f 44 00 00    	nopw   0x0(%rax,%rax,1)
  40c880:	48 89 df             	mov    %rbx,%rdi
  40c883:	e8 c8 f8 ff ff       	callq  40c150 <cgi>
  40c888:	e9 b0 fd ff ff       	jmpq   40c63d <really_start_request+0x34d>
  40c88d:	0f 1f 00             	nopl   (%rax)
  40c890:	e8 ab c7 ff ff       	callq  409040 <httpd_method_str>
  40c895:	41 b8 b0 05 41 00    	mov    $0x4105b0,%r8d
  40c89b:	49 89 c1             	mov    %rax,%r9
  40c89e:	b9 c9 f2 40 00       	mov    $0x40f2c9,%ecx
  40c8a3:	ba ae f2 40 00       	mov    $0x40f2ae,%edx
  40c8a8:	be f5 01 00 00       	mov    $0x1f5,%esi
  40c8ad:	48 89 df             	mov    %rbx,%rdi
  40c8b0:	e8 0b c6 ff ff       	callq  408ec0 <httpd_send_err>
  40c8b5:	b8 ff ff ff ff       	mov    $0xffffffff,%eax
  40c8ba:	e9 7e fd ff ff       	jmpq   40c63d <really_start_request+0x34d>
  40c8bf:	90                   	nop
  40c8c0:	41 b8 2e 00 00 00    	mov    $0x2e,%r8d
  40c8c6:	66 45 89 04 24       	mov    %r8w,(%r12)
  40c8cb:	e9 da fa ff ff       	jmpq   40c3aa <really_start_request+0xba>
  40c8d0:	48 8b ab d0 00 00 00 	mov    0xd0(%rbx),%rbp
  40c8d7:	48 8d 7b 10          	lea    0x10(%rbx),%rdi
  40c8db:	e8 f0 cf ff ff       	callq  4098d0 <httpd_ntoa>
  40c8e0:	48 89 e9             	mov    %rbp,%rcx
  40c8e3:	48 89 c2             	mov    %rax,%rdx
  40c8e6:	be 18 0b 41 00       	mov    $0x410b18,%esi
  40c8eb:	bf 06 00 00 00       	mov    $0x6,%edi
  40c8f0:	31 c0                	xor    %eax,%eax
  40c8f2:	e8 f9 5d ff ff       	callq  4026f0 <syslog@plt>
  40c8f7:	4c 8b 8b d0 00 00 00 	mov    0xd0(%rbx),%r9
  40c8fe:	41 b8 50 0b 41 00    	mov    $0x410b50,%r8d
  40c904:	e9 2f fe ff ff       	jmpq   40c738 <really_start_request+0x448>
  40c909:	48 8b ab d0 00 00 00 	mov    0xd0(%rbx),%rbp
  40c910:	48 8d 7b 10          	lea    0x10(%rbx),%rdi
  40c914:	e8 b7 cf ff ff       	callq  4098d0 <httpd_ntoa>
  40c919:	48 89 e9             	mov    %rbp,%rcx
  40c91c:	48 89 c2             	mov    %rax,%rdx
  40c91f:	be a0 0b 41 00       	mov    $0x410ba0,%esi
  40c924:	bf 06 00 00 00       	mov    $0x6,%edi
  40c929:	31 c0                	xor    %eax,%eax
  40c92b:	e8 c0 5d ff ff       	callq  4026f0 <syslog@plt>
  40c930:	4c 8b 8b d0 00 00 00 	mov    0xd0(%rbx),%r9
  40c937:	41 b8 e8 0b 41 00    	mov    $0x410be8,%r8d
  40c93d:	e9 f6 fd ff ff       	jmpq   40c738 <really_start_request+0x448>
  40c942:	48 8b ab d0 00 00 00 	mov    0xd0(%rbx),%rbp
  40c949:	48 8d 7b 10          	lea    0x10(%rbx),%rdi
  40c94d:	e8 7e cf ff ff       	callq  4098d0 <httpd_ntoa>
  40c952:	48 89 e9             	mov    %rbp,%rcx
  40c955:	48 89 c2             	mov    %rax,%rdx
  40c958:	be 10 0e 41 00       	mov    $0x410e10,%esi
  40c95d:	bf 06 00 00 00       	mov    $0x6,%edi
  40c962:	31 c0                	xor    %eax,%eax
  40c964:	e8 87 5d ff ff       	callq  4026f0 <syslog@plt>
  40c969:	4c 8b 8b d0 00 00 00 	mov    0xd0(%rbx),%r9
  40c970:	41 b8 40 0e 41 00    	mov    $0x410e40,%r8d
  40c976:	e9 bd fd ff ff       	jmpq   40c738 <really_start_request+0x448>
  40c97b:	4c 8b 8b d0 00 00 00 	mov    0xd0(%rbx),%r9
  40c982:	41 b8 f0 08 41 00    	mov    $0x4108f0,%r8d
  40c988:	b9 c9 f2 40 00       	mov    $0x40f2c9,%ecx
  40c98d:	ba ca f5 40 00       	mov    $0x40f5ca,%edx
  40c992:	be 94 01 00 00       	mov    $0x194,%esi
  40c997:	48 89 df             	mov    %rbx,%rdi
  40c99a:	e8 21 c5 ff ff       	callq  408ec0 <httpd_send_err>
  40c99f:	b8 ff ff ff ff       	mov    $0xffffffff,%eax
  40c9a4:	e9 94 fc ff ff       	jmpq   40c63d <really_start_request+0x34d>
  40c9a9:	0f 1f 80 00 00 00 00 	nopl   0x0(%rax)

000000000040c9b0 <httpd_start_request>:
  40c9b0:	e9 3b f9 ff ff       	jmpq   40c2f0 <really_start_request>
  40c9b5:	90                   	nop
  40c9b6:	66 2e 0f 1f 84 00 00 	nopw   %cs:0x0(%rax,%rax,1)
  40c9bd:	00 00 00 

000000000040c9c0 <httpd_logstats>:
  40c9c0:	8b 15 42 9b 20 00    	mov    0x209b42(%rip),%edx        # 616508 <str_alloc_count>
  40c9c6:	85 d2                	test   %edx,%edx
  40c9c8:	7e 3e                	jle    40ca08 <httpd_logstats+0x48>
  40c9ca:	48 8b 0d 2f 9b 20 00 	mov    0x209b2f(%rip),%rcx        # 616500 <str_alloc_size>
  40c9d1:	48 85 c9             	test   %rcx,%rcx
  40c9d4:	78 3a                	js     40ca10 <httpd_logstats+0x50>
  40c9d6:	66 0f ef c0          	pxor   %xmm0,%xmm0
  40c9da:	f3 48 0f 2a c1       	cvtsi2ss %rcx,%xmm0
  40c9df:	be b0 0e 41 00       	mov    $0x410eb0,%esi
  40c9e4:	bf 06 00 00 00       	mov    $0x6,%edi
  40c9e9:	b8 01 00 00 00       	mov    $0x1,%eax
  40c9ee:	66 0f ef c9          	pxor   %xmm1,%xmm1
  40c9f2:	f3 0f 2a ca          	cvtsi2ss %edx,%xmm1
  40c9f6:	f3 0f 5e c1          	divss  %xmm1,%xmm0
  40c9fa:	f3 0f 5a c0          	cvtss2sd %xmm0,%xmm0
  40c9fe:	e9 ed 5c ff ff       	jmpq   4026f0 <syslog@plt>
  40ca03:	0f 1f 44 00 00       	nopl   0x0(%rax,%rax,1)
  40ca08:	f3 c3                	repz retq 
  40ca0a:	66 0f 1f 44 00 00    	nopw   0x0(%rax,%rax,1)
  40ca10:	48 89 c8             	mov    %rcx,%rax
  40ca13:	48 89 ce             	mov    %rcx,%rsi
  40ca16:	66 0f ef c0          	pxor   %xmm0,%xmm0
  40ca1a:	48 d1 e8             	shr    %rax
  40ca1d:	83 e6 01             	and    $0x1,%esi
  40ca20:	48 09 f0             	or     %rsi,%rax
  40ca23:	f3 48 0f 2a c0       	cvtsi2ss %rax,%xmm0
  40ca28:	f3 0f 58 c0          	addss  %xmm0,%xmm0
  40ca2c:	eb b1                	jmp    40c9df <httpd_logstats+0x1f>
  40ca2e:	66 90                	xchg   %ax,%ax

000000000040ca30 <hash>:
  40ca30:	81 f7 a5 b5 02 00    	xor    $0x2b5a5,%edi
  40ca36:	89 f8                	mov    %edi,%eax
  40ca38:	c1 e0 05             	shl    $0x5,%eax
  40ca3b:	01 c7                	add    %eax,%edi
  40ca3d:	31 fe                	xor    %edi,%esi
  40ca3f:	89 f0                	mov    %esi,%eax
  40ca41:	c1 e0 05             	shl    $0x5,%eax
  40ca44:	01 c6                	add    %eax,%esi
  40ca46:	31 f2                	xor    %esi,%edx
  40ca48:	89 d0                	mov    %edx,%eax
  40ca4a:	c1 e0 05             	shl    $0x5,%eax
  40ca4d:	01 d0                	add    %edx,%eax
  40ca4f:	31 c8                	xor    %ecx,%eax
  40ca51:	23 05 c1 9a 20 00    	and    0x209ac1(%rip),%eax        # 616518 <hash_mask>
  40ca57:	c3                   	retq   
  40ca58:	0f 1f 84 00 00 00 00 	nopl   0x0(%rax,%rax,1)
  40ca5f:	00 

000000000040ca60 <find_hash>:
  40ca60:	53                   	push   %rbx
  40ca61:	49 89 f8             	mov    %rdi,%r8
  40ca64:	49 89 f1             	mov    %rsi,%r9
  40ca67:	49 89 d2             	mov    %rdx,%r10
  40ca6a:	49 89 cb             	mov    %rcx,%r11
  40ca6d:	e8 be ff ff ff       	callq  40ca30 <hash>
  40ca72:	8b 15 a4 9a 20 00    	mov    0x209aa4(%rip),%edx        # 61651c <hash_size>
  40ca78:	48 8b 1d a1 9a 20 00 	mov    0x209aa1(%rip),%rbx        # 616520 <hash_table>
  40ca7f:	8b 3d 93 9a 20 00    	mov    0x209a93(%rip),%edi        # 616518 <hash_mask>
  40ca85:	8d 74 10 ff          	lea    -0x1(%rax,%rdx,1),%esi
  40ca89:	89 c2                	mov    %eax,%edx
  40ca8b:	48 8b 0c d3          	mov    (%rbx,%rdx,8),%rcx
  40ca8f:	21 fe                	and    %edi,%esi
  40ca91:	48 85 c9             	test   %rcx,%rcx
  40ca94:	74 3a                	je     40cad0 <find_hash+0x70>
  40ca96:	89 c2                	mov    %eax,%edx
  40ca98:	eb 1a                	jmp    40cab4 <find_hash+0x54>
  40ca9a:	66 0f 1f 44 00 00    	nopw   0x0(%rax,%rax,1)
  40caa0:	39 d6                	cmp    %edx,%esi
  40caa2:	74 34                	je     40cad8 <find_hash+0x78>
  40caa4:	83 c2 01             	add    $0x1,%edx
  40caa7:	21 fa                	and    %edi,%edx
  40caa9:	89 d1                	mov    %edx,%ecx
  40caab:	48 8b 0c cb          	mov    (%rbx,%rcx,8),%rcx
  40caaf:	48 85 c9             	test   %rcx,%rcx
  40cab2:	74 1c                	je     40cad0 <find_hash+0x70>
  40cab4:	3b 41 38             	cmp    0x38(%rcx),%eax
  40cab7:	75 e7                	jne    40caa0 <find_hash+0x40>
  40cab9:	4c 3b 01             	cmp    (%rcx),%r8
  40cabc:	75 e2                	jne    40caa0 <find_hash+0x40>
  40cabe:	4c 3b 49 08          	cmp    0x8(%rcx),%r9
  40cac2:	75 dc                	jne    40caa0 <find_hash+0x40>
  40cac4:	4c 3b 51 10          	cmp    0x10(%rcx),%r10
  40cac8:	75 d6                	jne    40caa0 <find_hash+0x40>
  40caca:	4c 3b 59 18          	cmp    0x18(%rcx),%r11
  40cace:	75 d0                	jne    40caa0 <find_hash+0x40>
  40cad0:	48 89 c8             	mov    %rcx,%rax
  40cad3:	5b                   	pop    %rbx
  40cad4:	c3                   	retq   
  40cad5:	0f 1f 00             	nopl   (%rax)
  40cad8:	31 c9                	xor    %ecx,%ecx
  40cada:	48 89 c8             	mov    %rcx,%rax
  40cadd:	5b                   	pop    %rbx
  40cade:	c3                   	retq   
  40cadf:	90                   	nop

000000000040cae0 <add_hash>:
  40cae0:	48 8b 4f 18          	mov    0x18(%rdi),%rcx
  40cae4:	48 8b 77 08          	mov    0x8(%rdi),%rsi
  40cae8:	49 89 f9             	mov    %rdi,%r9
  40caeb:	48 8b 57 10          	mov    0x10(%rdi),%rdx
  40caef:	48 8b 3f             	mov    (%rdi),%rdi
  40caf2:	e8 39 ff ff ff       	callq  40ca30 <hash>
  40caf7:	41 89 c2             	mov    %eax,%r10d
  40cafa:	8b 05 1c 9a 20 00    	mov    0x209a1c(%rip),%eax        # 61651c <hash_size>
  40cb00:	4c 8b 05 19 9a 20 00 	mov    0x209a19(%rip),%r8        # 616520 <hash_table>
  40cb07:	8b 3d 0b 9a 20 00    	mov    0x209a0b(%rip),%edi        # 616518 <hash_mask>
  40cb0d:	41 8d 74 02 ff       	lea    -0x1(%r10,%rax,1),%esi
  40cb12:	44 89 d0             	mov    %r10d,%eax
  40cb15:	49 8d 0c c0          	lea    (%r8,%rax,8),%rcx
  40cb19:	21 fe                	and    %edi,%esi
  40cb1b:	48 83 39 00          	cmpq   $0x0,(%rcx)
  40cb1f:	74 3e                	je     40cb5f <add_hash+0x7f>
  40cb21:	41 39 f2             	cmp    %esi,%r10d
  40cb24:	b8 ff ff ff ff       	mov    $0xffffffff,%eax
  40cb29:	74 32                	je     40cb5d <add_hash+0x7d>
  40cb2b:	44 89 d2             	mov    %r10d,%edx
  40cb2e:	eb 04                	jmp    40cb34 <add_hash+0x54>
  40cb30:	39 d6                	cmp    %edx,%esi
  40cb32:	74 24                	je     40cb58 <add_hash+0x78>
  40cb34:	83 c2 01             	add    $0x1,%edx
  40cb37:	21 fa                	and    %edi,%edx
  40cb39:	89 d1                	mov    %edx,%ecx
  40cb3b:	49 8d 0c c8          	lea    (%r8,%rcx,8),%rcx
  40cb3f:	48 83 39 00          	cmpq   $0x0,(%rcx)
  40cb43:	75 eb                	jne    40cb30 <add_hash+0x50>
  40cb45:	4c 89 09             	mov    %r9,(%rcx)
  40cb48:	31 c0                	xor    %eax,%eax
  40cb4a:	45 89 51 38          	mov    %r10d,0x38(%r9)
  40cb4e:	41 89 51 3c          	mov    %edx,0x3c(%r9)
  40cb52:	c3                   	retq   
  40cb53:	0f 1f 44 00 00       	nopl   0x0(%rax,%rax,1)
  40cb58:	b8 ff ff ff ff       	mov    $0xffffffff,%eax
  40cb5d:	f3 c3                	repz retq 
  40cb5f:	44 89 d2             	mov    %r10d,%edx
  40cb62:	eb e1                	jmp    40cb45 <add_hash+0x65>
  40cb64:	66 90                	xchg   %ax,%ax
  40cb66:	66 2e 0f 1f 84 00 00 	nopw   %cs:0x0(%rax,%rax,1)
  40cb6d:	00 00 00 

000000000040cb70 <check_hash_size>:
  40cb70:	55                   	push   %rbp
  40cb71:	53                   	push   %rbx
  40cb72:	48 83 ec 08          	sub    $0x8,%rsp
  40cb76:	48 8b 3d a3 99 20 00 	mov    0x2099a3(%rip),%rdi        # 616520 <hash_table>
  40cb7d:	48 85 ff             	test   %rdi,%rdi
  40cb80:	0f 84 b2 00 00 00    	je     40cc38 <check_hash_size+0xc8>
  40cb86:	8b 05 a0 99 20 00    	mov    0x2099a0(%rip),%eax        # 61652c <map_count>
  40cb8c:	8b 1d 8a 99 20 00    	mov    0x20998a(%rip),%ebx        # 61651c <hash_size>
  40cb92:	8d 2c 40             	lea    (%rax,%rax,2),%ebp
  40cb95:	39 dd                	cmp    %ebx,%ebp
  40cb97:	7f 0f                	jg     40cba8 <check_hash_size+0x38>
  40cb99:	48 83 c4 08          	add    $0x8,%rsp
  40cb9d:	31 c0                	xor    %eax,%eax
  40cb9f:	5b                   	pop    %rbx
  40cba0:	5d                   	pop    %rbp
  40cba1:	c3                   	retq   
  40cba2:	66 0f 1f 44 00 00    	nopw   0x0(%rax,%rax,1)
  40cba8:	e8 f3 56 ff ff       	callq  4022a0 <free@plt>
  40cbad:	8d 44 2d 00          	lea    0x0(%rbp,%rbp,1),%eax
  40cbb1:	0f 1f 80 00 00 00 00 	nopl   0x0(%rax)
  40cbb8:	01 db                	add    %ebx,%ebx
  40cbba:	39 c3                	cmp    %eax,%ebx
  40cbbc:	7c fa                	jl     40cbb8 <check_hash_size+0x48>
  40cbbe:	8d 43 ff             	lea    -0x1(%rbx),%eax
  40cbc1:	48 63 fb             	movslq %ebx,%rdi
  40cbc4:	89 1d 52 99 20 00    	mov    %ebx,0x209952(%rip)        # 61651c <hash_size>
  40cbca:	48 c1 e7 03          	shl    $0x3,%rdi
  40cbce:	89 05 44 99 20 00    	mov    %eax,0x209944(%rip)        # 616518 <hash_mask>
  40cbd4:	e8 c7 5a ff ff       	callq  4026a0 <malloc@plt>
  40cbd9:	48 85 c0             	test   %rax,%rax
  40cbdc:	48 89 05 3d 99 20 00 	mov    %rax,0x20993d(%rip)        # 616520 <hash_table>
  40cbe3:	74 40                	je     40cc25 <check_hash_size+0xb5>
  40cbe5:	85 db                	test   %ebx,%ebx
  40cbe7:	7e 17                	jle    40cc00 <check_hash_size+0x90>
  40cbe9:	31 d2                	xor    %edx,%edx
  40cbeb:	0f 1f 44 00 00       	nopl   0x0(%rax,%rax,1)
  40cbf0:	48 c7 04 d0 00 00 00 	movq   $0x0,(%rax,%rdx,8)
  40cbf7:	00 
  40cbf8:	48 83 c2 01          	add    $0x1,%rdx
  40cbfc:	39 d3                	cmp    %edx,%ebx
  40cbfe:	7f f0                	jg     40cbf0 <check_hash_size+0x80>
  40cc00:	4c 8b 1d 39 99 20 00 	mov    0x209939(%rip),%r11        # 616540 <maps>
  40cc07:	4d 85 db             	test   %r11,%r11
  40cc0a:	75 0d                	jne    40cc19 <check_hash_size+0xa9>
  40cc0c:	eb 8b                	jmp    40cb99 <check_hash_size+0x29>
  40cc0e:	66 90                	xchg   %ax,%ax
  40cc10:	4d 8b 5b 40          	mov    0x40(%r11),%r11
  40cc14:	4d 85 db             	test   %r11,%r11
  40cc17:	74 80                	je     40cb99 <check_hash_size+0x29>
  40cc19:	4c 89 df             	mov    %r11,%rdi
  40cc1c:	e8 bf fe ff ff       	callq  40cae0 <add_hash>
  40cc21:	85 c0                	test   %eax,%eax
  40cc23:	79 eb                	jns    40cc10 <check_hash_size+0xa0>
  40cc25:	48 83 c4 08          	add    $0x8,%rsp
  40cc29:	b8 ff ff ff ff       	mov    $0xffffffff,%eax
  40cc2e:	5b                   	pop    %rbx
  40cc2f:	5d                   	pop    %rbp
  40cc30:	c3                   	retq   
  40cc31:	0f 1f 80 00 00 00 00 	nopl   0x0(%rax)
  40cc38:	bf 00 20 00 00       	mov    $0x2000,%edi
  40cc3d:	c7 05 d5 98 20 00 00 	movl   $0x400,0x2098d5(%rip)        # 61651c <hash_size>
  40cc44:	04 00 00 
  40cc47:	c7 05 c7 98 20 00 ff 	movl   $0x3ff,0x2098c7(%rip)        # 616518 <hash_mask>
  40cc4e:	03 00 00 
  40cc51:	e8 4a 5a ff ff       	callq  4026a0 <malloc@plt>
  40cc56:	48 85 c0             	test   %rax,%rax
  40cc59:	48 89 05 c0 98 20 00 	mov    %rax,0x2098c0(%rip)        # 616520 <hash_table>
  40cc60:	74 c3                	je     40cc25 <check_hash_size+0xb5>
  40cc62:	bb 00 04 00 00       	mov    $0x400,%ebx
  40cc67:	eb 80                	jmp    40cbe9 <check_hash_size+0x79>
  40cc69:	0f 1f 80 00 00 00 00 	nopl   0x0(%rax)

000000000040cc70 <really_unmap>:
  40cc70:	55                   	push   %rbp
  40cc71:	53                   	push   %rbx
  40cc72:	48 89 fd             	mov    %rdi,%rbp
  40cc75:	48 83 ec 08          	sub    $0x8,%rsp
  40cc79:	48 8b 1f             	mov    (%rdi),%rbx
  40cc7c:	48 8b 73 10          	mov    0x10(%rbx),%rsi
  40cc80:	48 85 f6             	test   %rsi,%rsi
  40cc83:	75 4b                	jne    40ccd0 <really_unmap+0x60>
  40cc85:	48 8b 43 40          	mov    0x40(%rbx),%rax
  40cc89:	48 63 53 3c          	movslq 0x3c(%rbx),%rdx
  40cc8d:	48 29 35 7c 98 20 00 	sub    %rsi,0x20987c(%rip)        # 616510 <mapped_bytes>
  40cc94:	83 2d 91 98 20 00 01 	subl   $0x1,0x209891(%rip)        # 61652c <map_count>
  40cc9b:	48 89 45 00          	mov    %rax,0x0(%rbp)
  40cc9f:	48 8b 05 92 98 20 00 	mov    0x209892(%rip),%rax        # 616538 <free_maps>
  40cca6:	48 89 43 40          	mov    %rax,0x40(%rbx)
  40ccaa:	48 8b 05 6f 98 20 00 	mov    0x20986f(%rip),%rax        # 616520 <hash_table>
  40ccb1:	48 89 1d 80 98 20 00 	mov    %rbx,0x209880(%rip)        # 616538 <free_maps>
  40ccb8:	83 05 69 98 20 00 01 	addl   $0x1,0x209869(%rip)        # 616528 <free_count>
  40ccbf:	48 c7 04 d0 00 00 00 	movq   $0x0,(%rax,%rdx,8)
  40ccc6:	00 
  40ccc7:	48 83 c4 08          	add    $0x8,%rsp
  40cccb:	5b                   	pop    %rbx
  40cccc:	5d                   	pop    %rbp
  40cccd:	c3                   	retq   
  40ccce:	66 90                	xchg   %ax,%ax
  40ccd0:	48 8b 7b 30          	mov    0x30(%rbx),%rdi
  40ccd4:	e8 97 5a ff ff       	callq  402770 <munmap@plt>
  40ccd9:	85 c0                	test   %eax,%eax
  40ccdb:	78 0b                	js     40cce8 <really_unmap+0x78>
  40ccdd:	48 8b 73 10          	mov    0x10(%rbx),%rsi
  40cce1:	eb a2                	jmp    40cc85 <really_unmap+0x15>
  40cce3:	0f 1f 44 00 00       	nopl   0x0(%rax,%rax,1)
  40cce8:	be 00 16 41 00       	mov    $0x411600,%esi
  40cced:	bf 03 00 00 00       	mov    $0x3,%edi
  40ccf2:	31 c0                	xor    %eax,%eax
  40ccf4:	e8 f7 59 ff ff       	callq  4026f0 <syslog@plt>
  40ccf9:	eb e2                	jmp    40ccdd <really_unmap+0x6d>
  40ccfb:	0f 1f 44 00 00       	nopl   0x0(%rax,%rax,1)

000000000040cd00 <mmc_map>:
  40cd00:	41 55                	push   %r13
  40cd02:	41 54                	push   %r12
  40cd04:	55                   	push   %rbp
  40cd05:	53                   	push   %rbx
  40cd06:	48 89 fb             	mov    %rdi,%rbx
  40cd09:	48 81 ec a8 00 00 00 	sub    $0xa8,%rsp
  40cd10:	48 85 f6             	test   %rsi,%rsi
  40cd13:	0f 84 27 01 00 00    	je     40ce40 <mmc_map+0x140>
  40cd19:	48 8d 7c 24 10       	lea    0x10(%rsp),%rdi
  40cd1e:	b9 12 00 00 00       	mov    $0x12,%ecx
  40cd23:	f3 48 a5             	rep movsq %ds:(%rsi),%es:(%rdi)
  40cd26:	48 85 d2             	test   %rdx,%rdx
  40cd29:	0f 84 49 01 00 00    	je     40ce78 <mmc_map+0x178>
  40cd2f:	48 8b 2a             	mov    (%rdx),%rbp
  40cd32:	e8 39 fe ff ff       	callq  40cb70 <check_hash_size>
  40cd37:	85 c0                	test   %eax,%eax
  40cd39:	0f 88 51 01 00 00    	js     40ce90 <mmc_map+0x190>
  40cd3f:	48 8b 4c 24 78       	mov    0x78(%rsp),%rcx
  40cd44:	48 8b 54 24 40       	mov    0x40(%rsp),%rdx
  40cd49:	48 8b 74 24 10       	mov    0x10(%rsp),%rsi
  40cd4e:	48 8b 7c 24 18       	mov    0x18(%rsp),%rdi
  40cd53:	e8 08 fd ff ff       	callq  40ca60 <find_hash>
  40cd58:	48 85 c0             	test   %rax,%rax
  40cd5b:	74 23                	je     40cd80 <mmc_map+0x80>
  40cd5d:	83 40 20 01          	addl   $0x1,0x20(%rax)
  40cd61:	48 89 68 28          	mov    %rbp,0x28(%rax)
  40cd65:	48 8b 40 30          	mov    0x30(%rax),%rax
  40cd69:	48 81 c4 a8 00 00 00 	add    $0xa8,%rsp
  40cd70:	5b                   	pop    %rbx
  40cd71:	5d                   	pop    %rbp
  40cd72:	41 5c                	pop    %r12
  40cd74:	41 5d                	pop    %r13
  40cd76:	c3                   	retq   
  40cd77:	66 0f 1f 84 00 00 00 	nopw   0x0(%rax,%rax,1)
  40cd7e:	00 00 
  40cd80:	31 f6                	xor    %esi,%esi
  40cd82:	31 c0                	xor    %eax,%eax
  40cd84:	48 89 df             	mov    %rbx,%rdi
  40cd87:	e8 84 5a ff ff       	callq  402810 <open@plt>
  40cd8c:	85 c0                	test   %eax,%eax
  40cd8e:	41 89 c4             	mov    %eax,%r12d
  40cd91:	0f 88 c3 01 00 00    	js     40cf5a <mmc_map+0x25a>
  40cd97:	48 8b 1d 9a 97 20 00 	mov    0x20979a(%rip),%rbx        # 616538 <free_maps>
  40cd9e:	48 85 db             	test   %rbx,%rbx
  40cda1:	0f 84 6e 01 00 00    	je     40cf15 <mmc_map+0x215>
  40cda7:	48 8b 43 40          	mov    0x40(%rbx),%rax
  40cdab:	83 2d 76 97 20 00 01 	subl   $0x1,0x209776(%rip)        # 616528 <free_count>
  40cdb2:	48 89 05 7f 97 20 00 	mov    %rax,0x20977f(%rip)        # 616538 <free_maps>
  40cdb9:	48 8b 44 24 18       	mov    0x18(%rsp),%rax
  40cdbe:	4c 8b 6c 24 40       	mov    0x40(%rsp),%r13
  40cdc3:	48 89 03             	mov    %rax,(%rbx)
  40cdc6:	48 8b 44 24 10       	mov    0x10(%rsp),%rax
  40cdcb:	4d 85 ed             	test   %r13,%r13
  40cdce:	4c 89 6b 10          	mov    %r13,0x10(%rbx)
  40cdd2:	48 89 43 08          	mov    %rax,0x8(%rbx)
  40cdd6:	48 8b 44 24 78       	mov    0x78(%rsp),%rax
  40cddb:	c7 43 20 01 00 00 00 	movl   $0x1,0x20(%rbx)
  40cde2:	48 89 6b 28          	mov    %rbp,0x28(%rbx)
  40cde6:	48 89 43 18          	mov    %rax,0x18(%rbx)
  40cdea:	0f 85 c0 00 00 00    	jne    40ceb0 <mmc_map+0x1b0>
  40cdf0:	48 c7 43 30 01 00 00 	movq   $0x1,0x30(%rbx)
  40cdf7:	00 
  40cdf8:	44 89 e7             	mov    %r12d,%edi
  40cdfb:	e8 f0 56 ff ff       	callq  4024f0 <close@plt>
  40ce00:	48 89 df             	mov    %rbx,%rdi
  40ce03:	e8 d8 fc ff ff       	callq  40cae0 <add_hash>
  40ce08:	85 c0                	test   %eax,%eax
  40ce0a:	0f 88 23 01 00 00    	js     40cf33 <mmc_map+0x233>
  40ce10:	48 8b 05 29 97 20 00 	mov    0x209729(%rip),%rax        # 616540 <maps>
  40ce17:	83 05 0e 97 20 00 01 	addl   $0x1,0x20970e(%rip)        # 61652c <map_count>
  40ce1e:	48 89 1d 1b 97 20 00 	mov    %rbx,0x20971b(%rip)        # 616540 <maps>
  40ce25:	48 89 43 40          	mov    %rax,0x40(%rbx)
  40ce29:	48 8b 43 10          	mov    0x10(%rbx),%rax
  40ce2d:	48 01 05 dc 96 20 00 	add    %rax,0x2096dc(%rip)        # 616510 <mapped_bytes>
  40ce34:	48 8b 43 30          	mov    0x30(%rbx),%rax
  40ce38:	e9 2c ff ff ff       	jmpq   40cd69 <mmc_map+0x69>
  40ce3d:	0f 1f 00             	nopl   (%rax)
  40ce40:	48 8d 74 24 10       	lea    0x10(%rsp),%rsi
  40ce45:	48 89 54 24 08       	mov    %rdx,0x8(%rsp)
  40ce4a:	e8 a1 15 00 00       	callq  40e3f0 <__stat>
  40ce4f:	85 c0                	test   %eax,%eax
  40ce51:	48 8b 54 24 08       	mov    0x8(%rsp),%rdx
  40ce56:	0f 84 ca fe ff ff    	je     40cd26 <mmc_map+0x26>
  40ce5c:	31 c0                	xor    %eax,%eax
  40ce5e:	be 0c 16 41 00       	mov    $0x41160c,%esi
  40ce63:	bf 03 00 00 00       	mov    $0x3,%edi
  40ce68:	e8 83 58 ff ff       	callq  4026f0 <syslog@plt>
  40ce6d:	31 c0                	xor    %eax,%eax
  40ce6f:	e9 f5 fe ff ff       	jmpq   40cd69 <mmc_map+0x69>
  40ce74:	0f 1f 40 00          	nopl   0x0(%rax)
  40ce78:	31 ff                	xor    %edi,%edi
  40ce7a:	e8 c1 57 ff ff       	callq  402640 <time@plt>
  40ce7f:	48 89 c5             	mov    %rax,%rbp
  40ce82:	e9 ab fe ff ff       	jmpq   40cd32 <mmc_map+0x32>
  40ce87:	66 0f 1f 84 00 00 00 	nopw   0x0(%rax,%rax,1)
  40ce8e:	00 00 
  40ce90:	31 c0                	xor    %eax,%eax
  40ce92:	be 16 16 41 00       	mov    $0x411616,%esi
  40ce97:	bf 03 00 00 00       	mov    $0x3,%edi
  40ce9c:	e8 4f 58 ff ff       	callq  4026f0 <syslog@plt>
  40cea1:	31 c0                	xor    %eax,%eax
  40cea3:	e9 c1 fe ff ff       	jmpq   40cd69 <mmc_map+0x69>
  40cea8:	0f 1f 84 00 00 00 00 	nopl   0x0(%rax,%rax,1)
  40ceaf:	00 
  40ceb0:	45 31 c9             	xor    %r9d,%r9d
  40ceb3:	31 ff                	xor    %edi,%edi
  40ceb5:	45 89 e0             	mov    %r12d,%r8d
  40ceb8:	b9 02 00 00 00       	mov    $0x2,%ecx
  40cebd:	ba 01 00 00 00       	mov    $0x1,%edx
  40cec2:	4c 89 ee             	mov    %r13,%rsi
  40cec5:	e8 96 55 ff ff       	callq  402460 <mmap@plt>
  40ceca:	48 83 f8 ff          	cmp    $0xffffffffffffffff,%rax
  40cece:	48 89 43 30          	mov    %rax,0x30(%rbx)
  40ced2:	0f 85 20 ff ff ff    	jne    40cdf8 <mmc_map+0xf8>
  40ced8:	e8 13 54 ff ff       	callq  4022f0 <__errno_location@plt>
  40cedd:	83 38 0c             	cmpl   $0xc,(%rax)
  40cee0:	0f 84 8c 00 00 00    	je     40cf72 <mmc_map+0x272>
  40cee6:	be 30 16 41 00       	mov    $0x411630,%esi
  40ceeb:	bf 03 00 00 00       	mov    $0x3,%edi
  40cef0:	31 c0                	xor    %eax,%eax
  40cef2:	e8 f9 57 ff ff       	callq  4026f0 <syslog@plt>
  40cef7:	44 89 e7             	mov    %r12d,%edi
  40cefa:	e8 f1 55 ff ff       	callq  4024f0 <close@plt>
  40ceff:	48 89 df             	mov    %rbx,%rdi
  40cf02:	e8 99 53 ff ff       	callq  4022a0 <free@plt>
  40cf07:	83 2d 22 96 20 00 01 	subl   $0x1,0x209622(%rip)        # 616530 <alloc_count>
  40cf0e:	31 c0                	xor    %eax,%eax
  40cf10:	e9 54 fe ff ff       	jmpq   40cd69 <mmc_map+0x69>
  40cf15:	bf 48 00 00 00       	mov    $0x48,%edi
  40cf1a:	e8 81 57 ff ff       	callq  4026a0 <malloc@plt>
  40cf1f:	48 85 c0             	test   %rax,%rax
  40cf22:	48 89 c3             	mov    %rax,%rbx
  40cf25:	74 7d                	je     40cfa4 <mmc_map+0x2a4>
  40cf27:	83 05 02 96 20 00 01 	addl   $0x1,0x209602(%rip)        # 616530 <alloc_count>
  40cf2e:	e9 86 fe ff ff       	jmpq   40cdb9 <mmc_map+0xb9>
  40cf33:	31 c0                	xor    %eax,%eax
  40cf35:	be 3a 16 41 00       	mov    $0x41163a,%esi
  40cf3a:	bf 03 00 00 00       	mov    $0x3,%edi
  40cf3f:	e8 ac 57 ff ff       	callq  4026f0 <syslog@plt>
  40cf44:	48 89 df             	mov    %rbx,%rdi
  40cf47:	e8 54 53 ff ff       	callq  4022a0 <free@plt>
  40cf4c:	83 2d dd 95 20 00 01 	subl   $0x1,0x2095dd(%rip)        # 616530 <alloc_count>
  40cf53:	31 c0                	xor    %eax,%eax
  40cf55:	e9 0f fe ff ff       	jmpq   40cd69 <mmc_map+0x69>
  40cf5a:	31 c0                	xor    %eax,%eax
  40cf5c:	be e3 f5 40 00       	mov    $0x40f5e3,%esi
  40cf61:	bf 03 00 00 00       	mov    $0x3,%edi
  40cf66:	e8 85 57 ff ff       	callq  4026f0 <syslog@plt>
  40cf6b:	31 c0                	xor    %eax,%eax
  40cf6d:	e9 f7 fd ff ff       	jmpq   40cd69 <mmc_map+0x69>
  40cf72:	e8 2e 67 ff ff       	callq  4036a5 <panic>
  40cf77:	45 31 c9             	xor    %r9d,%r9d
  40cf7a:	31 ff                	xor    %edi,%edi
  40cf7c:	45 89 e0             	mov    %r12d,%r8d
  40cf7f:	b9 02 00 00 00       	mov    $0x2,%ecx
  40cf84:	ba 01 00 00 00       	mov    $0x1,%edx
  40cf89:	4c 89 ee             	mov    %r13,%rsi
  40cf8c:	e8 cf 54 ff ff       	callq  402460 <mmap@plt>
  40cf91:	48 89 43 30          	mov    %rax,0x30(%rbx)
  40cf95:	48 83 c0 01          	add    $0x1,%rax
  40cf99:	0f 85 59 fe ff ff    	jne    40cdf8 <mmc_map+0xf8>
  40cf9f:	e9 42 ff ff ff       	jmpq   40cee6 <mmc_map+0x1e6>
  40cfa4:	44 89 e7             	mov    %r12d,%edi
  40cfa7:	e8 44 55 ff ff       	callq  4024f0 <close@plt>
  40cfac:	31 c0                	xor    %eax,%eax
  40cfae:	be 98 16 41 00       	mov    $0x411698,%esi
  40cfb3:	bf 03 00 00 00       	mov    $0x3,%edi
  40cfb8:	e8 33 57 ff ff       	callq  4026f0 <syslog@plt>
  40cfbd:	31 c0                	xor    %eax,%eax
  40cfbf:	e9 a5 fd ff ff       	jmpq   40cd69 <mmc_map+0x69>
  40cfc4:	66 90                	xchg   %ax,%ax
  40cfc6:	66 2e 0f 1f 84 00 00 	nopw   %cs:0x0(%rax,%rax,1)
  40cfcd:	00 00 00 

000000000040cfd0 <mmc_unmap>:
  40cfd0:	48 85 f6             	test   %rsi,%rsi
  40cfd3:	41 54                	push   %r12
  40cfd5:	49 89 d4             	mov    %rdx,%r12
  40cfd8:	55                   	push   %rbp
  40cfd9:	48 89 fd             	mov    %rdi,%rbp
  40cfdc:	53                   	push   %rbx
  40cfdd:	74 22                	je     40d001 <mmc_unmap+0x31>
  40cfdf:	48 8b 4e 68          	mov    0x68(%rsi),%rcx
  40cfe3:	48 8b 56 30          	mov    0x30(%rsi),%rdx
  40cfe7:	48 8b 7e 08          	mov    0x8(%rsi),%rdi
  40cfeb:	48 8b 36             	mov    (%rsi),%rsi
  40cfee:	e8 6d fa ff ff       	callq  40ca60 <find_hash>
  40cff3:	48 85 c0             	test   %rax,%rax
  40cff6:	48 89 c3             	mov    %rax,%rbx
  40cff9:	74 06                	je     40d001 <mmc_unmap+0x31>
  40cffb:	48 39 68 30          	cmp    %rbp,0x30(%rax)
  40cfff:	74 1e                	je     40d01f <mmc_unmap+0x4f>
  40d001:	48 8b 1d 38 95 20 00 	mov    0x209538(%rip),%rbx        # 616540 <maps>
  40d008:	48 85 db             	test   %rbx,%rbx
  40d00b:	75 0c                	jne    40d019 <mmc_unmap+0x49>
  40d00d:	eb 59                	jmp    40d068 <mmc_unmap+0x98>
  40d00f:	90                   	nop
  40d010:	48 8b 5b 40          	mov    0x40(%rbx),%rbx
  40d014:	48 85 db             	test   %rbx,%rbx
  40d017:	74 4f                	je     40d068 <mmc_unmap+0x98>
  40d019:	48 3b 6b 30          	cmp    0x30(%rbx),%rbp
  40d01d:	75 f1                	jne    40d010 <mmc_unmap+0x40>
  40d01f:	8b 43 20             	mov    0x20(%rbx),%eax
  40d022:	85 c0                	test   %eax,%eax
  40d024:	7e 2a                	jle    40d050 <mmc_unmap+0x80>
  40d026:	83 e8 01             	sub    $0x1,%eax
  40d029:	4d 85 e4             	test   %r12,%r12
  40d02c:	89 43 20             	mov    %eax,0x20(%rbx)
  40d02f:	74 0f                	je     40d040 <mmc_unmap+0x70>
  40d031:	49 8b 04 24          	mov    (%r12),%rax
  40d035:	48 89 43 28          	mov    %rax,0x28(%rbx)
  40d039:	5b                   	pop    %rbx
  40d03a:	5d                   	pop    %rbp
  40d03b:	41 5c                	pop    %r12
  40d03d:	c3                   	retq   
  40d03e:	66 90                	xchg   %ax,%ax
  40d040:	31 ff                	xor    %edi,%edi
  40d042:	e8 f9 55 ff ff       	callq  402640 <time@plt>
  40d047:	48 89 43 28          	mov    %rax,0x28(%rbx)
  40d04b:	eb ec                	jmp    40d039 <mmc_unmap+0x69>
  40d04d:	0f 1f 00             	nopl   (%rax)
  40d050:	be b8 16 41 00       	mov    $0x4116b8,%esi
  40d055:	5b                   	pop    %rbx
  40d056:	5d                   	pop    %rbp
  40d057:	41 5c                	pop    %r12
  40d059:	bf 03 00 00 00       	mov    $0x3,%edi
  40d05e:	31 c0                	xor    %eax,%eax
  40d060:	e9 8b 56 ff ff       	jmpq   4026f0 <syslog@plt>
  40d065:	0f 1f 00             	nopl   (%rax)
  40d068:	be e8 16 41 00       	mov    $0x4116e8,%esi
  40d06d:	eb e6                	jmp    40d055 <mmc_unmap+0x85>
  40d06f:	90                   	nop

000000000040d070 <mmc_cleanup>:
  40d070:	48 85 ff             	test   %rdi,%rdi
  40d073:	41 54                	push   %r12
  40d075:	55                   	push   %rbp
  40d076:	53                   	push   %rbx
  40d077:	0f 84 42 01 00 00    	je     40d1bf <mmc_cleanup+0x14f>
  40d07d:	48 8b 2f             	mov    (%rdi),%rbp
  40d080:	bb 40 65 61 00       	mov    $0x616540,%ebx
  40d085:	48 8b 13             	mov    (%rbx),%rdx
  40d088:	48 85 d2             	test   %rdx,%rdx
  40d08b:	74 27                	je     40d0b4 <mmc_cleanup+0x44>
  40d08d:	8b 42 20             	mov    0x20(%rdx),%eax
  40d090:	85 c0                	test   %eax,%eax
  40d092:	75 14                	jne    40d0a8 <mmc_cleanup+0x38>
  40d094:	48 89 e9             	mov    %rbp,%rcx
  40d097:	48 2b 4a 28          	sub    0x28(%rdx),%rcx
  40d09b:	48 3b 0d ee 8b 20 00 	cmp    0x208bee(%rip),%rcx        # 615c90 <expire_age>
  40d0a2:	0f 8d a8 00 00 00    	jge    40d150 <mmc_cleanup+0xe0>
  40d0a8:	48 8d 5a 40          	lea    0x40(%rdx),%rbx
  40d0ac:	48 8b 13             	mov    (%rbx),%rdx
  40d0af:	48 85 d2             	test   %rdx,%rdx
  40d0b2:	75 d9                	jne    40d08d <mmc_cleanup+0x1d>
  40d0b4:	48 81 3d 51 94 20 00 	cmpq   $0x3b9aca00,0x209451(%rip)        # 616510 <mapped_bytes>
  40d0bb:	00 ca 9a 3b 
  40d0bf:	7f 11                	jg     40d0d2 <mmc_cleanup+0x62>
  40d0c1:	8b 05 65 94 20 00    	mov    0x209465(%rip),%eax        # 61652c <map_count>
  40d0c7:	3d d0 07 00 00       	cmp    $0x7d0,%eax
  40d0cc:	0f 8e ae 00 00 00    	jle    40d180 <mmc_cleanup+0x110>
  40d0d2:	48 8b 05 b7 8b 20 00 	mov    0x208bb7(%rip),%rax        # 615c90 <expire_age>
  40d0d9:	ba 3c 00 00 00       	mov    $0x3c,%edx
  40d0de:	48 8d 0c 00          	lea    (%rax,%rax,1),%rcx
  40d0e2:	48 81 f9 b6 00 00 00 	cmp    $0xb6,%rcx
  40d0e9:	7f 75                	jg     40d160 <mmc_cleanup+0xf0>
  40d0eb:	48 89 15 9e 8b 20 00 	mov    %rdx,0x208b9e(%rip)        # 615c90 <expire_age>
  40d0f2:	8b 05 30 94 20 00    	mov    0x209430(%rip),%eax        # 616528 <free_count>
  40d0f8:	83 f8 64             	cmp    $0x64,%eax
  40d0fb:	7e 46                	jle    40d143 <mmc_cleanup+0xd3>
  40d0fd:	44 8b 25 2c 94 20 00 	mov    0x20942c(%rip),%r12d        # 616530 <alloc_count>
  40d104:	48 8b 3d 2d 94 20 00 	mov    0x20942d(%rip),%rdi        # 616538 <free_maps>
  40d10b:	8d 58 ff             	lea    -0x1(%rax),%ebx
  40d10e:	41 29 c4             	sub    %eax,%r12d
  40d111:	0f 1f 80 00 00 00 00 	nopl   0x0(%rax)
  40d118:	48 8b 6f 40          	mov    0x40(%rdi),%rbp
  40d11c:	89 1d 06 94 20 00    	mov    %ebx,0x209406(%rip)        # 616528 <free_count>
  40d122:	48 89 2d 0f 94 20 00 	mov    %rbp,0x20940f(%rip)        # 616538 <free_maps>
  40d129:	e8 72 51 ff ff       	callq  4022a0 <free@plt>
  40d12e:	41 8d 04 1c          	lea    (%r12,%rbx,1),%eax
  40d132:	83 eb 01             	sub    $0x1,%ebx
  40d135:	48 89 ef             	mov    %rbp,%rdi
  40d138:	83 fb 63             	cmp    $0x63,%ebx
  40d13b:	89 05 ef 93 20 00    	mov    %eax,0x2093ef(%rip)        # 616530 <alloc_count>
  40d141:	75 d5                	jne    40d118 <mmc_cleanup+0xa8>
  40d143:	5b                   	pop    %rbx
  40d144:	5d                   	pop    %rbp
  40d145:	41 5c                	pop    %r12
  40d147:	c3                   	retq   
  40d148:	0f 1f 84 00 00 00 00 	nopl   0x0(%rax,%rax,1)
  40d14f:	00 
  40d150:	48 89 df             	mov    %rbx,%rdi
  40d153:	e8 18 fb ff ff       	callq  40cc70 <really_unmap>
  40d158:	e9 28 ff ff ff       	jmpq   40d085 <mmc_cleanup+0x15>
  40d15d:	0f 1f 00             	nopl   (%rax)
  40d160:	48 89 c8             	mov    %rcx,%rax
  40d163:	48 ba 56 55 55 55 55 	movabs $0x5555555555555556,%rdx
  40d16a:	55 55 55 
  40d16d:	48 c1 f9 3f          	sar    $0x3f,%rcx
  40d171:	48 f7 ea             	imul   %rdx
  40d174:	48 29 ca             	sub    %rcx,%rdx
  40d177:	e9 6f ff ff ff       	jmpq   40d0eb <mmc_cleanup+0x7b>
  40d17c:	0f 1f 40 00          	nopl   0x0(%rax)
  40d180:	3d e7 03 00 00       	cmp    $0x3e7,%eax
  40d185:	0f 8f 67 ff ff ff    	jg     40d0f2 <mmc_cleanup+0x82>
  40d18b:	48 8b 05 fe 8a 20 00 	mov    0x208afe(%rip),%rax        # 615c90 <expire_age>
  40d192:	48 8d 14 80          	lea    (%rax,%rax,4),%rdx
  40d196:	b8 08 07 00 00       	mov    $0x708,%eax
  40d19b:	48 81 fa 1f 1c 00 00 	cmp    $0x1c1f,%rdx
  40d1a2:	7f 0f                	jg     40d1b3 <mmc_cleanup+0x143>
  40d1a4:	48 8d 42 03          	lea    0x3(%rdx),%rax
  40d1a8:	48 85 d2             	test   %rdx,%rdx
  40d1ab:	48 0f 49 c2          	cmovns %rdx,%rax
  40d1af:	48 c1 f8 02          	sar    $0x2,%rax
  40d1b3:	48 89 05 d6 8a 20 00 	mov    %rax,0x208ad6(%rip)        # 615c90 <expire_age>
  40d1ba:	e9 33 ff ff ff       	jmpq   40d0f2 <mmc_cleanup+0x82>
  40d1bf:	31 ff                	xor    %edi,%edi
  40d1c1:	e8 7a 54 ff ff       	callq  402640 <time@plt>
  40d1c6:	48 89 c5             	mov    %rax,%rbp
  40d1c9:	e9 b2 fe ff ff       	jmpq   40d080 <mmc_cleanup+0x10>
  40d1ce:	66 90                	xchg   %ax,%ax

000000000040d1d0 <mmc_destroy>:
  40d1d0:	41 55                	push   %r13
  40d1d2:	41 54                	push   %r12
  40d1d4:	55                   	push   %rbp
  40d1d5:	53                   	push   %rbx
  40d1d6:	48 83 ec 08          	sub    $0x8,%rsp
  40d1da:	48 83 3d 5e 93 20 00 	cmpq   $0x0,0x20935e(%rip)        # 616540 <maps>
  40d1e1:	00 
  40d1e2:	74 18                	je     40d1fc <mmc_destroy+0x2c>
  40d1e4:	0f 1f 40 00          	nopl   0x0(%rax)
  40d1e8:	bf 40 65 61 00       	mov    $0x616540,%edi
  40d1ed:	e8 7e fa ff ff       	callq  40cc70 <really_unmap>
  40d1f2:	48 83 3d 46 93 20 00 	cmpq   $0x0,0x209346(%rip)        # 616540 <maps>
  40d1f9:	00 
  40d1fa:	75 ec                	jne    40d1e8 <mmc_destroy+0x18>
  40d1fc:	48 8b 3d 35 93 20 00 	mov    0x209335(%rip),%rdi        # 616538 <free_maps>
  40d203:	8b 2d 1f 93 20 00    	mov    0x20931f(%rip),%ebp        # 616528 <free_count>
  40d209:	44 8b 25 20 93 20 00 	mov    0x209320(%rip),%r12d        # 616530 <alloc_count>
  40d210:	48 85 ff             	test   %rdi,%rdi
  40d213:	89 eb                	mov    %ebp,%ebx
  40d215:	74 36                	je     40d24d <mmc_destroy+0x7d>
  40d217:	66 0f 1f 84 00 00 00 	nopw   0x0(%rax,%rax,1)
  40d21e:	00 00 
  40d220:	4c 8b 6f 40          	mov    0x40(%rdi),%r13
  40d224:	83 eb 01             	sub    $0x1,%ebx
  40d227:	89 1d fb 92 20 00    	mov    %ebx,0x2092fb(%rip)        # 616528 <free_count>
  40d22d:	4c 89 2d 04 93 20 00 	mov    %r13,0x209304(%rip)        # 616538 <free_maps>
  40d234:	e8 67 50 ff ff       	callq  4022a0 <free@plt>
  40d239:	42 8d 04 23          	lea    (%rbx,%r12,1),%eax
  40d23d:	4c 89 ef             	mov    %r13,%rdi
  40d240:	29 e8                	sub    %ebp,%eax
  40d242:	4d 85 ed             	test   %r13,%r13
  40d245:	89 05 e5 92 20 00    	mov    %eax,0x2092e5(%rip)        # 616530 <alloc_count>
  40d24b:	75 d3                	jne    40d220 <mmc_destroy+0x50>
  40d24d:	48 83 c4 08          	add    $0x8,%rsp
  40d251:	5b                   	pop    %rbx
  40d252:	5d                   	pop    %rbp
  40d253:	41 5c                	pop    %r12
  40d255:	41 5d                	pop    %r13
  40d257:	c3                   	retq   
  40d258:	0f 1f 84 00 00 00 00 	nopl   0x0(%rax,%rax,1)
  40d25f:	00 

000000000040d260 <mmc_logstats>:
  40d260:	48 83 ec 08          	sub    $0x8,%rsp
  40d264:	8b 05 b2 92 20 00    	mov    0x2092b2(%rip),%eax        # 61651c <hash_size>
  40d26a:	8b 0d bc 92 20 00    	mov    0x2092bc(%rip),%ecx        # 61652c <map_count>
  40d270:	8b 15 ba 92 20 00    	mov    0x2092ba(%rip),%edx        # 616530 <alloc_count>
  40d276:	44 8b 0d ab 92 20 00 	mov    0x2092ab(%rip),%r9d        # 616528 <free_count>
  40d27d:	be 08 17 41 00       	mov    $0x411708,%esi
  40d282:	4c 8b 05 87 92 20 00 	mov    0x209287(%rip),%r8        # 616510 <mapped_bytes>
  40d289:	ff 35 01 8a 20 00    	pushq  0x208a01(%rip)        # 615c90 <expire_age>
  40d28f:	bf 06 00 00 00       	mov    $0x6,%edi
  40d294:	50                   	push   %rax
  40d295:	31 c0                	xor    %eax,%eax
  40d297:	e8 54 54 ff ff       	callq  4026f0 <syslog@plt>
  40d29c:	8b 05 86 92 20 00    	mov    0x209286(%rip),%eax        # 616528 <free_count>
  40d2a2:	03 05 84 92 20 00    	add    0x209284(%rip),%eax        # 61652c <map_count>
  40d2a8:	3b 05 82 92 20 00    	cmp    0x209282(%rip),%eax        # 616530 <alloc_count>
  40d2ae:	5a                   	pop    %rdx
  40d2af:	59                   	pop    %rcx
  40d2b0:	74 1e                	je     40d2d0 <mmc_logstats+0x70>
  40d2b2:	be 4d 16 41 00       	mov    $0x41164d,%esi
  40d2b7:	bf 03 00 00 00       	mov    $0x3,%edi
  40d2bc:	31 c0                	xor    %eax,%eax
  40d2be:	48 83 c4 08          	add    $0x8,%rsp
  40d2c2:	e9 29 54 ff ff       	jmpq   4026f0 <syslog@plt>
  40d2c7:	66 0f 1f 84 00 00 00 	nopw   0x0(%rax,%rax,1)
  40d2ce:	00 00 
  40d2d0:	48 83 c4 08          	add    $0x8,%rsp
  40d2d4:	c3                   	retq   
  40d2d5:	66 2e 0f 1f 84 00 00 	nopw   %cs:0x0(%rax,%rax,1)
  40d2dc:	00 00 00 
  40d2df:	90                   	nop

000000000040d2e0 <l_add>:
  40d2e0:	48 63 47 40          	movslq 0x40(%rdi),%rax
  40d2e4:	4c 8b 04 c5 a0 65 61 	mov    0x6165a0(,%rax,8),%r8
  40d2eb:	00 
  40d2ec:	4d 85 c0             	test   %r8,%r8
  40d2ef:	0f 84 ab 00 00 00    	je     40d3a0 <l_add+0xc0>
  40d2f5:	48 8b 77 20          	mov    0x20(%rdi),%rsi
  40d2f9:	49 3b 70 20          	cmp    0x20(%r8),%rsi
  40d2fd:	7c 6b                	jl     40d36a <l_add+0x8a>
  40d2ff:	74 5f                	je     40d360 <l_add+0x80>
  40d301:	49 8b 50 38          	mov    0x38(%r8),%rdx
  40d305:	48 85 d2             	test   %rdx,%rdx
  40d308:	74 79                	je     40d383 <l_add+0xa3>
  40d30a:	48 8b 4a 20          	mov    0x20(%rdx),%rcx
  40d30e:	48 39 ce             	cmp    %rcx,%rsi
  40d311:	7d 1d                	jge    40d330 <l_add+0x50>
  40d313:	eb 2a                	jmp    40d33f <l_add+0x5f>
  40d315:	0f 1f 00             	nopl   (%rax)
  40d318:	48 8b 42 38          	mov    0x38(%rdx),%rax
  40d31c:	48 85 c0             	test   %rax,%rax
  40d31f:	74 65                	je     40d386 <l_add+0xa6>
  40d321:	48 8b 48 20          	mov    0x20(%rax),%rcx
  40d325:	49 89 d0             	mov    %rdx,%r8
  40d328:	48 39 ce             	cmp    %rcx,%rsi
  40d32b:	7c 18                	jl     40d345 <l_add+0x65>
  40d32d:	48 89 c2             	mov    %rax,%rdx
  40d330:	48 39 ce             	cmp    %rcx,%rsi
  40d333:	75 e3                	jne    40d318 <l_add+0x38>
  40d335:	48 8b 42 28          	mov    0x28(%rdx),%rax
  40d339:	48 39 47 28          	cmp    %rax,0x28(%rdi)
  40d33d:	7f d9                	jg     40d318 <l_add+0x38>
  40d33f:	48 89 d0             	mov    %rdx,%rax
  40d342:	4c 89 c2             	mov    %r8,%rdx
  40d345:	48 89 7a 38          	mov    %rdi,0x38(%rdx)
  40d349:	48 89 57 30          	mov    %rdx,0x30(%rdi)
  40d34d:	48 89 47 38          	mov    %rax,0x38(%rdi)
  40d351:	48 89 78 30          	mov    %rdi,0x30(%rax)
  40d355:	c3                   	retq   
  40d356:	66 2e 0f 1f 84 00 00 	nopw   %cs:0x0(%rax,%rax,1)
  40d35d:	00 00 00 
  40d360:	49 8b 48 28          	mov    0x28(%r8),%rcx
  40d364:	48 39 4f 28          	cmp    %rcx,0x28(%rdi)
  40d368:	7f 97                	jg     40d301 <l_add+0x21>
  40d36a:	48 c7 47 30 00 00 00 	movq   $0x0,0x30(%rdi)
  40d371:	00 
  40d372:	4c 89 47 38          	mov    %r8,0x38(%rdi)
  40d376:	48 89 3c c5 a0 65 61 	mov    %rdi,0x6165a0(,%rax,8)
  40d37d:	00 
  40d37e:	49 89 78 30          	mov    %rdi,0x30(%r8)
  40d382:	c3                   	retq   
  40d383:	4c 89 c2             	mov    %r8,%rdx
  40d386:	48 89 7a 38          	mov    %rdi,0x38(%rdx)
  40d38a:	48 89 57 30          	mov    %rdx,0x30(%rdi)
  40d38e:	48 c7 47 38 00 00 00 	movq   $0x0,0x38(%rdi)
  40d395:	00 
  40d396:	c3                   	retq   
  40d397:	66 0f 1f 84 00 00 00 	nopw   0x0(%rax,%rax,1)
  40d39e:	00 00 
  40d3a0:	48 89 3c c5 a0 65 61 	mov    %rdi,0x6165a0(,%rax,8)
  40d3a7:	00 
  40d3a8:	48 c7 47 38 00 00 00 	movq   $0x0,0x38(%rdi)
  40d3af:	00 
  40d3b0:	48 c7 47 30 00 00 00 	movq   $0x0,0x30(%rdi)
  40d3b7:	00 
  40d3b8:	c3                   	retq   
  40d3b9:	0f 1f 80 00 00 00 00 	nopl   0x0(%rax)

000000000040d3c0 <l_remove>:
  40d3c0:	48 8b 47 30          	mov    0x30(%rdi),%rax
  40d3c4:	48 8b 57 38          	mov    0x38(%rdi),%rdx
  40d3c8:	48 85 c0             	test   %rax,%rax
  40d3cb:	74 13                	je     40d3e0 <l_remove+0x20>
  40d3cd:	48 89 50 38          	mov    %rdx,0x38(%rax)
  40d3d1:	48 8b 57 38          	mov    0x38(%rdi),%rdx
  40d3d5:	48 85 d2             	test   %rdx,%rdx
  40d3d8:	74 04                	je     40d3de <l_remove+0x1e>
  40d3da:	48 89 42 30          	mov    %rax,0x30(%rdx)
  40d3de:	f3 c3                	repz retq 
  40d3e0:	48 63 4f 40          	movslq 0x40(%rdi),%rcx
  40d3e4:	48 89 14 cd a0 65 61 	mov    %rdx,0x6165a0(,%rcx,8)
  40d3eb:	00 
  40d3ec:	eb e7                	jmp    40d3d5 <l_remove+0x15>
  40d3ee:	66 90                	xchg   %ax,%ax

000000000040d3f0 <hash.isra.0>:
  40d3f0:	31 fe                	xor    %edi,%esi
  40d3f2:	ba 6b 4c a4 07       	mov    $0x7a44c6b,%edx
  40d3f7:	89 f0                	mov    %esi,%eax
  40d3f9:	f7 e2                	mul    %edx
  40d3fb:	89 d0                	mov    %edx,%eax
  40d3fd:	d1 e8                	shr    %eax
  40d3ff:	6b c0 43             	imul   $0x43,%eax,%eax
  40d402:	29 c6                	sub    %eax,%esi
  40d404:	89 f0                	mov    %esi,%eax
  40d406:	c3                   	retq   
  40d407:	66 0f 1f 84 00 00 00 	nopw   0x0(%rax,%rax,1)
  40d40e:	00 00 

000000000040d410 <l_resort>:
  40d410:	49 89 f8             	mov    %rdi,%r8
  40d413:	e8 a8 ff ff ff       	callq  40d3c0 <l_remove>
  40d418:	48 8b 77 28          	mov    0x28(%rdi),%rsi
  40d41c:	48 8b 7f 20          	mov    0x20(%rdi),%rdi
  40d420:	e8 cb ff ff ff       	callq  40d3f0 <hash.isra.0>
  40d425:	41 89 40 40          	mov    %eax,0x40(%r8)
  40d429:	4c 89 c7             	mov    %r8,%rdi
  40d42c:	e9 af fe ff ff       	jmpq   40d2e0 <l_add>
  40d431:	0f 1f 44 00 00       	nopl   0x0(%rax,%rax,1)
  40d436:	66 2e 0f 1f 84 00 00 	nopw   %cs:0x0(%rax,%rax,1)
  40d43d:	00 00 00 

000000000040d440 <tmr_init>:
  40d440:	48 83 ec 28          	sub    $0x28,%rsp
  40d444:	b8 a0 65 61 00       	mov    $0x6165a0,%eax
  40d449:	0f 1f 80 00 00 00 00 	nopl   0x0(%rax)
  40d450:	48 c7 00 00 00 00 00 	movq   $0x0,(%rax)
  40d457:	48 83 c0 08          	add    $0x8,%rax
  40d45b:	48 3d b8 67 61 00    	cmp    $0x6167b8,%rax
  40d461:	75 ed                	jne    40d450 <tmr_init+0x10>
  40d463:	48 89 e6             	mov    %rsp,%rsi
  40d466:	bf 01 00 00 00       	mov    $0x1,%edi
  40d46b:	48 c7 05 1a 91 20 00 	movq   $0x0,0x20911a(%rip)        # 616590 <free_timers>
  40d472:	00 00 00 00 
  40d476:	c7 05 04 91 20 00 00 	movl   $0x0,0x209104(%rip)        # 616584 <free_count>
  40d47d:	00 00 00 
  40d480:	c7 05 fe 90 20 00 00 	movl   $0x0,0x2090fe(%rip)        # 616588 <active_count>
  40d487:	00 00 00 
  40d48a:	c7 05 f8 90 20 00 00 	movl   $0x0,0x2090f8(%rip)        # 61658c <alloc_count>
  40d491:	00 00 00 
  40d494:	e8 77 52 ff ff       	callq  402710 <clock_gettime@plt>
  40d499:	85 c0                	test   %eax,%eax
  40d49b:	74 05                	je     40d4a2 <tmr_init+0x62>
  40d49d:	48 83 c4 28          	add    $0x28,%rsp
  40d4a1:	c3                   	retq   
  40d4a2:	48 8d 7c 24 10       	lea    0x10(%rsp),%rdi
  40d4a7:	31 f6                	xor    %esi,%esi
  40d4a9:	c7 05 cd 90 20 00 01 	movl   $0x1,0x2090cd(%rip)        # 616580 <use_monotonic>
  40d4b0:	00 00 00 
  40d4b3:	e8 08 50 ff ff       	callq  4024c0 <gettimeofday@plt>
  40d4b8:	48 8b 4c 24 08       	mov    0x8(%rsp),%rcx
  40d4bd:	48 ba cf f7 53 e3 a5 	movabs $0x20c49ba5e353f7cf,%rdx
  40d4c4:	9b c4 20 
  40d4c7:	48 89 c8             	mov    %rcx,%rax
  40d4ca:	48 c1 f9 3f          	sar    $0x3f,%rcx
  40d4ce:	48 f7 ea             	imul   %rdx
  40d4d1:	48 8b 44 24 18       	mov    0x18(%rsp),%rax
  40d4d6:	48 c1 fa 07          	sar    $0x7,%rdx
  40d4da:	48 29 ca             	sub    %rcx,%rdx
  40d4dd:	48 8b 4c 24 10       	mov    0x10(%rsp),%rcx
  40d4e2:	48 2b 0c 24          	sub    (%rsp),%rcx
  40d4e6:	48 29 d0             	sub    %rdx,%rax
  40d4e9:	48 85 c0             	test   %rax,%rax
  40d4ec:	48 89 05 85 90 20 00 	mov    %rax,0x209085(%rip)        # 616578 <tv_diff+0x8>
  40d4f3:	48 89 0d 76 90 20 00 	mov    %rcx,0x209076(%rip)        # 616570 <tv_diff>
  40d4fa:	79 a1                	jns    40d49d <tmr_init+0x5d>
  40d4fc:	48 83 e9 01          	sub    $0x1,%rcx
  40d500:	48 05 40 42 0f 00    	add    $0xf4240,%rax
  40d506:	48 89 0d 63 90 20 00 	mov    %rcx,0x209063(%rip)        # 616570 <tv_diff>
  40d50d:	48 89 05 64 90 20 00 	mov    %rax,0x209064(%rip)        # 616578 <tv_diff+0x8>
  40d514:	48 83 c4 28          	add    $0x28,%rsp
  40d518:	c3                   	retq   
  40d519:	0f 1f 80 00 00 00 00 	nopl   0x0(%rax)

000000000040d520 <tmr_mstimeout>:
  40d520:	be a0 65 61 00       	mov    $0x6165a0,%esi
  40d525:	41 ba b8 67 61 00    	mov    $0x6167b8,%r10d
  40d52b:	45 31 c9             	xor    %r9d,%r9d
  40d52e:	45 31 c0             	xor    %r8d,%r8d
  40d531:	49 bb cf f7 53 e3 a5 	movabs $0x20c49ba5e353f7cf,%r11
  40d538:	9b c4 20 
  40d53b:	0f 1f 44 00 00       	nopl   0x0(%rax,%rax,1)
  40d540:	48 8b 06             	mov    (%rsi),%rax
  40d543:	48 85 c0             	test   %rax,%rax
  40d546:	0f 84 7c 00 00 00    	je     40d5c8 <tmr_mstimeout+0xa8>
  40d54c:	53                   	push   %rbx
  40d54d:	eb 22                	jmp    40d571 <tmr_mstimeout+0x51>
  40d54f:	90                   	nop
  40d550:	44 89 c0             	mov    %r8d,%eax
  40d553:	41 b8 01 00 00 00    	mov    $0x1,%r8d
  40d559:	83 f0 01             	xor    $0x1,%eax
  40d55c:	84 c0                	test   %al,%al
  40d55e:	75 40                	jne    40d5a0 <tmr_mstimeout+0x80>
  40d560:	48 83 c6 08          	add    $0x8,%rsi
  40d564:	49 39 f2             	cmp    %rsi,%r10
  40d567:	74 49                	je     40d5b2 <tmr_mstimeout+0x92>
  40d569:	48 8b 06             	mov    (%rsi),%rax
  40d56c:	48 85 c0             	test   %rax,%rax
  40d56f:	74 ef                	je     40d560 <tmr_mstimeout+0x40>
  40d571:	48 8b 48 28          	mov    0x28(%rax),%rcx
  40d575:	48 2b 4f 08          	sub    0x8(%rdi),%rcx
  40d579:	48 8b 50 20          	mov    0x20(%rax),%rdx
  40d57d:	48 2b 17             	sub    (%rdi),%rdx
  40d580:	48 89 c8             	mov    %rcx,%rax
  40d583:	48 c1 f9 3f          	sar    $0x3f,%rcx
  40d587:	48 69 da e8 03 00 00 	imul   $0x3e8,%rdx,%rbx
  40d58e:	49 f7 eb             	imul   %r11
  40d591:	48 c1 fa 07          	sar    $0x7,%rdx
  40d595:	48 29 ca             	sub    %rcx,%rdx
  40d598:	48 01 da             	add    %rbx,%rdx
  40d59b:	4c 39 ca             	cmp    %r9,%rdx
  40d59e:	7d b0                	jge    40d550 <tmr_mstimeout+0x30>
  40d5a0:	48 83 c6 08          	add    $0x8,%rsi
  40d5a4:	49 89 d1             	mov    %rdx,%r9
  40d5a7:	41 b8 01 00 00 00    	mov    $0x1,%r8d
  40d5ad:	49 39 f2             	cmp    %rsi,%r10
  40d5b0:	75 b7                	jne    40d569 <tmr_mstimeout+0x49>
  40d5b2:	45 85 c0             	test   %r8d,%r8d
  40d5b5:	74 30                	je     40d5e7 <tmr_mstimeout+0xc7>
  40d5b7:	4d 85 c9             	test   %r9,%r9
  40d5ba:	b8 00 00 00 00       	mov    $0x0,%eax
  40d5bf:	49 0f 49 c1          	cmovns %r9,%rax
  40d5c3:	5b                   	pop    %rbx
  40d5c4:	c3                   	retq   
  40d5c5:	0f 1f 00             	nopl   (%rax)
  40d5c8:	48 83 c6 08          	add    $0x8,%rsi
  40d5cc:	49 39 f2             	cmp    %rsi,%r10
  40d5cf:	0f 85 6b ff ff ff    	jne    40d540 <tmr_mstimeout+0x20>
  40d5d5:	45 85 c0             	test   %r8d,%r8d
  40d5d8:	74 16                	je     40d5f0 <tmr_mstimeout+0xd0>
  40d5da:	4d 85 c9             	test   %r9,%r9
  40d5dd:	b8 00 00 00 00       	mov    $0x0,%eax
  40d5e2:	49 0f 49 c1          	cmovns %r9,%rax
  40d5e6:	c3                   	retq   
  40d5e7:	48 c7 c0 ff ff ff ff 	mov    $0xffffffffffffffff,%rax
  40d5ee:	5b                   	pop    %rbx
  40d5ef:	c3                   	retq   
  40d5f0:	48 c7 c0 ff ff ff ff 	mov    $0xffffffffffffffff,%rax
  40d5f7:	c3                   	retq   
  40d5f8:	0f 1f 84 00 00 00 00 	nopl   0x0(%rax,%rax,1)
  40d5ff:	00 

000000000040d600 <tmr_timeout>:
  40d600:	e8 1b ff ff ff       	callq  40d520 <tmr_mstimeout>
  40d605:	48 83 f8 ff          	cmp    $0xffffffffffffffff,%rax
  40d609:	48 89 c1             	mov    %rax,%rcx
  40d60c:	74 42                	je     40d650 <tmr_timeout+0x50>
  40d60e:	48 ba cf f7 53 e3 a5 	movabs $0x20c49ba5e353f7cf,%rdx
  40d615:	9b c4 20 
  40d618:	48 f7 ea             	imul   %rdx
  40d61b:	48 89 c8             	mov    %rcx,%rax
  40d61e:	48 c1 f8 3f          	sar    $0x3f,%rax
  40d622:	48 c1 fa 07          	sar    $0x7,%rdx
  40d626:	48 29 c2             	sub    %rax,%rdx
  40d629:	b8 60 65 61 00       	mov    $0x616560,%eax
  40d62e:	48 89 15 2b 8f 20 00 	mov    %rdx,0x208f2b(%rip)        # 616560 <timeout.2987>
  40d635:	48 69 d2 e8 03 00 00 	imul   $0x3e8,%rdx,%rdx
  40d63c:	48 29 d1             	sub    %rdx,%rcx
  40d63f:	48 69 c9 e8 03 00 00 	imul   $0x3e8,%rcx,%rcx
  40d646:	48 89 0d 1b 8f 20 00 	mov    %rcx,0x208f1b(%rip)        # 616568 <timeout.2987+0x8>
  40d64d:	c3                   	retq   
  40d64e:	66 90                	xchg   %ax,%ax
  40d650:	31 c0                	xor    %eax,%eax
  40d652:	c3                   	retq   
  40d653:	0f 1f 00             	nopl   (%rax)
  40d656:	66 2e 0f 1f 84 00 00 	nopw   %cs:0x0(%rax,%rax,1)
  40d65d:	00 00 00 

000000000040d660 <tmr_reset>:
  40d660:	48 8b 07             	mov    (%rdi),%rax
  40d663:	48 8b 57 08          	mov    0x8(%rdi),%rdx
  40d667:	48 8b 4e 10          	mov    0x10(%rsi),%rcx
  40d66b:	48 89 56 28          	mov    %rdx,0x28(%rsi)
  40d66f:	48 89 c7             	mov    %rax,%rdi
  40d672:	48 ba cf f7 53 e3 a5 	movabs $0x20c49ba5e353f7cf,%rdx
  40d679:	9b c4 20 
  40d67c:	48 89 c8             	mov    %rcx,%rax
  40d67f:	48 f7 ea             	imul   %rdx
  40d682:	48 89 c8             	mov    %rcx,%rax
  40d685:	48 c1 f8 3f          	sar    $0x3f,%rax
  40d689:	48 c1 fa 07          	sar    $0x7,%rdx
  40d68d:	48 29 c2             	sub    %rax,%rdx
  40d690:	48 01 d7             	add    %rdx,%rdi
  40d693:	48 69 d2 e8 03 00 00 	imul   $0x3e8,%rdx,%rdx
  40d69a:	48 89 7e 20          	mov    %rdi,0x20(%rsi)
  40d69e:	48 29 d1             	sub    %rdx,%rcx
  40d6a1:	48 69 c9 e8 03 00 00 	imul   $0x3e8,%rcx,%rcx
  40d6a8:	48 03 4e 28          	add    0x28(%rsi),%rcx
  40d6ac:	48 81 f9 3f 42 0f 00 	cmp    $0xf423f,%rcx
  40d6b3:	48 89 4e 28          	mov    %rcx,0x28(%rsi)
  40d6b7:	7e 33                	jle    40d6ec <tmr_reset+0x8c>
  40d6b9:	48 89 c8             	mov    %rcx,%rax
  40d6bc:	48 ba db 34 b6 d7 82 	movabs $0x431bde82d7b634db,%rdx
  40d6c3:	de 1b 43 
  40d6c6:	48 f7 ea             	imul   %rdx
  40d6c9:	48 89 c8             	mov    %rcx,%rax
  40d6cc:	48 c1 f8 3f          	sar    $0x3f,%rax
  40d6d0:	48 c1 fa 12          	sar    $0x12,%rdx
  40d6d4:	48 29 c2             	sub    %rax,%rdx
  40d6d7:	48 01 d7             	add    %rdx,%rdi
  40d6da:	48 69 d2 40 42 0f 00 	imul   $0xf4240,%rdx,%rdx
  40d6e1:	48 89 7e 20          	mov    %rdi,0x20(%rsi)
  40d6e5:	48 29 d1             	sub    %rdx,%rcx
  40d6e8:	48 89 4e 28          	mov    %rcx,0x28(%rsi)
  40d6ec:	48 89 f7             	mov    %rsi,%rdi
  40d6ef:	e9 1c fd ff ff       	jmpq   40d410 <l_resort>
  40d6f4:	66 90                	xchg   %ax,%ax
  40d6f6:	66 2e 0f 1f 84 00 00 	nopw   %cs:0x0(%rax,%rax,1)
  40d6fd:	00 00 00 

000000000040d700 <tmr_cancel>:
  40d700:	e8 bb fc ff ff       	callq  40d3c0 <l_remove>
  40d705:	48 8b 05 84 8e 20 00 	mov    0x208e84(%rip),%rax        # 616590 <free_timers>
  40d70c:	83 2d 75 8e 20 00 01 	subl   $0x1,0x208e75(%rip)        # 616588 <active_count>
  40d713:	48 89 3d 76 8e 20 00 	mov    %rdi,0x208e76(%rip)        # 616590 <free_timers>
  40d71a:	83 05 63 8e 20 00 01 	addl   $0x1,0x208e63(%rip)        # 616584 <free_count>
  40d721:	48 c7 47 30 00 00 00 	movq   $0x0,0x30(%rdi)
  40d728:	00 
  40d729:	48 89 47 38          	mov    %rax,0x38(%rdi)
  40d72d:	c3                   	retq   
  40d72e:	66 90                	xchg   %ax,%ax

000000000040d730 <tmr_run>:
  40d730:	41 57                	push   %r15
  40d732:	41 56                	push   %r14
  40d734:	41 be a0 65 61 00    	mov    $0x6165a0,%r14d
  40d73a:	41 55                	push   %r13
  40d73c:	41 54                	push   %r12
  40d73e:	49 bd db 34 b6 d7 82 	movabs $0x431bde82d7b634db,%r13
  40d745:	de 1b 43 
  40d748:	55                   	push   %rbp
  40d749:	53                   	push   %rbx
  40d74a:	48 89 fd             	mov    %rdi,%rbp
  40d74d:	49 bc cf f7 53 e3 a5 	movabs $0x20c49ba5e353f7cf,%r12
  40d754:	9b c4 20 
  40d757:	48 83 ec 08          	sub    $0x8,%rsp
  40d75b:	0f 1f 44 00 00       	nopl   0x0(%rax,%rax,1)
  40d760:	49 8b 1e             	mov    (%r14),%rbx
  40d763:	48 85 db             	test   %rbx,%rbx
  40d766:	0f 84 ec 00 00 00    	je     40d858 <tmr_run+0x128>
  40d76c:	48 8b 53 20          	mov    0x20(%rbx),%rdx
  40d770:	48 8b 45 00          	mov    0x0(%rbp),%rax
  40d774:	4c 8b 7b 38          	mov    0x38(%rbx),%r15
  40d778:	48 39 c2             	cmp    %rax,%rdx
  40d77b:	0f 8e a1 00 00 00    	jle    40d822 <tmr_run+0xf2>
  40d781:	e9 d2 00 00 00       	jmpq   40d858 <tmr_run+0x128>
  40d786:	66 2e 0f 1f 84 00 00 	nopw   %cs:0x0(%rax,%rax,1)
  40d78d:	00 00 00 
  40d790:	48 8b 4b 10          	mov    0x10(%rbx),%rcx
  40d794:	48 89 c8             	mov    %rcx,%rax
  40d797:	49 f7 ec             	imul   %r12
  40d79a:	48 89 c8             	mov    %rcx,%rax
  40d79d:	48 c1 f8 3f          	sar    $0x3f,%rax
  40d7a1:	48 c1 fa 07          	sar    $0x7,%rdx
  40d7a5:	48 29 c2             	sub    %rax,%rdx
  40d7a8:	48 89 d6             	mov    %rdx,%rsi
  40d7ab:	48 03 73 20          	add    0x20(%rbx),%rsi
  40d7af:	48 69 d2 e8 03 00 00 	imul   $0x3e8,%rdx,%rdx
  40d7b6:	48 89 73 20          	mov    %rsi,0x20(%rbx)
  40d7ba:	48 29 d1             	sub    %rdx,%rcx
  40d7bd:	48 69 c9 e8 03 00 00 	imul   $0x3e8,%rcx,%rcx
  40d7c4:	48 03 4b 28          	add    0x28(%rbx),%rcx
  40d7c8:	48 81 f9 3f 42 0f 00 	cmp    $0xf423f,%rcx
  40d7cf:	48 89 4b 28          	mov    %rcx,0x28(%rbx)
  40d7d3:	7e 29                	jle    40d7fe <tmr_run+0xce>
  40d7d5:	48 89 c8             	mov    %rcx,%rax
  40d7d8:	49 f7 ed             	imul   %r13
  40d7db:	48 89 c8             	mov    %rcx,%rax
  40d7de:	48 c1 f8 3f          	sar    $0x3f,%rax
  40d7e2:	48 c1 fa 12          	sar    $0x12,%rdx
  40d7e6:	48 29 c2             	sub    %rax,%rdx
  40d7e9:	48 01 d6             	add    %rdx,%rsi
  40d7ec:	48 69 d2 40 42 0f 00 	imul   $0xf4240,%rdx,%rdx
  40d7f3:	48 89 73 20          	mov    %rsi,0x20(%rbx)
  40d7f7:	48 29 d1             	sub    %rdx,%rcx
  40d7fa:	48 89 4b 28          	mov    %rcx,0x28(%rbx)
  40d7fe:	48 89 df             	mov    %rbx,%rdi
  40d801:	e8 0a fc ff ff       	callq  40d410 <l_resort>
  40d806:	4d 85 ff             	test   %r15,%r15
  40d809:	74 4d                	je     40d858 <tmr_run+0x128>
  40d80b:	49 8b 57 20          	mov    0x20(%r15),%rdx
  40d80f:	48 8b 45 00          	mov    0x0(%rbp),%rax
  40d813:	4c 89 fb             	mov    %r15,%rbx
  40d816:	49 8b 4f 38          	mov    0x38(%r15),%rcx
  40d81a:	48 39 c2             	cmp    %rax,%rdx
  40d81d:	7f 39                	jg     40d858 <tmr_run+0x128>
  40d81f:	49 89 cf             	mov    %rcx,%r15
  40d822:	48 39 d0             	cmp    %rdx,%rax
  40d825:	75 0a                	jne    40d831 <tmr_run+0x101>
  40d827:	48 8b 45 08          	mov    0x8(%rbp),%rax
  40d82b:	48 39 43 28          	cmp    %rax,0x28(%rbx)
  40d82f:	7f 27                	jg     40d858 <tmr_run+0x128>
  40d831:	48 8b 7b 08          	mov    0x8(%rbx),%rdi
  40d835:	48 89 ee             	mov    %rbp,%rsi
  40d838:	ff 13                	callq  *(%rbx)
  40d83a:	8b 43 18             	mov    0x18(%rbx),%eax
  40d83d:	85 c0                	test   %eax,%eax
  40d83f:	0f 85 4b ff ff ff    	jne    40d790 <tmr_run+0x60>
  40d845:	48 89 df             	mov    %rbx,%rdi
  40d848:	e8 b3 fe ff ff       	callq  40d700 <tmr_cancel>
  40d84d:	4d 85 ff             	test   %r15,%r15
  40d850:	75 b9                	jne    40d80b <tmr_run+0xdb>
  40d852:	66 0f 1f 44 00 00    	nopw   0x0(%rax,%rax,1)
  40d858:	49 83 c6 08          	add    $0x8,%r14
  40d85c:	49 81 fe b8 67 61 00 	cmp    $0x6167b8,%r14
  40d863:	0f 85 f7 fe ff ff    	jne    40d760 <tmr_run+0x30>
  40d869:	48 83 c4 08          	add    $0x8,%rsp
  40d86d:	5b                   	pop    %rbx
  40d86e:	5d                   	pop    %rbp
  40d86f:	41 5c                	pop    %r12
  40d871:	41 5d                	pop    %r13
  40d873:	41 5e                	pop    %r14
  40d875:	41 5f                	pop    %r15
  40d877:	c3                   	retq   
  40d878:	0f 1f 84 00 00 00 00 	nopl   0x0(%rax,%rax,1)
  40d87f:	00 

000000000040d880 <tmr_cleanup>:
  40d880:	48 8b 3d 09 8d 20 00 	mov    0x208d09(%rip),%rdi        # 616590 <free_timers>
  40d887:	48 85 ff             	test   %rdi,%rdi
  40d88a:	74 4b                	je     40d8d7 <tmr_cleanup+0x57>
  40d88c:	8b 05 f2 8c 20 00    	mov    0x208cf2(%rip),%eax        # 616584 <free_count>
  40d892:	41 54                	push   %r12
  40d894:	44 8b 25 f1 8c 20 00 	mov    0x208cf1(%rip),%r12d        # 61658c <alloc_count>
  40d89b:	55                   	push   %rbp
  40d89c:	53                   	push   %rbx
  40d89d:	8d 58 ff             	lea    -0x1(%rax),%ebx
  40d8a0:	41 29 c4             	sub    %eax,%r12d
  40d8a3:	0f 1f 44 00 00       	nopl   0x0(%rax,%rax,1)
  40d8a8:	48 8b 6f 38          	mov    0x38(%rdi),%rbp
  40d8ac:	89 1d d2 8c 20 00    	mov    %ebx,0x208cd2(%rip)        # 616584 <free_count>
  40d8b2:	48 89 2d d7 8c 20 00 	mov    %rbp,0x208cd7(%rip)        # 616590 <free_timers>
  40d8b9:	e8 e2 49 ff ff       	callq  4022a0 <free@plt>
  40d8be:	41 8d 04 1c          	lea    (%r12,%rbx,1),%eax
  40d8c2:	83 eb 01             	sub    $0x1,%ebx
  40d8c5:	48 85 ed             	test   %rbp,%rbp
  40d8c8:	48 89 ef             	mov    %rbp,%rdi
  40d8cb:	89 05 bb 8c 20 00    	mov    %eax,0x208cbb(%rip)        # 61658c <alloc_count>
  40d8d1:	75 d5                	jne    40d8a8 <tmr_cleanup+0x28>
  40d8d3:	5b                   	pop    %rbx
  40d8d4:	5d                   	pop    %rbp
  40d8d5:	41 5c                	pop    %r12
  40d8d7:	f3 c3                	repz retq 
  40d8d9:	0f 1f 80 00 00 00 00 	nopl   0x0(%rax)

000000000040d8e0 <tmr_destroy>:
  40d8e0:	be a0 65 61 00       	mov    $0x6165a0,%esi
  40d8e5:	48 8b 3e             	mov    (%rsi),%rdi
  40d8e8:	48 85 ff             	test   %rdi,%rdi
  40d8eb:	74 2e                	je     40d91b <tmr_destroy+0x3b>
  40d8ed:	48 83 ec 08          	sub    $0x8,%rsp
  40d8f1:	0f 1f 80 00 00 00 00 	nopl   0x0(%rax)
  40d8f8:	e8 03 fe ff ff       	callq  40d700 <tmr_cancel>
  40d8fd:	48 8b 3e             	mov    (%rsi),%rdi
  40d900:	48 85 ff             	test   %rdi,%rdi
  40d903:	75 f3                	jne    40d8f8 <tmr_destroy+0x18>
  40d905:	48 83 c6 08          	add    $0x8,%rsi
  40d909:	48 81 fe b8 67 61 00 	cmp    $0x6167b8,%rsi
  40d910:	75 eb                	jne    40d8fd <tmr_destroy+0x1d>
  40d912:	48 83 c4 08          	add    $0x8,%rsp
  40d916:	e9 65 ff ff ff       	jmpq   40d880 <tmr_cleanup>
  40d91b:	48 83 c6 08          	add    $0x8,%rsi
  40d91f:	48 81 fe b8 67 61 00 	cmp    $0x6167b8,%rsi
  40d926:	75 bd                	jne    40d8e5 <tmr_destroy+0x5>
  40d928:	e9 53 ff ff ff       	jmpq   40d880 <tmr_cleanup>
  40d92d:	0f 1f 00             	nopl   (%rax)

000000000040d930 <tmr_logstats>:
  40d930:	48 83 ec 08          	sub    $0x8,%rsp
  40d934:	44 8b 05 49 8c 20 00 	mov    0x208c49(%rip),%r8d        # 616584 <free_count>
  40d93b:	8b 0d 47 8c 20 00    	mov    0x208c47(%rip),%ecx        # 616588 <active_count>
  40d941:	8b 15 45 8c 20 00    	mov    0x208c45(%rip),%edx        # 61658c <alloc_count>
  40d947:	31 c0                	xor    %eax,%eax
  40d949:	be 68 17 41 00       	mov    $0x411768,%esi
  40d94e:	bf 06 00 00 00       	mov    $0x6,%edi
  40d953:	e8 98 4d ff ff       	callq  4026f0 <syslog@plt>
  40d958:	8b 05 26 8c 20 00    	mov    0x208c26(%rip),%eax        # 616584 <free_count>
  40d95e:	03 05 24 8c 20 00    	add    0x208c24(%rip),%eax        # 616588 <active_count>
  40d964:	3b 05 22 8c 20 00    	cmp    0x208c22(%rip),%eax        # 61658c <alloc_count>
  40d96a:	74 1c                	je     40d988 <tmr_logstats+0x58>
  40d96c:	be 94 17 41 00       	mov    $0x411794,%esi
  40d971:	bf 03 00 00 00       	mov    $0x3,%edi
  40d976:	31 c0                	xor    %eax,%eax
  40d978:	48 83 c4 08          	add    $0x8,%rsp
  40d97c:	e9 6f 4d ff ff       	jmpq   4026f0 <syslog@plt>
  40d981:	0f 1f 80 00 00 00 00 	nopl   0x0(%rax)
  40d988:	48 83 c4 08          	add    $0x8,%rsp
  40d98c:	c3                   	retq   
  40d98d:	0f 1f 00             	nopl   (%rax)

000000000040d990 <tmr_prepare_timeval>:
  40d990:	53                   	push   %rbx
  40d991:	48 89 fb             	mov    %rdi,%rbx
  40d994:	48 83 ec 10          	sub    $0x10,%rsp
  40d998:	8b 05 e2 8b 20 00    	mov    0x208be2(%rip),%eax        # 616580 <use_monotonic>
  40d99e:	85 c0                	test   %eax,%eax
  40d9a0:	74 6e                	je     40da10 <tmr_prepare_timeval+0x80>
  40d9a2:	48 89 e6             	mov    %rsp,%rsi
  40d9a5:	bf 01 00 00 00       	mov    $0x1,%edi
  40d9aa:	e8 61 4d ff ff       	callq  402710 <clock_gettime@plt>
  40d9af:	85 c0                	test   %eax,%eax
  40d9b1:	78 6d                	js     40da20 <tmr_prepare_timeval+0x90>
  40d9b3:	48 8b 4c 24 08       	mov    0x8(%rsp),%rcx
  40d9b8:	48 ba cf f7 53 e3 a5 	movabs $0x20c49ba5e353f7cf,%rdx
  40d9bf:	9b c4 20 
  40d9c2:	48 89 c8             	mov    %rcx,%rax
  40d9c5:	48 c1 f9 3f          	sar    $0x3f,%rcx
  40d9c9:	48 f7 ea             	imul   %rdx
  40d9cc:	48 8b 05 9d 8b 20 00 	mov    0x208b9d(%rip),%rax        # 616570 <tv_diff>
  40d9d3:	48 03 04 24          	add    (%rsp),%rax
  40d9d7:	48 c1 fa 07          	sar    $0x7,%rdx
  40d9db:	48 89 03             	mov    %rax,(%rbx)
  40d9de:	48 29 ca             	sub    %rcx,%rdx
  40d9e1:	48 03 15 90 8b 20 00 	add    0x208b90(%rip),%rdx        # 616578 <tv_diff+0x8>
  40d9e8:	48 81 fa 3f 42 0f 00 	cmp    $0xf423f,%rdx
  40d9ef:	48 89 53 08          	mov    %rdx,0x8(%rbx)
  40d9f3:	7e 22                	jle    40da17 <tmr_prepare_timeval+0x87>
  40d9f5:	48 83 c0 01          	add    $0x1,%rax
  40d9f9:	48 81 ea 40 42 0f 00 	sub    $0xf4240,%rdx
  40da00:	48 89 03             	mov    %rax,(%rbx)
  40da03:	48 89 53 08          	mov    %rdx,0x8(%rbx)
  40da07:	48 83 c4 10          	add    $0x10,%rsp
  40da0b:	5b                   	pop    %rbx
  40da0c:	c3                   	retq   
  40da0d:	0f 1f 00             	nopl   (%rax)
  40da10:	31 f6                	xor    %esi,%esi
  40da12:	e8 a9 4a ff ff       	callq  4024c0 <gettimeofday@plt>
  40da17:	48 83 c4 10          	add    $0x10,%rsp
  40da1b:	5b                   	pop    %rbx
  40da1c:	c3                   	retq   
  40da1d:	0f 1f 00             	nopl   (%rax)
  40da20:	bf af 17 41 00       	mov    $0x4117af,%edi
  40da25:	e8 16 4e ff ff       	callq  402840 <perror@plt>
  40da2a:	eb eb                	jmp    40da17 <tmr_prepare_timeval+0x87>
  40da2c:	0f 1f 40 00          	nopl   0x0(%rax)

000000000040da30 <tmr_create>:
  40da30:	55                   	push   %rbp
  40da31:	53                   	push   %rbx
  40da32:	48 89 fd             	mov    %rdi,%rbp
  40da35:	48 83 ec 28          	sub    $0x28,%rsp
  40da39:	48 8b 1d 50 8b 20 00 	mov    0x208b50(%rip),%rbx        # 616590 <free_timers>
  40da40:	48 85 db             	test   %rbx,%rbx
  40da43:	0f 84 df 00 00 00    	je     40db28 <tmr_create+0xf8>
  40da49:	48 8b 43 38          	mov    0x38(%rbx),%rax
  40da4d:	83 2d 30 8b 20 00 01 	subl   $0x1,0x208b30(%rip)        # 616584 <free_count>
  40da54:	48 89 05 35 8b 20 00 	mov    %rax,0x208b35(%rip)        # 616590 <free_timers>
  40da5b:	48 85 ed             	test   %rbp,%rbp
  40da5e:	48 89 33             	mov    %rsi,(%rbx)
  40da61:	48 89 53 08          	mov    %rdx,0x8(%rbx)
  40da65:	48 89 4b 10          	mov    %rcx,0x10(%rbx)
  40da69:	44 89 43 18          	mov    %r8d,0x18(%rbx)
  40da6d:	0f 84 fd 00 00 00    	je     40db70 <tmr_create+0x140>
  40da73:	48 8b 45 00          	mov    0x0(%rbp),%rax
  40da77:	48 8b 55 08          	mov    0x8(%rbp),%rdx
  40da7b:	48 89 43 20          	mov    %rax,0x20(%rbx)
  40da7f:	48 89 53 28          	mov    %rdx,0x28(%rbx)
  40da83:	48 89 c8             	mov    %rcx,%rax
  40da86:	48 ba cf f7 53 e3 a5 	movabs $0x20c49ba5e353f7cf,%rdx
  40da8d:	9b c4 20 
  40da90:	48 f7 ea             	imul   %rdx
  40da93:	48 89 c8             	mov    %rcx,%rax
  40da96:	48 c1 f8 3f          	sar    $0x3f,%rax
  40da9a:	48 c1 fa 07          	sar    $0x7,%rdx
  40da9e:	48 29 c2             	sub    %rax,%rdx
  40daa1:	48 89 d7             	mov    %rdx,%rdi
  40daa4:	48 03 7b 20          	add    0x20(%rbx),%rdi
  40daa8:	48 69 d2 e8 03 00 00 	imul   $0x3e8,%rdx,%rdx
  40daaf:	48 89 7b 20          	mov    %rdi,0x20(%rbx)
  40dab3:	48 29 d1             	sub    %rdx,%rcx
  40dab6:	48 69 f1 e8 03 00 00 	imul   $0x3e8,%rcx,%rsi
  40dabd:	48 03 73 28          	add    0x28(%rbx),%rsi
  40dac1:	48 81 fe 3f 42 0f 00 	cmp    $0xf423f,%rsi
  40dac8:	48 89 73 28          	mov    %rsi,0x28(%rbx)
  40dacc:	7f 22                	jg     40daf0 <tmr_create+0xc0>
  40dace:	e8 1d f9 ff ff       	callq  40d3f0 <hash.isra.0>
  40dad3:	48 89 df             	mov    %rbx,%rdi
  40dad6:	89 43 40             	mov    %eax,0x40(%rbx)
  40dad9:	e8 02 f8 ff ff       	callq  40d2e0 <l_add>
  40dade:	83 05 a3 8a 20 00 01 	addl   $0x1,0x208aa3(%rip)        # 616588 <active_count>
  40dae5:	48 83 c4 28          	add    $0x28,%rsp
  40dae9:	48 89 d8             	mov    %rbx,%rax
  40daec:	5b                   	pop    %rbx
  40daed:	5d                   	pop    %rbp
  40daee:	c3                   	retq   
  40daef:	90                   	nop
  40daf0:	48 89 f0             	mov    %rsi,%rax
  40daf3:	48 ba db 34 b6 d7 82 	movabs $0x431bde82d7b634db,%rdx
  40dafa:	de 1b 43 
  40dafd:	48 f7 ea             	imul   %rdx
  40db00:	48 89 f0             	mov    %rsi,%rax
  40db03:	48 c1 f8 3f          	sar    $0x3f,%rax
  40db07:	48 c1 fa 12          	sar    $0x12,%rdx
  40db0b:	48 29 c2             	sub    %rax,%rdx
  40db0e:	48 01 d7             	add    %rdx,%rdi
  40db11:	48 69 d2 40 42 0f 00 	imul   $0xf4240,%rdx,%rdx
  40db18:	48 89 7b 20          	mov    %rdi,0x20(%rbx)
  40db1c:	48 29 d6             	sub    %rdx,%rsi
  40db1f:	48 89 73 28          	mov    %rsi,0x28(%rbx)
  40db23:	eb a9                	jmp    40dace <tmr_create+0x9e>
  40db25:	0f 1f 00             	nopl   (%rax)
  40db28:	bf 48 00 00 00       	mov    $0x48,%edi
  40db2d:	44 89 44 24 1c       	mov    %r8d,0x1c(%rsp)
  40db32:	48 89 4c 24 10       	mov    %rcx,0x10(%rsp)
  40db37:	48 89 54 24 08       	mov    %rdx,0x8(%rsp)
  40db3c:	48 89 34 24          	mov    %rsi,(%rsp)
  40db40:	e8 5b 4b ff ff       	callq  4026a0 <malloc@plt>
  40db45:	48 85 c0             	test   %rax,%rax
  40db48:	48 89 c3             	mov    %rax,%rbx
  40db4b:	74 98                	je     40dae5 <tmr_create+0xb5>
  40db4d:	83 05 38 8a 20 00 01 	addl   $0x1,0x208a38(%rip)        # 61658c <alloc_count>
  40db54:	44 8b 44 24 1c       	mov    0x1c(%rsp),%r8d
  40db59:	48 8b 4c 24 10       	mov    0x10(%rsp),%rcx
  40db5e:	48 8b 54 24 08       	mov    0x8(%rsp),%rdx
  40db63:	48 8b 34 24          	mov    (%rsp),%rsi
  40db67:	e9 ef fe ff ff       	jmpq   40da5b <tmr_create+0x2b>
  40db6c:	0f 1f 40 00          	nopl   0x0(%rax)
  40db70:	48 8d 7b 20          	lea    0x20(%rbx),%rdi
  40db74:	48 89 0c 24          	mov    %rcx,(%rsp)
  40db78:	e8 13 fe ff ff       	callq  40d990 <tmr_prepare_timeval>
  40db7d:	48 8b 0c 24          	mov    (%rsp),%rcx
  40db81:	e9 fd fe ff ff       	jmpq   40da83 <tmr_create+0x53>
  40db86:	66 2e 0f 1f 84 00 00 	nopw   %cs:0x0(%rax,%rax,1)
  40db8d:	00 00 00 

000000000040db90 <is_leap>:
  40db90:	89 f8                	mov    %edi,%eax
  40db92:	ba 1f 85 eb 51       	mov    $0x51eb851f,%edx
  40db97:	89 fe                	mov    %edi,%esi
  40db99:	f7 ea                	imul   %edx
  40db9b:	c1 fe 1f             	sar    $0x1f,%esi
  40db9e:	b8 01 00 00 00       	mov    $0x1,%eax
  40dba3:	89 d1                	mov    %edx,%ecx
  40dba5:	c1 f9 07             	sar    $0x7,%ecx
  40dba8:	29 f1                	sub    %esi,%ecx
  40dbaa:	69 c9 90 01 00 00    	imul   $0x190,%ecx,%ecx
  40dbb0:	39 cf                	cmp    %ecx,%edi
  40dbb2:	74 1a                	je     40dbce <is_leap+0x3e>
  40dbb4:	89 d0                	mov    %edx,%eax
  40dbb6:	89 fa                	mov    %edi,%edx
  40dbb8:	c1 f8 05             	sar    $0x5,%eax
  40dbbb:	29 f0                	sub    %esi,%eax
  40dbbd:	6b c0 64             	imul   $0x64,%eax,%eax
  40dbc0:	29 c2                	sub    %eax,%edx
  40dbc2:	89 d0                	mov    %edx,%eax
  40dbc4:	74 08                	je     40dbce <is_leap+0x3e>
  40dbc6:	31 c0                	xor    %eax,%eax
  40dbc8:	83 e7 03             	and    $0x3,%edi
  40dbcb:	0f 94 c0             	sete   %al
  40dbce:	f3 c3                	repz retq 

000000000040dbd0 <tm_to_time>:
  40dbd0:	41 56                	push   %r14
  40dbd2:	53                   	push   %rbx
  40dbd3:	48 89 fb             	mov    %rdi,%rbx
  40dbd6:	8b 7f 14             	mov    0x14(%rdi),%edi
  40dbd9:	8d 47 ba             	lea    -0x46(%rdi),%eax
  40dbdc:	8d 4f bb             	lea    -0x45(%rdi),%ecx
  40dbdf:	69 c0 6d 01 00 00    	imul   $0x16d,%eax,%eax
  40dbe5:	85 c9                	test   %ecx,%ecx
  40dbe7:	48 63 d0             	movslq %eax,%rdx
  40dbea:	8d 41 03             	lea    0x3(%rcx),%eax
  40dbed:	0f 49 c1             	cmovns %ecx,%eax
  40dbf0:	48 63 4b 10          	movslq 0x10(%rbx),%rcx
  40dbf4:	c1 f8 02             	sar    $0x2,%eax
  40dbf7:	48 98                	cltq   
  40dbf9:	48 01 d0             	add    %rdx,%rax
  40dbfc:	4c 63 0c 8d e0 18 41 	movslq 0x4118e0(,%rcx,4),%r9
  40dc03:	00 
  40dc04:	83 f9 01             	cmp    $0x1,%ecx
  40dc07:	4d 8d 34 01          	lea    (%r9,%rax,1),%r14
  40dc0b:	7e 12                	jle    40dc1f <tm_to_time+0x4f>
  40dc0d:	81 c7 6c 07 00 00    	add    $0x76c,%edi
  40dc13:	e8 78 ff ff ff       	callq  40db90 <is_leap>
  40dc18:	83 f8 01             	cmp    $0x1,%eax
  40dc1b:	49 83 de ff          	sbb    $0xffffffffffffffff,%r14
  40dc1f:	8b 43 0c             	mov    0xc(%rbx),%eax
  40dc22:	83 e8 01             	sub    $0x1,%eax
  40dc25:	48 98                	cltq   
  40dc27:	4c 01 f0             	add    %r14,%rax
  40dc2a:	48 8d 14 40          	lea    (%rax,%rax,2),%rdx
  40dc2e:	48 63 43 08          	movslq 0x8(%rbx),%rax
  40dc32:	48 8d 14 d0          	lea    (%rax,%rdx,8),%rdx
  40dc36:	48 89 d0             	mov    %rdx,%rax
  40dc39:	48 c1 e0 04          	shl    $0x4,%rax
  40dc3d:	48 29 d0             	sub    %rdx,%rax
  40dc40:	48 63 53 04          	movslq 0x4(%rbx),%rdx
  40dc44:	48 8d 14 82          	lea    (%rdx,%rax,4),%rdx
  40dc48:	48 89 d0             	mov    %rdx,%rax
  40dc4b:	48 c1 e0 04          	shl    $0x4,%rax
  40dc4f:	48 29 d0             	sub    %rdx,%rax
  40dc52:	48 63 13             	movslq (%rbx),%rdx
  40dc55:	5b                   	pop    %rbx
  40dc56:	41 5e                	pop    %r14
  40dc58:	48 8d 04 82          	lea    (%rdx,%rax,4),%rax
  40dc5c:	c3                   	retq   
  40dc5d:	0f 1f 00             	nopl   (%rax)

000000000040dc60 <strlong_compare>:
  40dc60:	48 8b 36             	mov    (%rsi),%rsi
  40dc63:	48 8b 3f             	mov    (%rdi),%rdi
  40dc66:	e9 65 49 ff ff       	jmpq   4025d0 <strcmp@plt>
  40dc6b:	0f 1f 44 00 00       	nopl   0x0(%rax,%rax,1)

000000000040dc70 <strlong_search>:
  40dc70:	41 57                	push   %r15
  40dc72:	41 56                	push   %r14
  40dc74:	45 31 f6             	xor    %r14d,%r14d
  40dc77:	41 55                	push   %r13
  40dc79:	41 54                	push   %r12
  40dc7b:	49 89 fd             	mov    %rdi,%r13
  40dc7e:	55                   	push   %rbp
  40dc7f:	53                   	push   %rbx
  40dc80:	49 89 f4             	mov    %rsi,%r12
  40dc83:	8d 6a ff             	lea    -0x1(%rdx),%ebp
  40dc86:	48 83 ec 18          	sub    $0x18,%rsp
  40dc8a:	48 89 4c 24 08       	mov    %rcx,0x8(%rsp)
  40dc8f:	eb 12                	jmp    40dca3 <strlong_search+0x33>
  40dc91:	0f 1f 80 00 00 00 00 	nopl   0x0(%rax)
  40dc98:	74 4e                	je     40dce8 <strlong_search+0x78>
  40dc9a:	44 8d 73 01          	lea    0x1(%rbx),%r14d
  40dc9e:	44 39 f5             	cmp    %r14d,%ebp
  40dca1:	7c 2f                	jl     40dcd2 <strlong_search+0x62>
  40dca3:	42 8d 44 35 00       	lea    0x0(%rbp,%r14,1),%eax
  40dca8:	4c 89 ef             	mov    %r13,%rdi
  40dcab:	89 c3                	mov    %eax,%ebx
  40dcad:	c1 eb 1f             	shr    $0x1f,%ebx
  40dcb0:	01 c3                	add    %eax,%ebx
  40dcb2:	d1 fb                	sar    %ebx
  40dcb4:	4c 63 fb             	movslq %ebx,%r15
  40dcb7:	49 c1 e7 04          	shl    $0x4,%r15
  40dcbb:	4d 01 e7             	add    %r12,%r15
  40dcbe:	49 8b 37             	mov    (%r15),%rsi
  40dcc1:	e8 0a 49 ff ff       	callq  4025d0 <strcmp@plt>
  40dcc6:	85 c0                	test   %eax,%eax
  40dcc8:	79 ce                	jns    40dc98 <strlong_search+0x28>
  40dcca:	8d 6b ff             	lea    -0x1(%rbx),%ebp
  40dccd:	44 39 f5             	cmp    %r14d,%ebp
  40dcd0:	7d d1                	jge    40dca3 <strlong_search+0x33>
  40dcd2:	48 83 c4 18          	add    $0x18,%rsp
  40dcd6:	31 c0                	xor    %eax,%eax
  40dcd8:	5b                   	pop    %rbx
  40dcd9:	5d                   	pop    %rbp
  40dcda:	41 5c                	pop    %r12
  40dcdc:	41 5d                	pop    %r13
  40dcde:	41 5e                	pop    %r14
  40dce0:	41 5f                	pop    %r15
  40dce2:	c3                   	retq   
  40dce3:	0f 1f 44 00 00       	nopl   0x0(%rax,%rax,1)
  40dce8:	49 8b 47 08          	mov    0x8(%r15),%rax
  40dcec:	48 8b 4c 24 08       	mov    0x8(%rsp),%rcx
  40dcf1:	48 89 01             	mov    %rax,(%rcx)
  40dcf4:	48 83 c4 18          	add    $0x18,%rsp
  40dcf8:	b8 01 00 00 00       	mov    $0x1,%eax
  40dcfd:	5b                   	pop    %rbx
  40dcfe:	5d                   	pop    %rbp
  40dcff:	41 5c                	pop    %r12
  40dd01:	41 5d                	pop    %r13
  40dd03:	41 5e                	pop    %r14
  40dd05:	41 5f                	pop    %r15
  40dd07:	c3                   	retq   
  40dd08:	0f 1f 84 00 00 00 00 	nopl   0x0(%rax,%rax,1)
  40dd0f:	00 

000000000040dd10 <pound_case>:
  40dd10:	41 54                	push   %r12
  40dd12:	55                   	push   %rbp
  40dd13:	53                   	push   %rbx
  40dd14:	0f b6 1f             	movzbl (%rdi),%ebx
  40dd17:	84 db                	test   %bl,%bl
  40dd19:	74 3b                	je     40dd56 <pound_case+0x46>
  40dd1b:	48 89 fd             	mov    %rdi,%rbp
  40dd1e:	e8 6d 4c ff ff       	callq  402990 <__ctype_b_loc@plt>
  40dd23:	49 89 c4             	mov    %rax,%r12
  40dd26:	66 2e 0f 1f 84 00 00 	nopw   %cs:0x0(%rax,%rax,1)
  40dd2d:	00 00 00 
  40dd30:	49 8b 14 24          	mov    (%r12),%rdx
  40dd34:	48 0f be c3          	movsbq %bl,%rax
  40dd38:	f6 44 42 01 01       	testb  $0x1,0x1(%rdx,%rax,2)
  40dd3d:	74 0b                	je     40dd4a <pound_case+0x3a>
  40dd3f:	0f be fb             	movsbl %bl,%edi
  40dd42:	e8 49 49 ff ff       	callq  402690 <tolower@plt>
  40dd47:	88 45 00             	mov    %al,0x0(%rbp)
  40dd4a:	48 83 c5 01          	add    $0x1,%rbp
  40dd4e:	0f b6 5d 00          	movzbl 0x0(%rbp),%ebx
  40dd52:	84 db                	test   %bl,%bl
  40dd54:	75 da                	jne    40dd30 <pound_case+0x20>
  40dd56:	5b                   	pop    %rbx
  40dd57:	5d                   	pop    %rbp
  40dd58:	41 5c                	pop    %r12
  40dd5a:	c3                   	retq   
  40dd5b:	0f 1f 44 00 00       	nopl   0x0(%rax,%rax,1)

000000000040dd60 <scan_wday>:
  40dd60:	55                   	push   %rbp
  40dd61:	53                   	push   %rbx
  40dd62:	48 89 f5             	mov    %rsi,%rbp
  40dd65:	48 89 fb             	mov    %rdi,%rbx
  40dd68:	48 83 ec 08          	sub    $0x8,%rsp
  40dd6c:	8b 05 4a 8a 20 00    	mov    0x208a4a(%rip),%eax        # 6167bc <sorted.3135>
  40dd72:	85 c0                	test   %eax,%eax
  40dd74:	75 23                	jne    40dd99 <scan_wday+0x39>
  40dd76:	b9 60 dc 40 00       	mov    $0x40dc60,%ecx
  40dd7b:	ba 10 00 00 00       	mov    $0x10,%edx
  40dd80:	be 0e 00 00 00       	mov    $0xe,%esi
  40dd85:	bf 20 5e 61 00       	mov    $0x615e20,%edi
  40dd8a:	e8 d1 45 ff ff       	callq  402360 <qsort@plt>
  40dd8f:	c7 05 23 8a 20 00 01 	movl   $0x1,0x208a23(%rip)        # 6167bc <sorted.3135>
  40dd96:	00 00 00 
  40dd99:	48 89 df             	mov    %rbx,%rdi
  40dd9c:	e8 6f ff ff ff       	callq  40dd10 <pound_case>
  40dda1:	48 83 c4 08          	add    $0x8,%rsp
  40dda5:	48 89 e9             	mov    %rbp,%rcx
  40dda8:	48 89 df             	mov    %rbx,%rdi
  40ddab:	5b                   	pop    %rbx
  40ddac:	5d                   	pop    %rbp
  40ddad:	ba 0e 00 00 00       	mov    $0xe,%edx
  40ddb2:	be 20 5e 61 00       	mov    $0x615e20,%esi
  40ddb7:	e9 b4 fe ff ff       	jmpq   40dc70 <strlong_search>
  40ddbc:	0f 1f 40 00          	nopl   0x0(%rax)

000000000040ddc0 <scan_mon>:
  40ddc0:	55                   	push   %rbp
  40ddc1:	53                   	push   %rbx
  40ddc2:	48 89 f5             	mov    %rsi,%rbp
  40ddc5:	48 89 fb             	mov    %rdi,%rbx
  40ddc8:	48 83 ec 08          	sub    $0x8,%rsp
  40ddcc:	8b 05 e6 89 20 00    	mov    0x2089e6(%rip),%eax        # 6167b8 <sorted.3141>
  40ddd2:	85 c0                	test   %eax,%eax
  40ddd4:	75 23                	jne    40ddf9 <scan_mon+0x39>
  40ddd6:	b9 60 dc 40 00       	mov    $0x40dc60,%ecx
  40dddb:	ba 10 00 00 00       	mov    $0x10,%edx
  40dde0:	be 17 00 00 00       	mov    $0x17,%esi
  40dde5:	bf a0 5c 61 00       	mov    $0x615ca0,%edi
  40ddea:	e8 71 45 ff ff       	callq  402360 <qsort@plt>
  40ddef:	c7 05 bf 89 20 00 01 	movl   $0x1,0x2089bf(%rip)        # 6167b8 <sorted.3141>
  40ddf6:	00 00 00 
  40ddf9:	48 89 df             	mov    %rbx,%rdi
  40ddfc:	e8 0f ff ff ff       	callq  40dd10 <pound_case>
  40de01:	48 83 c4 08          	add    $0x8,%rsp
  40de05:	48 89 e9             	mov    %rbp,%rcx
  40de08:	48 89 df             	mov    %rbx,%rdi
  40de0b:	5b                   	pop    %rbx
  40de0c:	5d                   	pop    %rbp
  40de0d:	ba 17 00 00 00       	mov    $0x17,%edx
  40de12:	be a0 5c 61 00       	mov    $0x615ca0,%esi
  40de17:	e9 54 fe ff ff       	jmpq   40dc70 <strlong_search>
  40de1c:	0f 1f 40 00          	nopl   0x0(%rax)

000000000040de20 <tdate_parse>:
  40de20:	41 57                	push   %r15
  40de22:	41 56                	push   %r14
  40de24:	31 c0                	xor    %eax,%eax
  40de26:	41 55                	push   %r13
  40de28:	41 54                	push   %r12
  40de2a:	b9 07 00 00 00       	mov    $0x7,%ecx
  40de2f:	55                   	push   %rbp
  40de30:	53                   	push   %rbx
  40de31:	48 89 fb             	mov    %rdi,%rbx
  40de34:	48 81 ec 78 04 00 00 	sub    $0x478,%rsp
  40de3b:	48 8d 7c 24 30       	lea    0x30(%rsp),%rdi
  40de40:	f3 48 ab             	rep stos %rax,%es:(%rdi)
  40de43:	0f b6 03             	movzbl (%rbx),%eax
  40de46:	3c 09                	cmp    $0x9,%al
  40de48:	0f 84 1a 02 00 00    	je     40e068 <tdate_parse+0x248>
  40de4e:	3c 20                	cmp    $0x20,%al
  40de50:	0f 84 12 02 00 00    	je     40e068 <tdate_parse+0x248>
  40de56:	4c 8d 74 24 0c       	lea    0xc(%rsp),%r14
  40de5b:	4c 8d 64 24 14       	lea    0x14(%rsp),%r12
  40de60:	4c 8d 7c 24 1c       	lea    0x1c(%rsp),%r15
  40de65:	48 8d 6c 24 70       	lea    0x70(%rsp),%rbp
  40de6a:	31 c0                	xor    %eax,%eax
  40de6c:	be c0 17 41 00       	mov    $0x4117c0,%esi
  40de71:	41 56                	push   %r14
  40de73:	4d 89 e1             	mov    %r12,%r9
  40de76:	4d 89 f8             	mov    %r15,%r8
  40de79:	48 89 e9             	mov    %rbp,%rcx
  40de7c:	48 89 df             	mov    %rbx,%rdi
  40de7f:	4c 8d 6c 24 18       	lea    0x18(%rsp),%r13
  40de84:	41 55                	push   %r13
  40de86:	48 8d 54 24 28       	lea    0x28(%rsp),%rdx
  40de8b:	e8 50 48 ff ff       	callq  4026e0 <__isoc99_sscanf@plt>
  40de90:	83 f8 06             	cmp    $0x6,%eax
  40de93:	41 5a                	pop    %r10
  40de95:	41 5b                	pop    %r11
  40de97:	0f 84 f3 01 00 00    	je     40e090 <tdate_parse+0x270>
  40de9d:	41 56                	push   %r14
  40de9f:	41 55                	push   %r13
  40dea1:	4d 89 e1             	mov    %r12,%r9
  40dea4:	4d 89 f8             	mov    %r15,%r8
  40dea7:	31 c0                	xor    %eax,%eax
  40dea9:	48 89 e9             	mov    %rbp,%rcx
  40deac:	48 8d 54 24 28       	lea    0x28(%rsp),%rdx
  40deb1:	be e0 17 41 00       	mov    $0x4117e0,%esi
  40deb6:	48 89 df             	mov    %rbx,%rdi
  40deb9:	e8 22 48 ff ff       	callq  4026e0 <__isoc99_sscanf@plt>
  40debe:	83 f8 06             	cmp    $0x6,%eax
  40dec1:	41 58                	pop    %r8
  40dec3:	41 59                	pop    %r9
  40dec5:	0f 84 15 02 00 00    	je     40e0e0 <tdate_parse+0x2c0>
  40decb:	41 57                	push   %r15
  40decd:	55                   	push   %rbp
  40dece:	be 00 18 41 00       	mov    $0x411800,%esi
  40ded3:	48 89 df             	mov    %rbx,%rdi
  40ded6:	31 c0                	xor    %eax,%eax
  40ded8:	4d 89 f0             	mov    %r14,%r8
  40dedb:	4c 8d 4c 24 28       	lea    0x28(%rsp),%r9
  40dee0:	4c 89 e9             	mov    %r13,%rcx
  40dee3:	4c 89 e2             	mov    %r12,%rdx
  40dee6:	e8 f5 47 ff ff       	callq  4026e0 <__isoc99_sscanf@plt>
  40deeb:	83 f8 06             	cmp    $0x6,%eax
  40deee:	5e                   	pop    %rsi
  40deef:	5f                   	pop    %rdi
  40def0:	0f 84 0a 02 00 00    	je     40e100 <tdate_parse+0x2e0>
  40def6:	41 57                	push   %r15
  40def8:	55                   	push   %rbp
  40def9:	4c 89 e9             	mov    %r13,%rcx
  40defc:	4c 89 e2             	mov    %r12,%rdx
  40deff:	31 c0                	xor    %eax,%eax
  40df01:	4d 89 f0             	mov    %r14,%r8
  40df04:	4c 8d 4c 24 28       	lea    0x28(%rsp),%r9
  40df09:	be 20 18 41 00       	mov    $0x411820,%esi
  40df0e:	48 89 df             	mov    %rbx,%rdi
  40df11:	e8 ca 47 ff ff       	callq  4026e0 <__isoc99_sscanf@plt>
  40df16:	83 f8 06             	cmp    $0x6,%eax
  40df19:	5a                   	pop    %rdx
  40df1a:	59                   	pop    %rcx
  40df1b:	0f 84 ff 01 00 00    	je     40e120 <tdate_parse+0x300>
  40df21:	48 83 ec 08          	sub    $0x8,%rsp
  40df25:	31 c0                	xor    %eax,%eax
  40df27:	4d 89 f9             	mov    %r15,%r9
  40df2a:	41 56                	push   %r14
  40df2c:	41 55                	push   %r13
  40df2e:	49 89 e8             	mov    %rbp,%r8
  40df31:	41 54                	push   %r12
  40df33:	be 40 18 41 00       	mov    $0x411840,%esi
  40df38:	48 89 df             	mov    %rbx,%rdi
  40df3b:	48 8d 4c 24 38       	lea    0x38(%rsp),%rcx
  40df40:	48 8d 94 24 90 02 00 	lea    0x290(%rsp),%rdx
  40df47:	00 
  40df48:	e8 93 47 ff ff       	callq  4026e0 <__isoc99_sscanf@plt>
  40df4d:	48 83 c4 20          	add    $0x20,%rsp
  40df51:	83 f8 07             	cmp    $0x7,%eax
  40df54:	0f 84 16 02 00 00    	je     40e170 <tdate_parse+0x350>
  40df5a:	48 83 ec 08          	sub    $0x8,%rsp
  40df5e:	31 c0                	xor    %eax,%eax
  40df60:	4d 89 f9             	mov    %r15,%r9
  40df63:	41 56                	push   %r14
  40df65:	41 55                	push   %r13
  40df67:	49 89 e8             	mov    %rbp,%r8
  40df6a:	41 54                	push   %r12
  40df6c:	be 70 18 41 00       	mov    $0x411870,%esi
  40df71:	48 89 df             	mov    %rbx,%rdi
  40df74:	48 8d 4c 24 38       	lea    0x38(%rsp),%rcx
  40df79:	48 8d 94 24 90 02 00 	lea    0x290(%rsp),%rdx
  40df80:	00 
  40df81:	e8 5a 47 ff ff       	callq  4026e0 <__isoc99_sscanf@plt>
  40df86:	48 83 c4 20          	add    $0x20,%rsp
  40df8a:	83 f8 07             	cmp    $0x7,%eax
  40df8d:	0f 84 1d 02 00 00    	je     40e1b0 <tdate_parse+0x390>
  40df93:	48 83 ec 08          	sub    $0x8,%rsp
  40df97:	31 c0                	xor    %eax,%eax
  40df99:	4d 89 e1             	mov    %r12,%r9
  40df9c:	41 57                	push   %r15
  40df9e:	41 56                	push   %r14
  40dfa0:	48 89 e9             	mov    %rbp,%rcx
  40dfa3:	41 55                	push   %r13
  40dfa5:	be a0 18 41 00       	mov    $0x4118a0,%esi
  40dfaa:	48 89 df             	mov    %rbx,%rdi
  40dfad:	4c 8d 44 24 38       	lea    0x38(%rsp),%r8
  40dfb2:	48 8d 94 24 90 02 00 	lea    0x290(%rsp),%rdx
  40dfb9:	00 
  40dfba:	e8 21 47 ff ff       	callq  4026e0 <__isoc99_sscanf@plt>
  40dfbf:	48 83 c4 20          	add    $0x20,%rsp
  40dfc3:	83 f8 07             	cmp    $0x7,%eax
  40dfc6:	0f 85 1c 02 00 00    	jne    40e1e8 <tdate_parse+0x3c8>
  40dfcc:	48 8d 74 24 28       	lea    0x28(%rsp),%rsi
  40dfd1:	48 8d bc 24 70 02 00 	lea    0x270(%rsp),%rdi
  40dfd8:	00 
  40dfd9:	e8 82 fd ff ff       	callq  40dd60 <scan_wday>
  40dfde:	85 c0                	test   %eax,%eax
  40dfe0:	0f 84 02 02 00 00    	je     40e1e8 <tdate_parse+0x3c8>
  40dfe6:	48 8d 74 24 20       	lea    0x20(%rsp),%rsi
  40dfeb:	48 89 ef             	mov    %rbp,%rdi
  40dfee:	e8 cd fd ff ff       	callq  40ddc0 <scan_mon>
  40dff3:	85 c0                	test   %eax,%eax
  40dff5:	0f 84 ed 01 00 00    	je     40e1e8 <tdate_parse+0x3c8>
  40dffb:	48 8b 44 24 28       	mov    0x28(%rsp),%rax
  40e000:	89 44 24 48          	mov    %eax,0x48(%rsp)
  40e004:	48 8b 44 24 20       	mov    0x20(%rsp),%rax
  40e009:	89 44 24 40          	mov    %eax,0x40(%rsp)
  40e00d:	8b 44 24 18          	mov    0x18(%rsp),%eax
  40e011:	89 44 24 3c          	mov    %eax,0x3c(%rsp)
  40e015:	8b 44 24 14          	mov    0x14(%rsp),%eax
  40e019:	89 44 24 38          	mov    %eax,0x38(%rsp)
  40e01d:	8b 44 24 10          	mov    0x10(%rsp),%eax
  40e021:	89 44 24 34          	mov    %eax,0x34(%rsp)
  40e025:	8b 44 24 0c          	mov    0xc(%rsp),%eax
  40e029:	89 44 24 30          	mov    %eax,0x30(%rsp)
  40e02d:	8b 44 24 1c          	mov    0x1c(%rsp),%eax
  40e031:	89 44 24 44          	mov    %eax,0x44(%rsp)
  40e035:	3d 6c 07 00 00       	cmp    $0x76c,%eax
  40e03a:	7e 44                	jle    40e080 <tdate_parse+0x260>
  40e03c:	2d 6c 07 00 00       	sub    $0x76c,%eax
  40e041:	89 44 24 44          	mov    %eax,0x44(%rsp)
  40e045:	48 8d 7c 24 30       	lea    0x30(%rsp),%rdi
  40e04a:	e8 81 fb ff ff       	callq  40dbd0 <tm_to_time>
  40e04f:	48 81 c4 78 04 00 00 	add    $0x478,%rsp
  40e056:	5b                   	pop    %rbx
  40e057:	5d                   	pop    %rbp
  40e058:	41 5c                	pop    %r12
  40e05a:	41 5d                	pop    %r13
  40e05c:	41 5e                	pop    %r14
  40e05e:	41 5f                	pop    %r15
  40e060:	c3                   	retq   
  40e061:	0f 1f 80 00 00 00 00 	nopl   0x0(%rax)
  40e068:	48 83 c3 01          	add    $0x1,%rbx
  40e06c:	0f b6 03             	movzbl (%rbx),%eax
  40e06f:	3c 20                	cmp    $0x20,%al
  40e071:	74 f5                	je     40e068 <tdate_parse+0x248>
  40e073:	3c 09                	cmp    $0x9,%al
  40e075:	0f 85 db fd ff ff    	jne    40de56 <tdate_parse+0x36>
  40e07b:	eb eb                	jmp    40e068 <tdate_parse+0x248>
  40e07d:	0f 1f 00             	nopl   (%rax)
  40e080:	83 f8 45             	cmp    $0x45,%eax
  40e083:	7f c0                	jg     40e045 <tdate_parse+0x225>
  40e085:	83 c0 64             	add    $0x64,%eax
  40e088:	89 44 24 44          	mov    %eax,0x44(%rsp)
  40e08c:	eb b7                	jmp    40e045 <tdate_parse+0x225>
  40e08e:	66 90                	xchg   %ax,%ax
  40e090:	48 8d 74 24 20       	lea    0x20(%rsp),%rsi
  40e095:	48 89 ef             	mov    %rbp,%rdi
  40e098:	e8 23 fd ff ff       	callq  40ddc0 <scan_mon>
  40e09d:	85 c0                	test   %eax,%eax
  40e09f:	0f 84 f8 fd ff ff    	je     40de9d <tdate_parse+0x7d>
  40e0a5:	8b 44 24 18          	mov    0x18(%rsp),%eax
  40e0a9:	8b 54 24 14          	mov    0x14(%rsp),%edx
  40e0ad:	89 44 24 3c          	mov    %eax,0x3c(%rsp)
  40e0b1:	89 54 24 38          	mov    %edx,0x38(%rsp)
  40e0b5:	48 8b 44 24 20       	mov    0x20(%rsp),%rax
  40e0ba:	8b 54 24 10          	mov    0x10(%rsp),%edx
  40e0be:	89 44 24 40          	mov    %eax,0x40(%rsp)
  40e0c2:	89 54 24 34          	mov    %edx,0x34(%rsp)
  40e0c6:	8b 44 24 1c          	mov    0x1c(%rsp),%eax
  40e0ca:	8b 54 24 0c          	mov    0xc(%rsp),%edx
  40e0ce:	89 44 24 44          	mov    %eax,0x44(%rsp)
  40e0d2:	89 54 24 30          	mov    %edx,0x30(%rsp)
  40e0d6:	e9 5a ff ff ff       	jmpq   40e035 <tdate_parse+0x215>
  40e0db:	0f 1f 44 00 00       	nopl   0x0(%rax,%rax,1)
  40e0e0:	48 8d 74 24 20       	lea    0x20(%rsp),%rsi
  40e0e5:	48 89 ef             	mov    %rbp,%rdi
  40e0e8:	e8 d3 fc ff ff       	callq  40ddc0 <scan_mon>
  40e0ed:	85 c0                	test   %eax,%eax
  40e0ef:	75 b4                	jne    40e0a5 <tdate_parse+0x285>
  40e0f1:	e9 d5 fd ff ff       	jmpq   40decb <tdate_parse+0xab>
  40e0f6:	66 2e 0f 1f 84 00 00 	nopw   %cs:0x0(%rax,%rax,1)
  40e0fd:	00 00 00 
  40e100:	48 8d 74 24 20       	lea    0x20(%rsp),%rsi
  40e105:	48 89 ef             	mov    %rbp,%rdi
  40e108:	e8 b3 fc ff ff       	callq  40ddc0 <scan_mon>
  40e10d:	85 c0                	test   %eax,%eax
  40e10f:	75 24                	jne    40e135 <tdate_parse+0x315>
  40e111:	e9 e0 fd ff ff       	jmpq   40def6 <tdate_parse+0xd6>
  40e116:	66 2e 0f 1f 84 00 00 	nopw   %cs:0x0(%rax,%rax,1)
  40e11d:	00 00 00 
  40e120:	48 8d 74 24 20       	lea    0x20(%rsp),%rsi
  40e125:	48 89 ef             	mov    %rbp,%rdi
  40e128:	e8 93 fc ff ff       	callq  40ddc0 <scan_mon>
  40e12d:	85 c0                	test   %eax,%eax
  40e12f:	0f 84 ec fd ff ff    	je     40df21 <tdate_parse+0x101>
  40e135:	8b 44 24 14          	mov    0x14(%rsp),%eax
  40e139:	89 44 24 38          	mov    %eax,0x38(%rsp)
  40e13d:	8b 44 24 10          	mov    0x10(%rsp),%eax
  40e141:	89 44 24 34          	mov    %eax,0x34(%rsp)
  40e145:	8b 44 24 0c          	mov    0xc(%rsp),%eax
  40e149:	89 44 24 30          	mov    %eax,0x30(%rsp)
  40e14d:	8b 44 24 18          	mov    0x18(%rsp),%eax
  40e151:	89 44 24 3c          	mov    %eax,0x3c(%rsp)
  40e155:	48 8b 44 24 20       	mov    0x20(%rsp),%rax
  40e15a:	89 44 24 40          	mov    %eax,0x40(%rsp)
  40e15e:	8b 44 24 1c          	mov    0x1c(%rsp),%eax
  40e162:	89 44 24 44          	mov    %eax,0x44(%rsp)
  40e166:	e9 ca fe ff ff       	jmpq   40e035 <tdate_parse+0x215>
  40e16b:	0f 1f 44 00 00       	nopl   0x0(%rax,%rax,1)
  40e170:	48 8d 74 24 28       	lea    0x28(%rsp),%rsi
  40e175:	48 8d bc 24 70 02 00 	lea    0x270(%rsp),%rdi
  40e17c:	00 
  40e17d:	e8 de fb ff ff       	callq  40dd60 <scan_wday>
  40e182:	85 c0                	test   %eax,%eax
  40e184:	0f 84 d0 fd ff ff    	je     40df5a <tdate_parse+0x13a>
  40e18a:	48 8d 74 24 20       	lea    0x20(%rsp),%rsi
  40e18f:	48 89 ef             	mov    %rbp,%rdi
  40e192:	e8 29 fc ff ff       	callq  40ddc0 <scan_mon>
  40e197:	85 c0                	test   %eax,%eax
  40e199:	0f 84 bb fd ff ff    	je     40df5a <tdate_parse+0x13a>
  40e19f:	48 8b 44 24 28       	mov    0x28(%rsp),%rax
  40e1a4:	89 44 24 48          	mov    %eax,0x48(%rsp)
  40e1a8:	e9 f8 fe ff ff       	jmpq   40e0a5 <tdate_parse+0x285>
  40e1ad:	0f 1f 00             	nopl   (%rax)
  40e1b0:	48 8d 74 24 28       	lea    0x28(%rsp),%rsi
  40e1b5:	48 8d bc 24 70 02 00 	lea    0x270(%rsp),%rdi
  40e1bc:	00 
  40e1bd:	e8 9e fb ff ff       	callq  40dd60 <scan_wday>
  40e1c2:	85 c0                	test   %eax,%eax
  40e1c4:	0f 84 c9 fd ff ff    	je     40df93 <tdate_parse+0x173>
  40e1ca:	48 8d 74 24 20       	lea    0x20(%rsp),%rsi
  40e1cf:	48 89 ef             	mov    %rbp,%rdi
  40e1d2:	e8 e9 fb ff ff       	callq  40ddc0 <scan_mon>
  40e1d7:	85 c0                	test   %eax,%eax
  40e1d9:	0f 84 b4 fd ff ff    	je     40df93 <tdate_parse+0x173>
  40e1df:	eb be                	jmp    40e19f <tdate_parse+0x37f>
  40e1e1:	0f 1f 80 00 00 00 00 	nopl   0x0(%rax)
  40e1e8:	48 c7 c0 ff ff ff ff 	mov    $0xffffffffffffffff,%rax
  40e1ef:	e9 5b fe ff ff       	jmpq   40e04f <tdate_parse+0x22f>
  40e1f4:	66 2e 0f 1f 84 00 00 	nopw   %cs:0x0(%rax,%rax,1)
  40e1fb:	00 00 00 
  40e1fe:	66 90                	xchg   %ax,%ax

000000000040e200 <match_one>:
  40e200:	48 63 ce             	movslq %esi,%rcx
  40e203:	48 85 c9             	test   %rcx,%rcx
  40e206:	0f 8e e7 00 00 00    	jle    40e2f3 <match_one+0xf3>
  40e20c:	41 55                	push   %r13
  40e20e:	41 54                	push   %r12
  40e210:	49 89 cc             	mov    %rcx,%r12
  40e213:	55                   	push   %rbp
  40e214:	53                   	push   %rbx
  40e215:	48 89 fd             	mov    %rdi,%rbp
  40e218:	48 83 ec 18          	sub    $0x18,%rsp
  40e21c:	eb 1d                	jmp    40e23b <match_one+0x3b>
  40e21e:	66 90                	xchg   %ax,%ax
  40e220:	3c 2a                	cmp    $0x2a,%al
  40e222:	74 4c                	je     40e270 <match_one+0x70>
  40e224:	3a 02                	cmp    (%rdx),%al
  40e226:	75 1f                	jne    40e247 <match_one+0x47>
  40e228:	48 83 c7 01          	add    $0x1,%rdi
  40e22c:	48 83 c2 01          	add    $0x1,%rdx
  40e230:	48 89 f8             	mov    %rdi,%rax
  40e233:	48 29 e8             	sub    %rbp,%rax
  40e236:	48 39 c8             	cmp    %rcx,%rax
  40e239:	7d 1d                	jge    40e258 <match_one+0x58>
  40e23b:	0f b6 07             	movzbl (%rdi),%eax
  40e23e:	3c 3f                	cmp    $0x3f,%al
  40e240:	75 de                	jne    40e220 <match_one+0x20>
  40e242:	80 3a 00             	cmpb   $0x0,(%rdx)
  40e245:	75 e1                	jne    40e228 <match_one+0x28>
  40e247:	31 c0                	xor    %eax,%eax
  40e249:	48 83 c4 18          	add    $0x18,%rsp
  40e24d:	5b                   	pop    %rbx
  40e24e:	5d                   	pop    %rbp
  40e24f:	41 5c                	pop    %r12
  40e251:	41 5d                	pop    %r13
  40e253:	c3                   	retq   
  40e254:	0f 1f 40 00          	nopl   0x0(%rax)
  40e258:	31 c0                	xor    %eax,%eax
  40e25a:	80 3a 00             	cmpb   $0x0,(%rdx)
  40e25d:	0f 94 c0             	sete   %al
  40e260:	48 83 c4 18          	add    $0x18,%rsp
  40e264:	5b                   	pop    %rbx
  40e265:	5d                   	pop    %rbp
  40e266:	41 5c                	pop    %r12
  40e268:	41 5d                	pop    %r13
  40e26a:	c3                   	retq   
  40e26b:	0f 1f 44 00 00       	nopl   0x0(%rax,%rax,1)
  40e270:	80 7f 01 2a          	cmpb   $0x2a,0x1(%rdi)
  40e274:	74 65                	je     40e2db <match_one+0xdb>
  40e276:	48 8d 5f 01          	lea    0x1(%rdi),%rbx
  40e27a:	be 17 f0 40 00       	mov    $0x40f017,%esi
  40e27f:	48 89 d7             	mov    %rdx,%rdi
  40e282:	48 89 54 24 08       	mov    %rdx,0x8(%rsp)
  40e287:	e8 e4 42 ff ff       	callq  402570 <strcspn@plt>
  40e28c:	48 8b 54 24 08       	mov    0x8(%rsp),%rdx
  40e291:	48 89 d9             	mov    %rbx,%rcx
  40e294:	48 29 e9             	sub    %rbp,%rcx
  40e297:	41 29 cc             	sub    %ecx,%r12d
  40e29a:	85 c0                	test   %eax,%eax
  40e29c:	78 a9                	js     40e247 <match_one+0x47>
  40e29e:	48 98                	cltq   
  40e2a0:	4c 8d 68 ff          	lea    -0x1(%rax),%r13
  40e2a4:	48 8d 2c 02          	lea    (%rdx,%rax,1),%rbp
  40e2a8:	49 29 c5             	sub    %rax,%r13
  40e2ab:	49 01 d5             	add    %rdx,%r13
  40e2ae:	eb 09                	jmp    40e2b9 <match_one+0xb9>
  40e2b0:	48 83 ed 01          	sub    $0x1,%rbp
  40e2b4:	4c 39 ed             	cmp    %r13,%rbp
  40e2b7:	74 90                	je     40e249 <match_one+0x49>
  40e2b9:	48 89 ea             	mov    %rbp,%rdx
  40e2bc:	44 89 e6             	mov    %r12d,%esi
  40e2bf:	48 89 df             	mov    %rbx,%rdi
  40e2c2:	e8 39 ff ff ff       	callq  40e200 <match_one>
  40e2c7:	85 c0                	test   %eax,%eax
  40e2c9:	74 e5                	je     40e2b0 <match_one+0xb0>
  40e2cb:	48 83 c4 18          	add    $0x18,%rsp
  40e2cf:	b8 01 00 00 00       	mov    $0x1,%eax
  40e2d4:	5b                   	pop    %rbx
  40e2d5:	5d                   	pop    %rbp
  40e2d6:	41 5c                	pop    %r12
  40e2d8:	41 5d                	pop    %r13
  40e2da:	c3                   	retq   
  40e2db:	48 8d 5f 02          	lea    0x2(%rdi),%rbx
  40e2df:	48 89 d7             	mov    %rdx,%rdi
  40e2e2:	48 89 54 24 08       	mov    %rdx,0x8(%rsp)
  40e2e7:	e8 34 41 ff ff       	callq  402420 <strlen@plt>
  40e2ec:	48 8b 54 24 08       	mov    0x8(%rsp),%rdx
  40e2f1:	eb 9e                	jmp    40e291 <match_one+0x91>
  40e2f3:	31 c0                	xor    %eax,%eax
  40e2f5:	80 3a 00             	cmpb   $0x0,(%rdx)
  40e2f8:	0f 94 c0             	sete   %al
  40e2fb:	c3                   	retq   
  40e2fc:	0f 1f 40 00          	nopl   0x0(%rax)

000000000040e300 <match>:
  40e300:	41 54                	push   %r12
  40e302:	49 89 f4             	mov    %rsi,%r12
  40e305:	55                   	push   %rbp
  40e306:	53                   	push   %rbx
  40e307:	48 89 fb             	mov    %rdi,%rbx
  40e30a:	eb 1d                	jmp    40e329 <match+0x29>
  40e30c:	0f 1f 40 00          	nopl   0x0(%rax)
  40e310:	48 89 c6             	mov    %rax,%rsi
  40e313:	4c 89 e2             	mov    %r12,%rdx
  40e316:	48 89 df             	mov    %rbx,%rdi
  40e319:	48 29 de             	sub    %rbx,%rsi
  40e31c:	e8 df fe ff ff       	callq  40e200 <match_one>
  40e321:	85 c0                	test   %eax,%eax
  40e323:	75 3b                	jne    40e360 <match+0x60>
  40e325:	48 8d 5d 01          	lea    0x1(%rbp),%rbx
  40e329:	be 7c 00 00 00       	mov    $0x7c,%esi
  40e32e:	48 89 df             	mov    %rbx,%rdi
  40e331:	e8 4a 41 ff ff       	callq  402480 <strchr@plt>
  40e336:	48 85 c0             	test   %rax,%rax
  40e339:	48 89 c5             	mov    %rax,%rbp
  40e33c:	75 d2                	jne    40e310 <match+0x10>
  40e33e:	48 89 df             	mov    %rbx,%rdi
  40e341:	e8 da 40 ff ff       	callq  402420 <strlen@plt>
  40e346:	4c 89 e2             	mov    %r12,%rdx
  40e349:	48 89 df             	mov    %rbx,%rdi
  40e34c:	89 c6                	mov    %eax,%esi
  40e34e:	5b                   	pop    %rbx
  40e34f:	5d                   	pop    %rbp
  40e350:	41 5c                	pop    %r12
  40e352:	e9 a9 fe ff ff       	jmpq   40e200 <match_one>
  40e357:	66 0f 1f 84 00 00 00 	nopw   0x0(%rax,%rax,1)
  40e35e:	00 00 
  40e360:	5b                   	pop    %rbx
  40e361:	b8 01 00 00 00       	mov    $0x1,%eax
  40e366:	5d                   	pop    %rbp
  40e367:	41 5c                	pop    %r12
  40e369:	c3                   	retq   
  40e36a:	66 0f 1f 44 00 00    	nopw   0x0(%rax,%rax,1)

000000000040e370 <__libc_csu_init>:
  40e370:	41 57                	push   %r15
  40e372:	41 89 ff             	mov    %edi,%r15d
  40e375:	41 56                	push   %r14
  40e377:	49 89 f6             	mov    %rsi,%r14
  40e37a:	41 55                	push   %r13
  40e37c:	49 89 d5             	mov    %rdx,%r13
  40e37f:	41 54                	push   %r12
  40e381:	4c 8d 25 58 5a 20 00 	lea    0x205a58(%rip),%r12        # 613de0 <__frame_dummy_init_array_entry>
  40e388:	55                   	push   %rbp
  40e389:	48 8d 2d 58 5a 20 00 	lea    0x205a58(%rip),%rbp        # 613de8 <__init_array_end>
  40e390:	53                   	push   %rbx
  40e391:	4c 29 e5             	sub    %r12,%rbp
  40e394:	31 db                	xor    %ebx,%ebx
  40e396:	48 c1 fd 03          	sar    $0x3,%rbp
  40e39a:	48 83 ec 08          	sub    $0x8,%rsp
  40e39e:	e8 b5 3e ff ff       	callq  402258 <_init>
  40e3a3:	48 85 ed             	test   %rbp,%rbp
  40e3a6:	74 1e                	je     40e3c6 <__libc_csu_init+0x56>
  40e3a8:	0f 1f 84 00 00 00 00 	nopl   0x0(%rax,%rax,1)
  40e3af:	00 
  40e3b0:	4c 89 ea             	mov    %r13,%rdx
  40e3b3:	4c 89 f6             	mov    %r14,%rsi
  40e3b6:	44 89 ff             	mov    %r15d,%edi
  40e3b9:	41 ff 14 dc          	callq  *(%r12,%rbx,8)
  40e3bd:	48 83 c3 01          	add    $0x1,%rbx
  40e3c1:	48 39 eb             	cmp    %rbp,%rbx
  40e3c4:	75 ea                	jne    40e3b0 <__libc_csu_init+0x40>
  40e3c6:	48 83 c4 08          	add    $0x8,%rsp
  40e3ca:	5b                   	pop    %rbx
  40e3cb:	5d                   	pop    %rbp
  40e3cc:	41 5c                	pop    %r12
  40e3ce:	41 5d                	pop    %r13
  40e3d0:	41 5e                	pop    %r14
  40e3d2:	41 5f                	pop    %r15
  40e3d4:	c3                   	retq   
  40e3d5:	90                   	nop
  40e3d6:	66 2e 0f 1f 84 00 00 	nopw   %cs:0x0(%rax,%rax,1)
  40e3dd:	00 00 00 

000000000040e3e0 <__libc_csu_fini>:
  40e3e0:	f3 c3                	repz retq 
  40e3e2:	66 2e 0f 1f 84 00 00 	nopw   %cs:0x0(%rax,%rax,1)
  40e3e9:	00 00 00 
  40e3ec:	0f 1f 40 00          	nopl   0x0(%rax)

000000000040e3f0 <__stat>:
  40e3f0:	48 89 f2             	mov    %rsi,%rdx
  40e3f3:	48 89 fe             	mov    %rdi,%rsi
  40e3f6:	bf 01 00 00 00       	mov    $0x1,%edi
  40e3fb:	e9 70 42 ff ff       	jmpq   402670 <__xstat@plt>

000000000040e400 <__lstat>:
  40e400:	48 89 f2             	mov    %rsi,%rdx
  40e403:	48 89 fe             	mov    %rdi,%rsi
  40e406:	bf 01 00 00 00       	mov    $0x1,%edi
  40e40b:	e9 20 40 ff ff       	jmpq   402430 <__lxstat@plt>

Disassembly of section .fini:

000000000040e410 <_fini>:
  40e410:	48 83 ec 08          	sub    $0x8,%rsp
  40e414:	48 83 c4 08          	add    $0x8,%rsp
  40e418:	c3                   	retq   
